SF:/root/build/c509-certificate/src/algorithm_identifier.rs
FN:51,_RNvMNtCs7f8recisRHY_16c509_certificate20algorithm_identifierNtB2_19AlgorithmIdentifier3oid
FN:57,_RNvMNtCs7f8recisRHY_16c509_certificate20algorithm_identifierNtB2_19AlgorithmIdentifier5param
FN:63,_RINvXs_NtCs7f8recisRHY_16c509_certificate20algorithm_identifierNtB5_19AlgorithmIdentifierINtNtCs906yGzbw5oA_8minicbor6encode6EncodeuE6encodeQINtNtCs8Ty2CzGA6U3_5alloc3vec3VechEEB7_
FN:85,_RNvXs0_NtCs7f8recisRHY_16c509_certificate20algorithm_identifierNtB5_19AlgorithmIdentifierINtNtCs906yGzbw5oA_8minicbor6decode6DecodeuE6decode
FN:39,_RNvMNtCs7f8recisRHY_16c509_certificate20algorithm_identifierNtB2_19AlgorithmIdentifier3new
FNDA:4,_RNvMNtCs7f8recisRHY_16c509_certificate20algorithm_identifierNtB2_19AlgorithmIdentifier3oid
FNDA:4,_RNvMNtCs7f8recisRHY_16c509_certificate20algorithm_identifierNtB2_19AlgorithmIdentifier5param
FNDA:4,_RINvXs_NtCs7f8recisRHY_16c509_certificate20algorithm_identifierNtB5_19AlgorithmIdentifierINtNtCs906yGzbw5oA_8minicbor6encode6EncodeuE6encodeQINtNtCs8Ty2CzGA6U3_5alloc3vec3VechEEB7_
FNDA:4,_RNvXs0_NtCs7f8recisRHY_16c509_certificate20algorithm_identifierNtB5_19AlgorithmIdentifierINtNtCs906yGzbw5oA_8minicbor6decode6DecodeuE6decode
FNDA:28,_RNvMNtCs7f8recisRHY_16c509_certificate20algorithm_identifierNtB2_19AlgorithmIdentifier3new
FNF:5
FNH:5
DA:39,28
DA:40,28
DA:41,28
DA:42,28
DA:43,28
DA:44,28
DA:45,28
DA:46,28
DA:47,28
DA:51,4
DA:52,4
DA:53,4
DA:57,4
DA:58,4
DA:59,4
DA:63,4
DA:64,4
DA:65,4
DA:66,4
DA:67,4
DA:68,4
DA:70,2
DA:71,2
DA:72,2
DA:73,2
DA:77,2
DA:80,4
DA:81,4
DA:85,4
DA:86,4
DA:87,4
DA:88,4
DA:90,4
DA:91,2
DA:92,2
DA:93,0
DA:94,2
DA:95,2
DA:96,2
DA:97,2
DA:98,2
DA:99,2
DA:100,2
DA:101,2
DA:104,2
DA:105,2
DA:107,4
BRF:0
BRH:0
LF:47
LH:46
end_of_record
SF:/root/build/c509-certificate/src/attributes/attribute.rs
FN:61,_RNvMNtNtCs7f8recisRHY_16c509_certificate10attributes9attributeNtB2_9Attribute14registered_oid
FN:56,_RNvMNtNtCs7f8recisRHY_16c509_certificate10attributes9attributeNtB2_9Attribute5value
FN:74,_RNvMNtNtCs7f8recisRHY_16c509_certificate10attributes9attributeNtB2_9Attribute15set_multi_value
FN:120,_RINvXs1_NtNtCs7f8recisRHY_16c509_certificate10attributes9attributeNtB6_9AttributeINtNtCs906yGzbw5oA_8minicbor6encode6EncodeuE6encodeQINtNtCs8Ty2CzGA6U3_5alloc3vec3VechEEBa_
FN:208,_RINvXs3_NtNtCs7f8recisRHY_16c509_certificate10attributes9attributeNtB6_14AttributeValueINtNtCs906yGzbw5oA_8minicbor6encode6EncodeuE6encodeQINtNtCs8Ty2CzGA6U3_5alloc3vec3VechEEBa_
FN:46,_RNvMNtNtCs7f8recisRHY_16c509_certificate10attributes9attributeNtB2_9Attribute3new
FN:66,_RNvMNtNtCs7f8recisRHY_16c509_certificate10attributes9attributeNtB2_9Attribute9add_value
FN:281,_RNvNtNtNtCs7f8recisRHY_16c509_certificate10attributes9attribute14test_attributes_21empty_attribute_value
FN:259,_RNvNtNtNtCs7f8recisRHY_16c509_certificate10attributes9attribute14test_attributes_27encode_decode_attribute_int
FN:158,_RNvXs2_NtNtCs7f8recisRHY_16c509_certificate10attributes9attributeNtB5_9AttributeINtNtCs906yGzbw5oA_8minicbor6decode6DecodeuE6decode
FN:222,_RNvXs4_NtNtCs7f8recisRHY_16c509_certificate10attributes9attributeNtB5_14AttributeValueINtNtCs906yGzbw5oA_8minicbor6decode6DecodeuE6decode
FN:104,_RINvXs0_NtNtCs7f8recisRHY_16c509_certificate10attributes9attributeNtB6_9AttributeNtNtCs8fL3q8PO2IZ_10serde_core3ser9Serialize9serializepEBa_
FN:90,_RINvXs_NtNtCs7f8recisRHY_16c509_certificate10attributes9attributeNtB5_9AttributeNtNtCs8fL3q8PO2IZ_10serde_core2de11Deserialize11deserializepEB9_
FN:94,_RNCINvXs_NtNtCs7f8recisRHY_16c509_certificate10attributes9attributeNtB7_9AttributeNtNtCs8fL3q8PO2IZ_10serde_core2de11Deserialize11deserializepE0Bb_
FNDA:34,_RNvMNtNtCs7f8recisRHY_16c509_certificate10attributes9attributeNtB2_9Attribute14registered_oid
FNDA:15,_RNvMNtNtCs7f8recisRHY_16c509_certificate10attributes9attributeNtB2_9Attribute5value
FNDA:3,_RNvMNtNtCs7f8recisRHY_16c509_certificate10attributes9attributeNtB2_9Attribute15set_multi_value
FNDA:19,_RINvXs1_NtNtCs7f8recisRHY_16c509_certificate10attributes9attributeNtB6_9AttributeINtNtCs906yGzbw5oA_8minicbor6encode6EncodeuE6encodeQINtNtCs8Ty2CzGA6U3_5alloc3vec3VechEEBa_
FNDA:19,_RINvXs3_NtNtCs7f8recisRHY_16c509_certificate10attributes9attributeNtB6_14AttributeValueINtNtCs906yGzbw5oA_8minicbor6encode6EncodeuE6encodeQINtNtCs8Ty2CzGA6U3_5alloc3vec3VechEEBa_
FNDA:59,_RNvMNtNtCs7f8recisRHY_16c509_certificate10attributes9attributeNtB2_9Attribute3new
FNDA:60,_RNvMNtNtCs7f8recisRHY_16c509_certificate10attributes9attributeNtB2_9Attribute9add_value
FNDA:1,_RNvNtNtNtCs7f8recisRHY_16c509_certificate10attributes9attribute14test_attributes_21empty_attribute_value
FNDA:1,_RNvNtNtNtCs7f8recisRHY_16c509_certificate10attributes9attribute14test_attributes_27encode_decode_attribute_int
FNDA:18,_RNvXs2_NtNtCs7f8recisRHY_16c509_certificate10attributes9attributeNtB5_9AttributeINtNtCs906yGzbw5oA_8minicbor6decode6DecodeuE6decode
FNDA:19,_RNvXs4_NtNtCs7f8recisRHY_16c509_certificate10attributes9attributeNtB5_14AttributeValueINtNtCs906yGzbw5oA_8minicbor6decode6DecodeuE6decode
FNDA:0,_RINvXs0_NtNtCs7f8recisRHY_16c509_certificate10attributes9attributeNtB6_9AttributeNtNtCs8fL3q8PO2IZ_10serde_core3ser9Serialize9serializepEBa_
FNDA:0,_RINvXs_NtNtCs7f8recisRHY_16c509_certificate10attributes9attributeNtB5_9AttributeNtNtCs8fL3q8PO2IZ_10serde_core2de11Deserialize11deserializepEB9_
FNDA:0,_RNCINvXs_NtNtCs7f8recisRHY_16c509_certificate10attributes9attributeNtB7_9AttributeNtNtCs8fL3q8PO2IZ_10serde_core2de11Deserialize11deserializepE0Bb_
FNF:14
FNH:11
DA:46,59
DA:47,59
DA:48,59
DA:49,59
DA:50,59
DA:51,59
DA:52,59
DA:56,15
DA:57,15
DA:58,15
DA:61,34
DA:62,34
DA:63,34
DA:66,60
DA:67,60
DA:68,60
DA:69,60
DA:70,60
DA:71,60
DA:74,3
DA:75,3
DA:76,3
DA:77,3
DA:90,0
DA:91,0
DA:92,0
DA:93,0
DA:94,0
DA:95,0
DA:96,0
DA:97,0
DA:98,0
DA:99,0
DA:100,0
DA:104,0
DA:105,0
DA:106,0
DA:107,0
DA:108,0
DA:109,0
DA:111,0
DA:112,0
DA:113,0
DA:114,0
DA:115,0
DA:116,0
DA:120,19
DA:121,19
DA:122,19
DA:123,19
DA:124,19
DA:126,19
DA:127,19
DA:128,19
DA:129,19
DA:130,19
DA:132,19
DA:135,0
DA:139,19
DA:140,1
DA:141,18
DA:144,18
DA:145,1
DA:146,17
DA:149,37
DA:150,19
DA:153,18
DA:154,19
DA:158,18
DA:159,18
DA:160,18
DA:161,18
DA:163,18
DA:164,18
DA:165,18
DA:166,18
DA:169,0
DA:170,0
DA:174,18
DA:176,1
DA:178,1
DA:179,0
DA:180,1
DA:182,1
DA:183,2
DA:185,1
DA:187,17
DA:188,17
DA:190,18
DA:191,18
DA:208,19
DA:209,19
DA:210,19
DA:211,19
DA:212,19
DA:213,19
DA:214,19
DA:215,0
DA:217,19
DA:218,19
DA:222,19
DA:223,19
DA:224,19
DA:225,19
DA:226,19
DA:228,19
DA:229,19
DA:230,19
DA:231,19
DA:232,0
DA:235,0
DA:236,0
DA:237,0
DA:238,0
DA:239,0
DA:242,0
DA:243,0
DA:244,0
DA:247,19
DA:259,1
DA:260,1
DA:261,1
DA:262,1
DA:263,1
DA:264,1
DA:265,1
DA:266,1
DA:269,1
DA:270,1
DA:274,1
DA:275,1
DA:276,1
DA:277,1
DA:278,1
DA:281,1
DA:282,1
DA:283,1
DA:284,1
DA:285,1
DA:286,1
DA:287,1
DA:288,1
BRF:0
BRH:0
LF:143
LH:105
end_of_record
SF:/root/build/c509-certificate/src/attributes/data.rs
FN:66,_RNCNvNtNtCs7f8recisRHY_16c509_certificate10attributes4data17ATTRIBUTES_TABLES0B7_
FN:60,_RNvMNtNtCs7f8recisRHY_16c509_certificate10attributes4dataNtB2_13AttributeData20get_int_to_oid_table
FN:80,_RNvNtNtCs7f8recisRHY_16c509_certificate10attributes4data16get_oid_from_int
FNDA:14,_RNCNvNtNtCs7f8recisRHY_16c509_certificate10attributes4data17ATTRIBUTES_TABLES0B7_
FNDA:77,_RNvMNtNtCs7f8recisRHY_16c509_certificate10attributes4dataNtB2_13AttributeData20get_int_to_oid_table
FNDA:18,_RNvNtNtCs7f8recisRHY_16c509_certificate10attributes4data16get_oid_from_int
FNF:3
FNH:3
DA:60,77
DA:61,77
DA:62,77
DA:66,14
DA:67,14
DA:69,434
DA:70,420
DA:71,420
DA:73,14
DA:74,14
DA:80,18
DA:81,18
DA:82,18
DA:83,18
DA:84,18
DA:85,18
DA:86,18
DA:88,18
DA:89,18
BRF:0
BRH:0
LF:19
LH:19
end_of_record
SF:/root/build/c509-certificate/src/attributes/mod.rs
FN:59,_RINvXs0_NtCs7f8recisRHY_16c509_certificate10attributesNtB6_10AttributesINtNtCs906yGzbw5oA_8minicbor6encode6EncodeuE6encodeQINtNtCs8Ty2CzGA6U3_5alloc3vec3VechEEB8_
FN:72,_RNCINvXs0_NtCs7f8recisRHY_16c509_certificate10attributesNtB8_10AttributesINtNtCs906yGzbw5oA_8minicbor6encode6EncodeuE6encodeQINtNtCs8Ty2CzGA6U3_5alloc3vec3VechEE0Ba_
FN:44,_RNvMNtCs7f8recisRHY_16c509_certificate10attributesNtB2_10Attributes13add_attribute
FN:32,_RNvMNtCs7f8recisRHY_16c509_certificate10attributesNtB2_10Attributes3new
FN:140,_RNvNtNtCs7f8recisRHY_16c509_certificate10attributes15test_attributess_16empty_attributes
FN:113,_RNvNtNtCs7f8recisRHY_16c509_certificate10attributes15test_attributess_28encode_decode_attributes_int
FN:82,_RNvXs1_NtCs7f8recisRHY_16c509_certificate10attributesNtB5_10AttributesINtNtCs906yGzbw5oA_8minicbor6decode6DecodeuE6decode
FN:38,_RNvMNtCs7f8recisRHY_16c509_certificate10attributesNtB2_10Attributes10attributes
FN:53,_RNvXs_NtCs7f8recisRHY_16c509_certificate10attributesNtB4_10AttributesNtNtCs66KPHxksi63_4core7default7Default7default
FNDA:2,_RINvXs0_NtCs7f8recisRHY_16c509_certificate10attributesNtB6_10AttributesINtNtCs906yGzbw5oA_8minicbor6encode6EncodeuE6encodeQINtNtCs8Ty2CzGA6U3_5alloc3vec3VechEEB8_
FNDA:0,_RNCINvXs0_NtCs7f8recisRHY_16c509_certificate10attributesNtB8_10AttributesINtNtCs906yGzbw5oA_8minicbor6encode6EncodeuE6encodeQINtNtCs8Ty2CzGA6U3_5alloc3vec3VechEE0Ba_
FNDA:2,_RNvMNtCs7f8recisRHY_16c509_certificate10attributesNtB2_10Attributes13add_attribute
FNDA:3,_RNvMNtCs7f8recisRHY_16c509_certificate10attributesNtB2_10Attributes3new
FNDA:1,_RNvNtNtCs7f8recisRHY_16c509_certificate10attributes15test_attributess_16empty_attributes
FNDA:1,_RNvNtNtCs7f8recisRHY_16c509_certificate10attributes15test_attributess_28encode_decode_attributes_int
FNDA:1,_RNvXs1_NtCs7f8recisRHY_16c509_certificate10attributesNtB5_10AttributesINtNtCs906yGzbw5oA_8minicbor6decode6DecodeuE6decode
FNDA:0,_RNvMNtCs7f8recisRHY_16c509_certificate10attributesNtB2_10Attributes10attributes
FNDA:0,_RNvXs_NtCs7f8recisRHY_16c509_certificate10attributesNtB4_10AttributesNtNtCs66KPHxksi63_4core7default7Default7default
FNF:9
FNH:6
DA:32,3
DA:33,3
DA:34,3
DA:38,0
DA:39,0
DA:40,0
DA:44,2
DA:45,2
DA:46,2
DA:47,2
DA:48,2
DA:49,2
DA:53,0
DA:54,0
DA:55,0
DA:59,2
DA:60,2
DA:61,2
DA:62,2
DA:63,2
DA:64,2
DA:65,1
DA:66,1
DA:67,1
DA:68,1
DA:70,1
DA:71,1
DA:72,1
DA:73,1
DA:74,2
DA:75,1
DA:77,1
DA:78,2
DA:82,1
DA:83,1
DA:84,1
DA:85,1
DA:86,1
DA:87,1
DA:88,0
DA:89,1
DA:91,1
DA:94,1
DA:95,1
DA:96,1
DA:99,1
DA:100,1
DA:113,1
DA:114,1
DA:115,1
DA:116,1
DA:117,1
DA:118,1
DA:119,1
DA:120,1
DA:121,1
DA:122,1
DA:123,1
DA:128,1
DA:129,1
DA:133,1
DA:134,1
DA:135,1
DA:136,1
DA:137,1
DA:140,1
DA:141,1
DA:142,1
DA:143,1
DA:144,1
DA:145,1
DA:146,1
DA:147,1
BRF:0
BRH:0
LF:74
LH:66
end_of_record
SF:/root/build/c509-certificate/src/big_uint.rs
FN:20,_RNvMNtCs7f8recisRHY_16c509_certificate8big_uintNtB2_16UnwrappedBigUint3new
FN:77,_RNvNtNtCs7f8recisRHY_16c509_certificate8big_uint13test_big_uints_18test_encode_decode
FN:98,_RNvNtNtCs7f8recisRHY_16c509_certificate8big_uint13test_big_uints_20test_encode_decode_2
FN:38,_RINvXs1_NtCs7f8recisRHY_16c509_certificate8big_uintNtB6_16UnwrappedBigUintINtNtCs906yGzbw5oA_8minicbor6encode6EncodeuE6encodeQINtNtCs8Ty2CzGA6U3_5alloc3vec3VechEEB8_
FN:64,_RNCNvXs2_NtCs7f8recisRHY_16c509_certificate8big_uintNtB7_16UnwrappedBigUintINtNtCs906yGzbw5oA_8minicbor6decode6DecodeuE6decode0B9_
FN:57,_RNvXs2_NtCs7f8recisRHY_16c509_certificate8big_uintNtB5_16UnwrappedBigUintINtNtCs906yGzbw5oA_8minicbor6decode6DecodeuE6decode
FN:47,_RNCINvXs1_NtCs7f8recisRHY_16c509_certificate8big_uintNtB8_16UnwrappedBigUintINtNtCs906yGzbw5oA_8minicbor6encode6EncodeuE6encodeQINtNtCs8Ty2CzGA6U3_5alloc3vec3VechEE0Ba_
FN:32,_RNvXs0_NtCs7f8recisRHY_16c509_certificate8big_uintyINtNtCs66KPHxksi63_4core7convert4FromNtB5_16UnwrappedBigUintE4from
FN:26,_RNvXs_NtCs7f8recisRHY_16c509_certificate8big_uintNtB4_16UnwrappedBigUintINtNtCs66KPHxksi63_4core7convert4FromyE4from
FNDA:10,_RNvMNtCs7f8recisRHY_16c509_certificate8big_uintNtB2_16UnwrappedBigUint3new
FNDA:1,_RNvNtNtCs7f8recisRHY_16c509_certificate8big_uint13test_big_uints_18test_encode_decode
FNDA:1,_RNvNtNtCs7f8recisRHY_16c509_certificate8big_uint13test_big_uints_20test_encode_decode_2
FNDA:7,_RINvXs1_NtCs7f8recisRHY_16c509_certificate8big_uintNtB6_16UnwrappedBigUintINtNtCs906yGzbw5oA_8minicbor6encode6EncodeuE6encodeQINtNtCs8Ty2CzGA6U3_5alloc3vec3VechEEB8_
FNDA:25,_RNCNvXs2_NtCs7f8recisRHY_16c509_certificate8big_uintNtB7_16UnwrappedBigUintINtNtCs906yGzbw5oA_8minicbor6decode6DecodeuE6decode0B9_
FNDA:5,_RNvXs2_NtCs7f8recisRHY_16c509_certificate8big_uintNtB5_16UnwrappedBigUintINtNtCs906yGzbw5oA_8minicbor6decode6DecodeuE6decode
FNDA:32,_RNCINvXs1_NtCs7f8recisRHY_16c509_certificate8big_uintNtB8_16UnwrappedBigUintINtNtCs906yGzbw5oA_8minicbor6encode6EncodeuE6encodeQINtNtCs8Ty2CzGA6U3_5alloc3vec3VechEE0Ba_
FNDA:0,_RNvXs0_NtCs7f8recisRHY_16c509_certificate8big_uintyINtNtCs66KPHxksi63_4core7convert4FromNtB5_16UnwrappedBigUintE4from
FNDA:0,_RNvXs_NtCs7f8recisRHY_16c509_certificate8big_uintNtB4_16UnwrappedBigUintINtNtCs66KPHxksi63_4core7convert4FromyE4from
FNF:9
FNH:7
DA:20,10
DA:21,10
DA:22,10
DA:26,0
DA:27,0
DA:28,0
DA:32,0
DA:33,0
DA:34,0
DA:38,7
DA:39,7
DA:40,7
DA:41,7
DA:42,7
DA:43,7
DA:45,7
DA:46,7
DA:47,32
DA:48,7
DA:49,7
DA:51,7
DA:52,7
DA:53,7
DA:57,5
DA:58,5
DA:59,5
DA:60,5
DA:62,5
DA:63,5
DA:64,25
DA:65,5
DA:66,5
DA:77,1
DA:78,1
DA:79,1
DA:81,1
DA:82,1
DA:83,1
DA:84,1
DA:86,1
DA:88,1
DA:89,1
DA:90,1
DA:92,1
DA:93,1
DA:98,1
DA:99,1
DA:100,1
DA:102,1
DA:103,1
DA:104,1
DA:105,1
DA:107,1
DA:109,1
DA:110,1
DA:111,1
DA:113,1
DA:114,1
BRF:0
BRH:0
LF:60
LH:54
end_of_record
SF:/root/build/c509-certificate/src/c509.rs
FN:50,_RINvXs_NtCs7f8recisRHY_16c509_certificate4c509NtB5_4C509INtNtCs906yGzbw5oA_8minicbor6encode6EncodeuE6encodeQINtNtCs8Ty2CzGA6U3_5alloc3vec3VechEEB7_
FN:65,_RNvXs0_NtCs7f8recisRHY_16c509_certificate4c509NtB5_4C509INtNtCs906yGzbw5oA_8minicbor6decode6DecodeuE6decode
FN:44,_RNvMNtCs7f8recisRHY_16c509_certificate4c509NtB2_4C50922issuer_signature_value
FN:38,_RNvMNtCs7f8recisRHY_16c509_certificate4c509NtB2_4C5098tbs_cert
FN:26,_RNvMNtCs7f8recisRHY_16c509_certificate4c509NtB2_4C5093new
FNDA:1,_RINvXs_NtCs7f8recisRHY_16c509_certificate4c509NtB5_4C509INtNtCs906yGzbw5oA_8minicbor6encode6EncodeuE6encodeQINtNtCs8Ty2CzGA6U3_5alloc3vec3VechEEB7_
FNDA:1,_RNvXs0_NtCs7f8recisRHY_16c509_certificate4c509NtB5_4C509INtNtCs906yGzbw5oA_8minicbor6decode6DecodeuE6decode
FNDA:1,_RNvMNtCs7f8recisRHY_16c509_certificate4c509NtB2_4C50922issuer_signature_value
FNDA:1,_RNvMNtCs7f8recisRHY_16c509_certificate4c509NtB2_4C5098tbs_cert
FNDA:2,_RNvMNtCs7f8recisRHY_16c509_certificate4c509NtB2_4C5093new
FNF:5
FNH:5
DA:26,2
DA:27,2
DA:28,2
DA:29,2
DA:30,2
DA:31,2
DA:32,2
DA:33,2
DA:34,2
DA:38,1
DA:39,1
DA:40,1
DA:44,1
DA:45,1
DA:46,1
DA:50,1
DA:51,1
DA:52,1
DA:53,1
DA:54,1
DA:55,1
DA:56,1
DA:57,1
DA:58,0
DA:60,1
DA:61,1
DA:65,1
DA:66,1
DA:67,1
DA:68,1
DA:69,1
DA:70,1
DA:71,1
DA:72,0
DA:74,1
DA:75,1
BRF:0
BRH:0
LF:36
LH:34
end_of_record
SF:/root/build/c509-certificate/src/cert_tbs.rs
FN:241,_RNvNtNtCs7f8recisRHY_16c509_certificate8cert_tbs13test_tbs_cert5tbs_1
FN:341,_RNvNtNtCs7f8recisRHY_16c509_certificate8cert_tbs13test_tbs_cert5tbs_2
FN:321,_RNvNtNtCs7f8recisRHY_16c509_certificate8cert_tbs13test_tbs_certs_24encode_decode_tbs_cert_1
FN:532,_RNvNtNtCs7f8recisRHY_16c509_certificate8cert_tbs13test_tbs_certs_24encode_decode_tbs_cert_2
FN:146,_RINvMNtCs7f8recisRHY_16c509_certificate8cert_tbsNtB3_7TbsCert7to_cborpEB5_
FN:132,_RNvMNtCs7f8recisRHY_16c509_certificate8cert_tbsNtB2_7TbsCert10extensions
FN:126,_RNvMNtCs7f8recisRHY_16c509_certificate8cert_tbsNtB2_7TbsCert18subject_public_key
FN:108,_RNvMNtCs7f8recisRHY_16c509_certificate8cert_tbsNtB2_7TbsCert18validity_not_after
FN:102,_RNvMNtCs7f8recisRHY_16c509_certificate8cert_tbsNtB2_7TbsCert19validity_not_before
FN:78,_RNvMNtCs7f8recisRHY_16c509_certificate8cert_tbsNtB2_7TbsCert21c509_certificate_type
FN:84,_RNvMNtCs7f8recisRHY_16c509_certificate8cert_tbsNtB2_7TbsCert25certificate_serial_number
FN:138,_RNvMNtCs7f8recisRHY_16c509_certificate8cert_tbsNtB2_7TbsCert26issuer_signature_algorithm
FN:120,_RNvMNtCs7f8recisRHY_16c509_certificate8cert_tbsNtB2_7TbsCert28subject_public_key_algorithm
FN:90,_RNvMNtCs7f8recisRHY_16c509_certificate8cert_tbsNtB2_7TbsCert30get_issuer_signature_algorithm
FN:96,_RNvMNtCs7f8recisRHY_16c509_certificate8cert_tbsNtB2_7TbsCert6issuer
FN:114,_RNvMNtCs7f8recisRHY_16c509_certificate8cert_tbsNtB2_7TbsCert7subject
FN:156,_RINvXs_NtCs7f8recisRHY_16c509_certificate8cert_tbsNtB5_7TbsCertINtNtCs906yGzbw5oA_8minicbor6encode6EncodeuE6encodeQINtNtCs8Ty2CzGA6U3_5alloc3vec3VechEEB7_
FN:66,_RNCNvMNtCs7f8recisRHY_16c509_certificate8cert_tbsNtB4_7TbsCert3new0B6_
FN:50,_RNvMNtCs7f8recisRHY_16c509_certificate8cert_tbsNtB2_7TbsCert3new
FN:176,_RNvXs0_NtCs7f8recisRHY_16c509_certificate8cert_tbsNtB5_7TbsCertINtNtCs906yGzbw5oA_8minicbor6decode6DecodeuE6decode
FNDA:2,_RNvNtNtCs7f8recisRHY_16c509_certificate8cert_tbs13test_tbs_cert5tbs_1
FNDA:1,_RNvNtNtCs7f8recisRHY_16c509_certificate8cert_tbs13test_tbs_cert5tbs_2
FNDA:1,_RNvNtNtCs7f8recisRHY_16c509_certificate8cert_tbs13test_tbs_certs_24encode_decode_tbs_cert_1
FNDA:1,_RNvNtNtCs7f8recisRHY_16c509_certificate8cert_tbs13test_tbs_certs_24encode_decode_tbs_cert_2
FNDA:0,_RINvMNtCs7f8recisRHY_16c509_certificate8cert_tbsNtB3_7TbsCert7to_cborpEB5_
FNDA:0,_RNvMNtCs7f8recisRHY_16c509_certificate8cert_tbsNtB2_7TbsCert10extensions
FNDA:0,_RNvMNtCs7f8recisRHY_16c509_certificate8cert_tbsNtB2_7TbsCert18subject_public_key
FNDA:0,_RNvMNtCs7f8recisRHY_16c509_certificate8cert_tbsNtB2_7TbsCert18validity_not_after
FNDA:0,_RNvMNtCs7f8recisRHY_16c509_certificate8cert_tbsNtB2_7TbsCert19validity_not_before
FNDA:0,_RNvMNtCs7f8recisRHY_16c509_certificate8cert_tbsNtB2_7TbsCert21c509_certificate_type
FNDA:0,_RNvMNtCs7f8recisRHY_16c509_certificate8cert_tbsNtB2_7TbsCert25certificate_serial_number
FNDA:0,_RNvMNtCs7f8recisRHY_16c509_certificate8cert_tbsNtB2_7TbsCert26issuer_signature_algorithm
FNDA:0,_RNvMNtCs7f8recisRHY_16c509_certificate8cert_tbsNtB2_7TbsCert28subject_public_key_algorithm
FNDA:0,_RNvMNtCs7f8recisRHY_16c509_certificate8cert_tbsNtB2_7TbsCert30get_issuer_signature_algorithm
FNDA:0,_RNvMNtCs7f8recisRHY_16c509_certificate8cert_tbsNtB2_7TbsCert6issuer
FNDA:0,_RNvMNtCs7f8recisRHY_16c509_certificate8cert_tbsNtB2_7TbsCert7subject
FNDA:5,_RINvXs_NtCs7f8recisRHY_16c509_certificate8cert_tbsNtB5_7TbsCertINtNtCs906yGzbw5oA_8minicbor6encode6EncodeuE6encodeQINtNtCs8Ty2CzGA6U3_5alloc3vec3VechEEB7_
FNDA:0,_RNCNvMNtCs7f8recisRHY_16c509_certificate8cert_tbsNtB4_7TbsCert3new0B6_
FNDA:6,_RNvMNtCs7f8recisRHY_16c509_certificate8cert_tbsNtB2_7TbsCert3new
FNDA:3,_RNvXs0_NtCs7f8recisRHY_16c509_certificate8cert_tbsNtB5_7TbsCertINtNtCs906yGzbw5oA_8minicbor6decode6DecodeuE6decode
FNF:20
FNH:7
DA:50,6
DA:51,6
DA:52,6
DA:53,6
DA:54,6
DA:55,6
DA:56,6
DA:57,6
DA:58,6
DA:59,6
DA:60,6
DA:61,6
DA:63,6
DA:64,6
DA:65,6
DA:66,6
DA:67,6
DA:68,6
DA:69,6
DA:70,6
DA:71,6
DA:72,6
DA:74,6
DA:78,0
DA:79,0
DA:80,0
DA:84,0
DA:85,0
DA:86,0
DA:90,0
DA:91,0
DA:92,0
DA:96,0
DA:97,0
DA:98,0
DA:102,0
DA:103,0
DA:104,0
DA:108,0
DA:109,0
DA:110,0
DA:114,0
DA:115,0
DA:116,0
DA:120,0
DA:121,0
DA:122,0
DA:126,0
DA:127,0
DA:128,0
DA:132,0
DA:133,0
DA:134,0
DA:138,0
DA:139,0
DA:140,0
DA:146,0
DA:147,0
DA:148,0
DA:149,0
DA:150,0
DA:151,0
DA:152,0
DA:156,5
DA:157,5
DA:158,5
DA:159,5
DA:160,5
DA:161,5
DA:162,5
DA:163,5
DA:164,5
DA:165,5
DA:166,5
DA:167,5
DA:168,5
DA:169,5
DA:170,5
DA:171,5
DA:172,5
DA:176,3
DA:177,3
DA:178,3
DA:179,3
DA:180,3
DA:181,3
DA:182,3
DA:183,3
DA:184,3
DA:185,3
DA:186,3
DA:187,3
DA:188,3
DA:189,3
DA:191,3
DA:192,3
DA:193,3
DA:194,3
DA:195,3
DA:196,3
DA:197,3
DA:198,3
DA:199,3
DA:200,3
DA:201,3
DA:202,3
DA:203,3
DA:241,2
DA:242,2
DA:243,2
DA:244,2
DA:245,2
DA:246,2
DA:247,2
DA:248,2
DA:249,2
DA:250,2
DA:251,2
DA:252,2
DA:253,2
DA:254,2
DA:255,2
DA:256,2
DA:257,2
DA:258,2
DA:259,2
DA:260,2
DA:261,2
DA:262,2
DA:263,2
DA:264,2
DA:265,2
DA:266,2
DA:267,2
DA:268,2
DA:269,2
DA:271,2
DA:272,2
DA:273,2
DA:274,2
DA:275,2
DA:276,2
DA:277,2
DA:278,2
DA:279,2
DA:280,2
DA:281,2
DA:282,2
DA:285,2
DA:286,2
DA:287,2
DA:290,2
DA:291,2
DA:292,2
DA:295,2
DA:296,2
DA:297,2
DA:298,2
DA:299,2
DA:302,2
DA:303,2
DA:304,2
DA:305,2
DA:306,2
DA:307,2
DA:308,2
DA:309,2
DA:310,2
DA:311,2
DA:312,2
DA:315,2
DA:317,2
DA:318,2
DA:321,1
DA:322,1
DA:324,1
DA:325,1
DA:326,1
DA:327,1
DA:328,1
DA:330,1
DA:332,1
DA:333,1
DA:334,1
DA:335,1
DA:336,1
DA:341,1
DA:342,1
DA:343,1
DA:344,1
DA:345,1
DA:346,1
DA:347,1
DA:348,1
DA:349,1
DA:350,1
DA:351,1
DA:352,1
DA:353,1
DA:354,1
DA:355,1
DA:356,1
DA:357,1
DA:358,1
DA:359,1
DA:360,1
DA:361,1
DA:362,1
DA:363,1
DA:364,1
DA:365,1
DA:366,1
DA:367,1
DA:368,1
DA:369,1
DA:370,1
DA:371,1
DA:372,1
DA:373,1
DA:374,1
DA:375,1
DA:376,1
DA:377,1
DA:378,1
DA:379,1
DA:380,1
DA:381,1
DA:382,1
DA:383,1
DA:384,1
DA:385,1
DA:386,1
DA:387,1
DA:388,1
DA:389,1
DA:390,1
DA:391,1
DA:392,1
DA:393,1
DA:394,1
DA:395,1
DA:396,1
DA:397,1
DA:398,1
DA:399,1
DA:400,1
DA:401,1
DA:402,1
DA:403,1
DA:404,1
DA:405,1
DA:406,1
DA:407,1
DA:408,1
DA:409,1
DA:410,1
DA:411,1
DA:412,1
DA:413,1
DA:414,1
DA:415,1
DA:416,1
DA:417,1
DA:418,1
DA:419,1
DA:420,1
DA:421,1
DA:422,1
DA:423,1
DA:424,1
DA:425,1
DA:426,1
DA:427,1
DA:428,1
DA:429,1
DA:430,1
DA:431,1
DA:432,1
DA:433,1
DA:434,1
DA:435,1
DA:436,1
DA:437,1
DA:438,1
DA:439,1
DA:440,1
DA:441,1
DA:443,1
DA:444,1
DA:445,1
DA:446,1
DA:447,1
DA:448,1
DA:449,1
DA:450,1
DA:451,1
DA:452,1
DA:453,1
DA:454,1
DA:457,1
DA:458,5
DA:459,5
DA:460,5
DA:461,5
DA:462,5
DA:463,5
DA:464,5
DA:465,1
DA:468,1
DA:469,6
DA:470,6
DA:471,6
DA:472,6
DA:473,6
DA:474,6
DA:475,6
DA:476,1
DA:479,1
DA:480,1
DA:481,1
DA:482,1
DA:483,1
DA:485,1
DA:486,1
DA:487,1
DA:488,1
DA:490,1
DA:491,1
DA:492,1
DA:493,1
DA:495,1
DA:496,1
DA:497,1
DA:498,1
DA:500,1
DA:501,1
DA:502,1
DA:505,1
DA:506,1
DA:507,1
DA:508,1
DA:509,1
DA:513,1
DA:514,1
DA:515,1
DA:516,1
DA:517,1
DA:518,1
DA:519,1
DA:520,1
DA:521,1
DA:522,1
DA:523,1
DA:526,1
DA:528,1
DA:529,1
DA:532,1
DA:533,1
DA:535,1
DA:536,1
DA:537,1
DA:538,1
DA:539,1
DA:540,1
DA:542,1
DA:543,1
DA:544,1
DA:545,1
DA:546,1
BRF:0
BRH:0
LF:370
LH:329
end_of_record
SF:/root/build/c509-certificate/src/extensions/alt_name.rs
FN:26,_RNvMNtNtCs7f8recisRHY_16c509_certificate10extensions8alt_nameNtB2_15AlternativeName3new
FN:38,_RINvXs_NtNtCs7f8recisRHY_16c509_certificate10extensions8alt_nameNtB5_15AlternativeNameINtNtCs906yGzbw5oA_8minicbor6encode6EncodeuE6encodeQINtNtCs8Ty2CzGA6U3_5alloc3vec3VechEEB9_
FN:141,_RNvNtNtNtCs7f8recisRHY_16c509_certificate10extensions8alt_name13test_alt_names_15encode_only_dns
FN:163,_RNvNtNtNtCs7f8recisRHY_16c509_certificate10extensions8alt_name13test_alt_names_18encode_decode_text
FN:71,_RINvXs1_NtNtCs7f8recisRHY_16c509_certificate10extensions8alt_nameNtB6_18GeneralNamesOrTextINtNtCs906yGzbw5oA_8minicbor6encode6EncodeuE6encodeQINtNtCs8Ty2CzGA6U3_5alloc3vec3VechEEBa_
FN:48,_RNvXs0_NtNtCs7f8recisRHY_16c509_certificate10extensions8alt_nameNtB5_15AlternativeNameINtNtCs906yGzbw5oA_8minicbor6decode6DecodeuE6decode
FN:98,_RNvXs2_NtNtCs7f8recisRHY_16c509_certificate10extensions8alt_nameNtB5_18GeneralNamesOrTextINtNtCs906yGzbw5oA_8minicbor6decode6DecodeuE6decode
FN:32,_RNvMNtNtCs7f8recisRHY_16c509_certificate10extensions8alt_nameNtB2_15AlternativeName12general_name
FNDA:7,_RNvMNtNtCs7f8recisRHY_16c509_certificate10extensions8alt_nameNtB2_15AlternativeName3new
FNDA:3,_RINvXs_NtNtCs7f8recisRHY_16c509_certificate10extensions8alt_nameNtB5_15AlternativeNameINtNtCs906yGzbw5oA_8minicbor6encode6EncodeuE6encodeQINtNtCs8Ty2CzGA6U3_5alloc3vec3VechEEB9_
FNDA:1,_RNvNtNtNtCs7f8recisRHY_16c509_certificate10extensions8alt_name13test_alt_names_15encode_only_dns
FNDA:1,_RNvNtNtNtCs7f8recisRHY_16c509_certificate10extensions8alt_name13test_alt_names_18encode_decode_text
FNDA:3,_RINvXs1_NtNtCs7f8recisRHY_16c509_certificate10extensions8alt_nameNtB6_18GeneralNamesOrTextINtNtCs906yGzbw5oA_8minicbor6encode6EncodeuE6encodeQINtNtCs8Ty2CzGA6U3_5alloc3vec3VechEEBa_
FNDA:3,_RNvXs0_NtNtCs7f8recisRHY_16c509_certificate10extensions8alt_nameNtB5_15AlternativeNameINtNtCs906yGzbw5oA_8minicbor6decode6DecodeuE6decode
FNDA:3,_RNvXs2_NtNtCs7f8recisRHY_16c509_certificate10extensions8alt_nameNtB5_18GeneralNamesOrTextINtNtCs906yGzbw5oA_8minicbor6decode6DecodeuE6decode
FNDA:0,_RNvMNtNtCs7f8recisRHY_16c509_certificate10extensions8alt_nameNtB2_15AlternativeName12general_name
FNF:8
FNH:7
DA:26,7
DA:27,7
DA:28,7
DA:32,0
DA:33,0
DA:34,0
DA:38,3
DA:39,3
DA:40,3
DA:41,3
DA:42,3
DA:43,3
DA:44,3
DA:48,3
DA:49,3
DA:50,3
DA:51,3
DA:52,3
DA:53,3
DA:71,3
DA:72,3
DA:73,3
DA:74,3
DA:75,3
DA:76,3
DA:77,2
DA:78,2
DA:79,2
DA:80,2
DA:81,2
DA:83,2
DA:84,1
DA:86,1
DA:89,1
DA:90,1
DA:93,3
DA:94,3
DA:98,3
DA:99,3
DA:100,3
DA:101,3
DA:102,3
DA:105,2
DA:106,2
DA:107,2
DA:108,2
DA:109,2
DA:110,2
DA:111,0
DA:113,2
DA:114,2
DA:115,2
DA:118,1
DA:119,1
DA:120,0
DA:123,0
DA:124,0
DA:125,0
DA:128,3
DA:141,1
DA:142,1
DA:143,1
DA:144,1
DA:145,1
DA:146,1
DA:147,1
DA:149,1
DA:150,1
DA:151,1
DA:152,1
DA:154,1
DA:156,1
DA:157,1
DA:158,1
DA:159,1
DA:160,1
DA:163,1
DA:164,1
DA:165,1
DA:167,1
DA:168,1
DA:169,1
DA:170,1
DA:172,1
DA:175,1
DA:176,1
DA:177,1
DA:178,1
DA:181,1
DA:182,1
DA:183,1
DA:184,1
DA:186,1
DA:188,1
BRF:0
BRH:0
LF:94
LH:86
end_of_record
SF:/root/build/c509-certificate/src/extensions/extension/data.rs
FN:98,_RNCNvNtNtNtCs7f8recisRHY_16c509_certificate10extensions9extension4data17EXTENSIONS_TABLES0B9_
FN:87,_RNvMs_NtNtNtCs7f8recisRHY_16c509_certificate10extensions9extension4dataNtB4_13ExtensionData20get_int_to_oid_table
FN:92,_RNvMs_NtNtNtCs7f8recisRHY_16c509_certificate10extensions9extension4dataNtB4_13ExtensionData21get_int_to_type_table
FN:117,_RNvNtNtNtCs7f8recisRHY_16c509_certificate10extensions9extension4data16get_oid_from_int
FN:129,_RNvNtNtNtCs7f8recisRHY_16c509_certificate10extensions9extension4data27get_extension_type_from_int
FN:69,_RNvMNtNtNtCs7f8recisRHY_16c509_certificate10extensions9extension4dataNtB2_17C509ExtensionType3oid
FNDA:10,_RNCNvNtNtNtCs7f8recisRHY_16c509_certificate10extensions9extension4data17EXTENSIONS_TABLES0B9_
FNDA:36,_RNvMs_NtNtNtCs7f8recisRHY_16c509_certificate10extensions9extension4dataNtB4_13ExtensionData20get_int_to_oid_table
FNDA:9,_RNvMs_NtNtNtCs7f8recisRHY_16c509_certificate10extensions9extension4dataNtB4_13ExtensionData21get_int_to_type_table
FNDA:9,_RNvNtNtNtCs7f8recisRHY_16c509_certificate10extensions9extension4data16get_oid_from_int
FNDA:9,_RNvNtNtNtCs7f8recisRHY_16c509_certificate10extensions9extension4data27get_extension_type_from_int
FNDA:0,_RNvMNtNtNtCs7f8recisRHY_16c509_certificate10extensions9extension4dataNtB2_17C509ExtensionType3oid
FNF:6
FNH:5
DA:69,0
DA:70,0
DA:72,0
DA:73,0
DA:87,36
DA:88,36
DA:89,36
DA:92,9
DA:93,9
DA:94,9
DA:98,10
DA:99,10
DA:100,10
DA:102,260
DA:103,250
DA:104,250
DA:105,250
DA:107,10
DA:108,10
DA:109,10
DA:110,10
DA:111,10
DA:117,9
DA:118,9
DA:119,9
DA:120,9
DA:121,9
DA:122,9
DA:123,9
DA:125,9
DA:126,9
DA:129,9
DA:130,9
DA:131,9
DA:132,9
DA:133,9
DA:134,9
DA:136,9
DA:137,9
BRF:0
BRH:0
LF:39
LH:35
end_of_record
SF:/root/build/c509-certificate/src/extensions/extension/mod.rs
FN:62,_RNvMNtNtCs7f8recisRHY_16c509_certificate10extensions9extensionNtB2_9Extension14registered_oid
FN:50,_RNvMNtNtCs7f8recisRHY_16c509_certificate10extensions9extensionNtB2_9Extension5value
FN:56,_RNvMNtNtCs7f8recisRHY_16c509_certificate10extensions9extensionNtB2_9Extension8critical
FN:356,_RNvNtNtNtCs7f8recisRHY_16c509_certificate10extensions9extension14test_extensions_27encode_decode_mismatch_type
FN:329,_RNvNtNtNtCs7f8recisRHY_16c509_certificate10extensions9extension14test_extensions_32oid_unwrapped_value_bytes_string
FN:311,_RNvNtNtNtCs7f8recisRHY_16c509_certificate10extensions9extension14test_extensions_42unwrapped_oid_critical_key_usage_value_int
FN:293,_RNvNtNtNtCs7f8recisRHY_16c509_certificate10extensions9extension14test_extensions_44int_oid_inhibit_anypolicy_value_unsigned_int
FN:110,_RINvXs1_NtNtCs7f8recisRHY_16c509_certificate10extensions9extensionNtB6_9ExtensionINtNtCs906yGzbw5oA_8minicbor6encode6EncodeuE6encodeQINtNtCs8Ty2CzGA6U3_5alloc3vec3VechEEBa_
FN:230,_RINvXs4_NtNtCs7f8recisRHY_16c509_certificate10extensions9extensionNtB6_14ExtensionValueINtNtCs906yGzbw5oA_8minicbor6encode6EncodeuE6encodeQINtNtCs8Ty2CzGA6U3_5alloc3vec3VechEEBa_
FN:124,_RNCINvXs1_NtNtCs7f8recisRHY_16c509_certificate10extensions9extensionNtB8_9ExtensionINtNtCs906yGzbw5oA_8minicbor6encode6EncodeuE6encodeQINtNtCs8Ty2CzGA6U3_5alloc3vec3VechEE0Bc_
FN:36,_RNvMNtNtCs7f8recisRHY_16c509_certificate10extensions9extensionNtB2_9Extension3new
FN:147,_RNvXs2_NtNtCs7f8recisRHY_16c509_certificate10extensions9extensionNtB5_9ExtensionINtNtCs906yGzbw5oA_8minicbor6decode6DecodeuE6decode
FN:224,_RNvXs3_NtNtCs7f8recisRHY_16c509_certificate10extensions9extensionNtB5_18ExtensionValueTypeNtB5_23ExtensionValueTypeTrait8get_type
FN:258,_RNvXs5_NtNtCs7f8recisRHY_16c509_certificate10extensions9extensionNtB5_14ExtensionValueINtNtCs906yGzbw5oA_8minicbor6decode6DecodeNtB5_18ExtensionValueTypeE6decodeB9_
FN:90,_RINvXs0_NtNtCs7f8recisRHY_16c509_certificate10extensions9extensionNtB6_9ExtensionNtNtCs8fL3q8PO2IZ_10serde_core3ser9Serialize9serializepEBa_
FN:79,_RINvXs_NtNtCs7f8recisRHY_16c509_certificate10extensions9extensionNtB5_9ExtensionNtNtCs8fL3q8PO2IZ_10serde_core2de11Deserialize11deserializepEB9_
FN:83,_RNCINvXs_NtNtCs7f8recisRHY_16c509_certificate10extensions9extensionNtB7_9ExtensionNtNtCs8fL3q8PO2IZ_10serde_core2de11Deserialize11deserializepE0Bb_
FNDA:6,_RNvMNtNtCs7f8recisRHY_16c509_certificate10extensions9extensionNtB2_9Extension14registered_oid
FNDA:6,_RNvMNtNtCs7f8recisRHY_16c509_certificate10extensions9extensionNtB2_9Extension5value
FNDA:6,_RNvMNtNtCs7f8recisRHY_16c509_certificate10extensions9extensionNtB2_9Extension8critical
FNDA:1,_RNvNtNtNtCs7f8recisRHY_16c509_certificate10extensions9extension14test_extensions_27encode_decode_mismatch_type
FNDA:1,_RNvNtNtNtCs7f8recisRHY_16c509_certificate10extensions9extension14test_extensions_32oid_unwrapped_value_bytes_string
FNDA:1,_RNvNtNtNtCs7f8recisRHY_16c509_certificate10extensions9extension14test_extensions_42unwrapped_oid_critical_key_usage_value_int
FNDA:1,_RNvNtNtNtCs7f8recisRHY_16c509_certificate10extensions9extension14test_extensions_44int_oid_inhibit_anypolicy_value_unsigned_int
FNDA:10,_RINvXs1_NtNtCs7f8recisRHY_16c509_certificate10extensions9extensionNtB6_9ExtensionINtNtCs906yGzbw5oA_8minicbor6encode6EncodeuE6encodeQINtNtCs8Ty2CzGA6U3_5alloc3vec3VechEEBa_
FNDA:10,_RINvXs4_NtNtCs7f8recisRHY_16c509_certificate10extensions9extensionNtB6_14ExtensionValueINtNtCs906yGzbw5oA_8minicbor6encode6EncodeuE6encodeQINtNtCs8Ty2CzGA6U3_5alloc3vec3VechEEBa_
FNDA:0,_RNCINvXs1_NtNtCs7f8recisRHY_16c509_certificate10extensions9extensionNtB8_9ExtensionINtNtCs906yGzbw5oA_8minicbor6encode6EncodeuE6encodeQINtNtCs8Ty2CzGA6U3_5alloc3vec3VechEE0Bc_
FNDA:27,_RNvMNtNtCs7f8recisRHY_16c509_certificate10extensions9extensionNtB2_9Extension3new
FNDA:10,_RNvXs2_NtNtCs7f8recisRHY_16c509_certificate10extensions9extensionNtB5_9ExtensionINtNtCs906yGzbw5oA_8minicbor6decode6DecodeuE6decode
FNDA:18,_RNvXs3_NtNtCs7f8recisRHY_16c509_certificate10extensions9extensionNtB5_18ExtensionValueTypeNtB5_23ExtensionValueTypeTrait8get_type
FNDA:9,_RNvXs5_NtNtCs7f8recisRHY_16c509_certificate10extensions9extensionNtB5_14ExtensionValueINtNtCs906yGzbw5oA_8minicbor6decode6DecodeNtB5_18ExtensionValueTypeE6decodeB9_
FNDA:0,_RINvXs0_NtNtCs7f8recisRHY_16c509_certificate10extensions9extensionNtB6_9ExtensionNtNtCs8fL3q8PO2IZ_10serde_core3ser9Serialize9serializepEBa_
FNDA:0,_RINvXs_NtNtCs7f8recisRHY_16c509_certificate10extensions9extensionNtB5_9ExtensionNtNtCs8fL3q8PO2IZ_10serde_core2de11Deserialize11deserializepEB9_
FNDA:0,_RNCINvXs_NtNtCs7f8recisRHY_16c509_certificate10extensions9extensionNtB7_9ExtensionNtNtCs8fL3q8PO2IZ_10serde_core2de11Deserialize11deserializepE0Bb_
FNF:17
FNH:13
DA:36,27
DA:37,27
DA:38,27
DA:39,27
DA:40,27
DA:41,27
DA:42,27
DA:43,27
DA:44,27
DA:45,27
DA:46,27
DA:50,6
DA:51,6
DA:52,6
DA:56,6
DA:57,6
DA:58,6
DA:62,6
DA:63,6
DA:64,6
DA:79,0
DA:80,0
DA:81,0
DA:82,0
DA:83,0
DA:85,0
DA:86,0
DA:90,0
DA:91,0
DA:92,0
DA:93,0
DA:94,0
DA:95,0
DA:97,0
DA:98,0
DA:99,0
DA:100,0
DA:101,0
DA:102,0
DA:103,0
DA:110,10
DA:111,10
DA:112,10
DA:113,10
DA:114,10
DA:116,10
DA:117,10
DA:118,10
DA:119,10
DA:120,10
DA:123,9
DA:124,2
DA:125,0
DA:126,0
DA:128,0
DA:130,7
DA:132,9
DA:135,1
DA:136,1
DA:137,0
DA:138,1
DA:141,10
DA:142,10
DA:143,10
DA:147,10
DA:148,10
DA:149,10
DA:150,10
DA:151,10
DA:159,9
DA:161,9
DA:162,9
DA:163,9
DA:164,9
DA:165,9
DA:168,9
DA:169,8
DA:170,8
DA:171,8
DA:172,8
DA:173,8
DA:177,1
DA:179,1
DA:180,1
DA:181,0
DA:183,1
DA:187,1
DA:189,1
DA:190,1
DA:191,1
DA:192,1
DA:193,1
DA:196,10
DA:224,18
DA:225,18
DA:226,18
DA:230,10
DA:231,10
DA:232,10
DA:233,10
DA:234,10
DA:235,10
DA:236,6
DA:237,6
DA:239,3
DA:240,3
DA:242,1
DA:243,1
DA:246,0
DA:247,0
DA:248,0
DA:251,10
DA:252,10
DA:258,9
DA:259,9
DA:260,9
DA:261,9
DA:262,9
DA:264,5
DA:265,5
DA:268,3
DA:269,2
DA:272,1
DA:273,1
DA:276,0
DA:277,0
DA:278,0
DA:281,9
DA:293,1
DA:294,1
DA:295,1
DA:297,1
DA:298,1
DA:299,1
DA:302,1
DA:304,1
DA:305,1
DA:306,1
DA:307,1
DA:308,1
DA:311,1
DA:312,1
DA:313,1
DA:315,1
DA:316,1
DA:317,1
DA:320,1
DA:322,1
DA:323,1
DA:324,1
DA:325,1
DA:326,1
DA:329,1
DA:330,1
DA:331,1
DA:335,1
DA:336,1
DA:337,1
DA:340,1
DA:341,1
DA:344,1
DA:345,1
DA:349,1
DA:350,1
DA:351,1
DA:352,1
DA:353,1
DA:356,1
DA:357,1
DA:358,1
DA:361,1
DA:362,1
DA:363,1
DA:366,1
DA:368,1
DA:370,1
DA:371,1
BRF:0
BRH:0
LF:180
LH:146
end_of_record
SF:/root/build/c509-certificate/src/extensions/mod.rs
FN:67,_RINvXs0_NtCs7f8recisRHY_16c509_certificate10extensionsNtB6_10ExtensionsINtNtCs906yGzbw5oA_8minicbor6encode6EncodeuE6encodeQINtNtCs8Ty2CzGA6U3_5alloc3vec3VechEEB8_
FN:81,_RNCINvXs0_NtCs7f8recisRHY_16c509_certificate10extensionsNtB8_10ExtensionsINtNtCs906yGzbw5oA_8minicbor6encode6EncodeuE6encodeQINtNtCs8Ty2CzGA6U3_5alloc3vec3VechEE0Ba_
FN:52,_RNvMNtCs7f8recisRHY_16c509_certificate10extensionsNtB2_10Extensions13add_extension
FN:106,_RNvXs1_NtCs7f8recisRHY_16c509_certificate10extensionsNtB5_10ExtensionsINtNtCs906yGzbw5oA_8minicbor6decode6DecodeuE6decode
FN:47,_RNvMNtCs7f8recisRHY_16c509_certificate10extensionsNtB2_10Extensions10extensions
FN:61,_RNvXs_NtCs7f8recisRHY_16c509_certificate10extensionsNtB4_10ExtensionsNtNtCs66KPHxksi63_4core7default7Default7default
FN:41,_RNvMNtCs7f8recisRHY_16c509_certificate10extensionsNtB2_10Extensions3new
FN:225,_RNvNtNtCs7f8recisRHY_16c509_certificate10extensions15test_extensionss_15zero_extensions
FN:194,_RNvNtNtCs7f8recisRHY_16c509_certificate10extensions15test_extensionss_19multiple_extensions
FN:148,_RNvNtNtCs7f8recisRHY_16c509_certificate10extensions15test_extensionss_23one_extension_key_usage
FN:171,_RNvNtNtCs7f8recisRHY_16c509_certificate10extensions15test_extensionss_36one_extension_key_usage_set_critical
FNDA:9,_RINvXs0_NtCs7f8recisRHY_16c509_certificate10extensionsNtB6_10ExtensionsINtNtCs906yGzbw5oA_8minicbor6encode6EncodeuE6encodeQINtNtCs8Ty2CzGA6U3_5alloc3vec3VechEEB8_
FNDA:0,_RNCINvXs0_NtCs7f8recisRHY_16c509_certificate10extensionsNtB8_10ExtensionsINtNtCs906yGzbw5oA_8minicbor6encode6EncodeuE6encodeQINtNtCs8Ty2CzGA6U3_5alloc3vec3VechEE0Ba_
FNDA:20,_RNvMNtCs7f8recisRHY_16c509_certificate10extensionsNtB2_10Extensions13add_extension
FNDA:7,_RNvXs1_NtCs7f8recisRHY_16c509_certificate10extensionsNtB5_10ExtensionsINtNtCs906yGzbw5oA_8minicbor6decode6DecodeuE6decode
FNDA:0,_RNvMNtCs7f8recisRHY_16c509_certificate10extensionsNtB2_10Extensions10extensions
FNDA:0,_RNvXs_NtCs7f8recisRHY_16c509_certificate10extensionsNtB4_10ExtensionsNtNtCs66KPHxksi63_4core7default7Default7default
FNDA:14,_RNvMNtCs7f8recisRHY_16c509_certificate10extensionsNtB2_10Extensions3new
FNDA:1,_RNvNtNtCs7f8recisRHY_16c509_certificate10extensions15test_extensionss_15zero_extensions
FNDA:1,_RNvNtNtCs7f8recisRHY_16c509_certificate10extensions15test_extensionss_19multiple_extensions
FNDA:1,_RNvNtNtCs7f8recisRHY_16c509_certificate10extensions15test_extensionss_23one_extension_key_usage
FNDA:1,_RNvNtNtCs7f8recisRHY_16c509_certificate10extensions15test_extensionss_36one_extension_key_usage_set_critical
FNF:11
FNH:8
DA:41,14
DA:42,14
DA:43,14
DA:47,0
DA:48,0
DA:49,0
DA:52,20
DA:53,20
DA:54,20
DA:55,20
DA:56,20
DA:57,20
DA:61,0
DA:62,0
DA:63,0
DA:67,9
DA:68,9
DA:69,9
DA:70,9
DA:71,9
DA:74,9
DA:75,8
DA:76,6
DA:77,6
DA:78,6
DA:79,1
DA:80,1
DA:81,1
DA:83,5
DA:85,6
DA:86,6
DA:89,0
DA:90,0
DA:91,0
DA:94,2
DA:95,1
DA:97,3
DA:98,9
DA:99,6
DA:101,3
DA:102,9
DA:106,7
DA:107,7
DA:108,7
DA:109,7
DA:111,7
DA:112,4
DA:115,4
DA:116,4
DA:119,4
DA:120,4
DA:121,4
DA:122,4
DA:123,4
DA:124,4
DA:125,4
DA:127,4
DA:128,3
DA:130,3
DA:131,3
DA:132,3
DA:133,6
DA:134,6
DA:137,3
DA:138,7
DA:148,1
DA:149,1
DA:150,1
DA:152,1
DA:153,1
DA:154,1
DA:155,1
DA:158,1
DA:159,1
DA:162,1
DA:164,1
DA:165,1
DA:166,1
DA:167,1
DA:168,1
DA:171,1
DA:172,1
DA:173,1
DA:175,1
DA:176,1
DA:177,1
DA:178,1
DA:181,1
DA:182,1
DA:185,1
DA:187,1
DA:188,1
DA:189,1
DA:190,1
DA:191,1
DA:194,1
DA:195,1
DA:196,1
DA:198,1
DA:199,1
DA:200,1
DA:201,1
DA:205,1
DA:206,1
DA:207,1
DA:210,1
DA:211,1
DA:216,1
DA:218,1
DA:219,1
DA:220,1
DA:221,1
DA:222,1
DA:225,1
DA:226,1
DA:227,1
DA:229,1
DA:230,1
DA:231,1
DA:232,1
DA:234,1
DA:236,1
DA:237,1
DA:238,1
DA:239,1
BRF:0
BRH:0
LF:126
LH:116
end_of_record
SF:/root/build/c509-certificate/src/general_names/data.rs
FN:87,_RNCNvNtNtCs7f8recisRHY_16c509_certificate13general_names4data19GENERAL_NAME_TABLES0B7_
FN:51,_RNvMNtNtCs7f8recisRHY_16c509_certificate13general_names4dataNtB2_15GeneralNameData21get_int_to_name_table
FN:56,_RNvMNtNtCs7f8recisRHY_16c509_certificate13general_names4dataNtB2_15GeneralNameData21get_int_to_type_table
FN:72,_RNvMs_NtNtCs7f8recisRHY_16c509_certificate13general_names4dataNtB4_16IntegerToGNTable3add
FN:67,_RNvMs_NtNtCs7f8recisRHY_16c509_certificate13general_names4dataNtB4_16IntegerToGNTable3new
FN:81,_RNvMs_NtNtCs7f8recisRHY_16c509_certificate13general_names4dataNtB4_16IntegerToGNTable7get_map
FN:103,_RNvNtNtCs7f8recisRHY_16c509_certificate13general_names4data15get_gn_from_int
FN:115,_RNvNtNtCs7f8recisRHY_16c509_certificate13general_names4data15get_int_from_gn
FN:127,_RNvNtNtCs7f8recisRHY_16c509_certificate13general_names4data26get_gn_value_type_from_int
FNDA:8,_RNCNvNtNtCs7f8recisRHY_16c509_certificate13general_names4data19GENERAL_NAME_TABLES0B7_
FNDA:26,_RNvMNtNtCs7f8recisRHY_16c509_certificate13general_names4dataNtB2_15GeneralNameData21get_int_to_name_table
FNDA:13,_RNvMNtNtCs7f8recisRHY_16c509_certificate13general_names4dataNtB2_15GeneralNameData21get_int_to_type_table
FNDA:80,_RNvMs_NtNtCs7f8recisRHY_16c509_certificate13general_names4dataNtB4_16IntegerToGNTable3add
FNDA:8,_RNvMs_NtNtCs7f8recisRHY_16c509_certificate13general_names4dataNtB4_16IntegerToGNTable3new
FNDA:26,_RNvMs_NtNtCs7f8recisRHY_16c509_certificate13general_names4dataNtB4_16IntegerToGNTable7get_map
FNDA:13,_RNvNtNtCs7f8recisRHY_16c509_certificate13general_names4data15get_gn_from_int
FNDA:13,_RNvNtNtCs7f8recisRHY_16c509_certificate13general_names4data15get_int_from_gn
FNDA:13,_RNvNtNtCs7f8recisRHY_16c509_certificate13general_names4data26get_gn_value_type_from_int
FNF:9
FNH:9
DA:51,26
DA:52,26
DA:53,26
DA:56,13
DA:57,13
DA:58,13
DA:67,8
DA:68,8
DA:69,8
DA:72,80
DA:73,80
DA:74,80
DA:75,80
DA:76,80
DA:77,80
DA:78,80
DA:81,26
DA:82,26
DA:83,26
DA:87,8
DA:88,8
DA:89,8
DA:91,88
DA:92,80
DA:93,80
DA:94,80
DA:96,8
DA:97,8
DA:98,8
DA:99,8
DA:100,8
DA:103,13
DA:104,13
DA:105,13
DA:106,13
DA:107,13
DA:108,13
DA:109,13
DA:111,13
DA:112,13
DA:115,13
DA:116,13
DA:117,13
DA:118,13
DA:119,13
DA:120,13
DA:121,13
DA:123,13
DA:124,13
DA:127,13
DA:128,13
DA:129,13
DA:130,13
DA:131,13
DA:132,13
DA:134,13
DA:135,13
BRF:0
BRH:0
LF:57
LH:57
end_of_record
SF:/root/build/c509-certificate/src/general_names/general_name.rs
FN:168,_RINvXs2_NtNtCs7f8recisRHY_16c509_certificate13general_names12general_nameNtB6_16GeneralNameValueINtNtCs906yGzbw5oA_8minicbor6encode6EncodeuE6encodeQINtNtCs8Ty2CzGA6U3_5alloc3vec3VechEEBa_
FN:66,_RINvXs_NtNtCs7f8recisRHY_16c509_certificate13general_names12general_nameNtB5_11GeneralNameINtNtCs906yGzbw5oA_8minicbor6encode6EncodeuE6encodeQINtNtCs8Ty2CzGA6U3_5alloc3vec3VechEEB9_
FN:45,_RNvMNtNtCs7f8recisRHY_16c509_certificate13general_names12general_nameNtB2_11GeneralName3new
FN:81,_RNvXs0_NtNtCs7f8recisRHY_16c509_certificate13general_names12general_nameNtB5_11GeneralNameINtNtCs906yGzbw5oA_8minicbor6decode6DecodeuE6decode
FN:162,_RNvXs1_NtNtCs7f8recisRHY_16c509_certificate13general_names12general_nameNtB5_20GeneralNameValueTypeNtB5_21GeneralNameValueTrait8get_type
FN:201,_RNvXs3_NtNtCs7f8recisRHY_16c509_certificate13general_names12general_nameNtB5_16GeneralNameValueINtNtCs906yGzbw5oA_8minicbor6decode6DecodeNtB5_20GeneralNameValueTypeE6decodeB9_
FN:294,_RNvNtNtNtCs7f8recisRHY_16c509_certificate13general_names12general_name17test_general_names_16encode_decode_ip
FN:317,_RNvNtNtNtCs7f8recisRHY_16c509_certificate13general_names12general_name17test_general_names_17encode_decode_oid
FN:246,_RNvNtNtNtCs7f8recisRHY_16c509_certificate13general_names12general_name17test_general_names_18encode_decode_text
FN:338,_RNvNtNtNtCs7f8recisRHY_16c509_certificate13general_names12general_name17test_general_names_27encode_decode_mismatch_type
FN:267,_RNvNtNtNtCs7f8recisRHY_16c509_certificate13general_names12general_name17test_general_names_28encode_decode_hw_module_name
FN:54,_RNvMNtNtCs7f8recisRHY_16c509_certificate13general_names12general_nameNtB2_11GeneralName7gn_type
FN:60,_RNvMNtNtCs7f8recisRHY_16c509_certificate13general_names12general_nameNtB2_11GeneralName8gn_value
FNDA:14,_RINvXs2_NtNtCs7f8recisRHY_16c509_certificate13general_names12general_nameNtB6_16GeneralNameValueINtNtCs906yGzbw5oA_8minicbor6encode6EncodeuE6encodeQINtNtCs8Ty2CzGA6U3_5alloc3vec3VechEEBa_
FNDA:13,_RINvXs_NtNtCs7f8recisRHY_16c509_certificate13general_names12general_nameNtB5_11GeneralNameINtNtCs906yGzbw5oA_8minicbor6encode6EncodeuE6encodeQINtNtCs8Ty2CzGA6U3_5alloc3vec3VechEEB9_
FNDA:29,_RNvMNtNtCs7f8recisRHY_16c509_certificate13general_names12general_nameNtB2_11GeneralName3new
FNDA:13,_RNvXs0_NtNtCs7f8recisRHY_16c509_certificate13general_names12general_nameNtB5_11GeneralNameINtNtCs906yGzbw5oA_8minicbor6decode6DecodeuE6decode
FNDA:26,_RNvXs1_NtNtCs7f8recisRHY_16c509_certificate13general_names12general_nameNtB5_20GeneralNameValueTypeNtB5_21GeneralNameValueTrait8get_type
FNDA:13,_RNvXs3_NtNtCs7f8recisRHY_16c509_certificate13general_names12general_nameNtB5_16GeneralNameValueINtNtCs906yGzbw5oA_8minicbor6decode6DecodeNtB5_20GeneralNameValueTypeE6decodeB9_
FNDA:1,_RNvNtNtNtCs7f8recisRHY_16c509_certificate13general_names12general_name17test_general_names_16encode_decode_ip
FNDA:1,_RNvNtNtNtCs7f8recisRHY_16c509_certificate13general_names12general_name17test_general_names_17encode_decode_oid
FNDA:1,_RNvNtNtNtCs7f8recisRHY_16c509_certificate13general_names12general_name17test_general_names_18encode_decode_text
FNDA:1,_RNvNtNtNtCs7f8recisRHY_16c509_certificate13general_names12general_name17test_general_names_27encode_decode_mismatch_type
FNDA:1,_RNvNtNtNtCs7f8recisRHY_16c509_certificate13general_names12general_name17test_general_names_28encode_decode_hw_module_name
FNDA:2,_RNvMNtNtCs7f8recisRHY_16c509_certificate13general_names12general_nameNtB2_11GeneralName7gn_type
FNDA:1,_RNvMNtNtCs7f8recisRHY_16c509_certificate13general_names12general_nameNtB2_11GeneralName8gn_value
FNF:13
FNH:13
DA:45,29
DA:46,29
DA:47,29
DA:48,29
DA:49,29
DA:50,29
DA:54,2
DA:55,2
DA:56,2
DA:60,1
DA:61,1
DA:62,1
DA:66,13
DA:67,13
DA:68,13
DA:69,13
DA:70,13
DA:72,13
DA:73,13
DA:75,13
DA:76,13
DA:77,13
DA:81,13
DA:82,13
DA:83,13
DA:84,13
DA:85,13
DA:86,4
DA:88,13
DA:89,13
DA:90,13
DA:91,13
DA:92,12
DA:93,13
DA:94,13
DA:98,0
DA:99,0
DA:100,0
DA:102,13
DA:162,26
DA:163,26
DA:164,26
DA:168,14
DA:169,14
DA:170,14
DA:171,14
DA:172,14
DA:173,14
DA:174,6
DA:175,6
DA:177,2
DA:178,2
DA:180,3
DA:181,3
DA:183,3
DA:184,3
DA:186,0
DA:187,0
DA:190,0
DA:191,0
DA:192,0
DA:195,14
DA:196,14
DA:201,13
DA:202,13
DA:203,13
DA:204,13
DA:205,13
DA:207,6
DA:208,5
DA:211,2
DA:212,2
DA:215,2
DA:216,2
DA:219,3
DA:220,3
DA:223,0
DA:224,0
DA:227,0
DA:228,0
DA:229,0
DA:232,13
DA:246,1
DA:247,1
DA:248,1
DA:250,1
DA:251,1
DA:252,1
DA:254,1
DA:255,1
DA:258,1
DA:260,1
DA:261,1
DA:262,1
DA:263,1
DA:264,1
DA:267,1
DA:268,1
DA:269,1
DA:271,1
DA:274,1
DA:275,1
DA:276,1
DA:278,1
DA:279,1
DA:282,1
DA:283,1
DA:287,1
DA:288,1
DA:289,1
DA:290,1
DA:291,1
DA:294,1
DA:295,1
DA:296,1
DA:298,1
DA:299,1
DA:300,1
DA:301,1
DA:304,1
DA:305,1
DA:308,1
DA:310,1
DA:311,1
DA:312,1
DA:313,1
DA:314,1
DA:317,1
DA:318,1
DA:319,1
DA:321,1
DA:322,1
DA:323,1
DA:325,1
DA:326,1
DA:329,1
DA:331,1
DA:332,1
DA:333,1
DA:334,1
DA:335,1
DA:338,1
DA:339,1
DA:340,1
DA:342,1
DA:343,1
DA:344,1
DA:346,1
DA:347,1
DA:350,1
DA:352,1
DA:354,1
DA:355,1
BRF:0
BRH:0
LF:153
LH:140
end_of_record
SF:/root/build/c509-certificate/src/general_names/mod.rs
FN:30,_RNvMNtCs7f8recisRHY_16c509_certificate13general_namesNtB2_12GeneralNames3new
FN:56,_RINvXs0_NtCs7f8recisRHY_16c509_certificate13general_namesNtB6_12GeneralNamesINtNtCs906yGzbw5oA_8minicbor6encode6EncodeuE6encodeQINtNtCs8Ty2CzGA6U3_5alloc3vec3VechEEB8_
FN:69,_RNCINvXs0_NtCs7f8recisRHY_16c509_certificate13general_namesNtB8_12GeneralNamesINtNtCs906yGzbw5oA_8minicbor6encode6EncodeuE6encodeQINtNtCs8Ty2CzGA6U3_5alloc3vec3VechEE0Ba_
FN:41,_RNvMNtCs7f8recisRHY_16c509_certificate13general_namesNtB2_12GeneralNames16add_general_name
FN:107,_RNvNtNtCs7f8recisRHY_16c509_certificate13general_names18test_general_namess_17encode_decode_gns
FN:186,_RNvNtNtCs7f8recisRHY_16c509_certificate13general_names18test_general_namess_23encode_decode_gns_empty
FN:153,_RNvNtNtCs7f8recisRHY_16c509_certificate13general_names18test_general_namess_35encode_decode_gns_with_same_gn_type
FN:79,_RNvXs1_NtCs7f8recisRHY_16c509_certificate13general_namesNtB5_12GeneralNamesINtNtCs906yGzbw5oA_8minicbor6decode6DecodeuE6decode
FN:36,_RNvMNtCs7f8recisRHY_16c509_certificate13general_namesNtB2_12GeneralNames13general_names
FN:50,_RNvXs_NtCs7f8recisRHY_16c509_certificate13general_namesNtB4_12GeneralNamesNtNtCs66KPHxksi63_4core7default7Default7default
FNDA:11,_RNvMNtCs7f8recisRHY_16c509_certificate13general_namesNtB2_12GeneralNames3new
FNDA:4,_RINvXs0_NtCs7f8recisRHY_16c509_certificate13general_namesNtB6_12GeneralNamesINtNtCs906yGzbw5oA_8minicbor6encode6EncodeuE6encodeQINtNtCs8Ty2CzGA6U3_5alloc3vec3VechEEB8_
FNDA:0,_RNCINvXs0_NtCs7f8recisRHY_16c509_certificate13general_namesNtB8_12GeneralNamesINtNtCs906yGzbw5oA_8minicbor6encode6EncodeuE6encodeQINtNtCs8Ty2CzGA6U3_5alloc3vec3VechEE0Ba_
FNDA:20,_RNvMNtCs7f8recisRHY_16c509_certificate13general_namesNtB2_12GeneralNames16add_general_name
FNDA:1,_RNvNtNtCs7f8recisRHY_16c509_certificate13general_names18test_general_namess_17encode_decode_gns
FNDA:1,_RNvNtNtCs7f8recisRHY_16c509_certificate13general_names18test_general_namess_23encode_decode_gns_empty
FNDA:1,_RNvNtNtCs7f8recisRHY_16c509_certificate13general_names18test_general_namess_35encode_decode_gns_with_same_gn_type
FNDA:3,_RNvXs1_NtCs7f8recisRHY_16c509_certificate13general_namesNtB5_12GeneralNamesINtNtCs906yGzbw5oA_8minicbor6decode6DecodeuE6decode
FNDA:4,_RNvMNtCs7f8recisRHY_16c509_certificate13general_namesNtB2_12GeneralNames13general_names
FNDA:0,_RNvXs_NtCs7f8recisRHY_16c509_certificate13general_namesNtB4_12GeneralNamesNtNtCs66KPHxksi63_4core7default7Default7default
FNF:10
FNH:8
DA:30,11
DA:31,11
DA:32,11
DA:36,4
DA:37,4
DA:38,4
DA:41,20
DA:42,20
DA:43,20
DA:44,20
DA:45,20
DA:46,20
DA:50,0
DA:51,0
DA:52,0
DA:56,4
DA:57,4
DA:58,4
DA:59,4
DA:60,4
DA:61,4
DA:62,1
DA:63,1
DA:64,1
DA:65,3
DA:67,3
DA:68,3
DA:69,3
DA:70,3
DA:71,11
DA:72,8
DA:74,3
DA:75,4
DA:79,3
DA:80,3
DA:81,3
DA:82,3
DA:83,3
DA:84,3
DA:85,3
DA:86,8
DA:88,3
DA:89,3
DA:107,1
DA:108,1
DA:109,1
DA:111,1
DA:112,1
DA:113,1
DA:114,1
DA:116,1
DA:117,1
DA:118,1
DA:119,1
DA:120,1
DA:121,1
DA:123,1
DA:124,1
DA:125,1
DA:127,1
DA:128,1
DA:129,1
DA:131,1
DA:132,1
DA:144,1
DA:146,1
DA:147,1
DA:148,1
DA:149,1
DA:150,1
DA:153,1
DA:154,1
DA:155,1
DA:157,1
DA:158,1
DA:159,1
DA:160,1
DA:162,1
DA:163,1
DA:164,1
DA:166,1
DA:167,1
DA:168,1
DA:170,1
DA:171,1
DA:174,1
DA:175,1
DA:179,1
DA:180,1
DA:181,1
DA:182,1
DA:183,1
DA:186,1
DA:187,1
DA:188,1
DA:190,1
DA:191,1
DA:192,1
DA:193,1
BRF:0
BRH:0
LF:100
LH:96
end_of_record
SF:/root/build/c509-certificate/src/general_names/other_name_hw_module.rs
FN:32,_RNvMNtNtCs7f8recisRHY_16c509_certificate13general_names20other_name_hw_moduleNtB2_27OtherNameHardwareModuleName3new
FN:56,_RINvXs_NtNtCs7f8recisRHY_16c509_certificate13general_names20other_name_hw_moduleNtB5_27OtherNameHardwareModuleNameINtNtCs906yGzbw5oA_8minicbor6encode6EncodeuE6encodeQINtNtCs8Ty2CzGA6U3_5alloc3vec3VechEEB9_
FN:73,_RNvXs0_NtNtCs7f8recisRHY_16c509_certificate13general_names20other_name_hw_moduleNtB5_27OtherNameHardwareModuleNameINtNtCs906yGzbw5oA_8minicbor6decode6DecodeuE6decode
FN:50,_RNvMNtNtCs7f8recisRHY_16c509_certificate13general_names20other_name_hw_moduleNtB2_27OtherNameHardwareModuleName13hw_serial_num
FN:44,_RNvMNtNtCs7f8recisRHY_16c509_certificate13general_names20other_name_hw_moduleNtB2_27OtherNameHardwareModuleName7hw_type
FNDA:6,_RNvMNtNtCs7f8recisRHY_16c509_certificate13general_names20other_name_hw_moduleNtB2_27OtherNameHardwareModuleName3new
FNDA:3,_RINvXs_NtNtCs7f8recisRHY_16c509_certificate13general_names20other_name_hw_moduleNtB5_27OtherNameHardwareModuleNameINtNtCs906yGzbw5oA_8minicbor6encode6EncodeuE6encodeQINtNtCs8Ty2CzGA6U3_5alloc3vec3VechEEB9_
FNDA:3,_RNvXs0_NtNtCs7f8recisRHY_16c509_certificate13general_names20other_name_hw_moduleNtB5_27OtherNameHardwareModuleNameINtNtCs906yGzbw5oA_8minicbor6decode6DecodeuE6decode
FNDA:0,_RNvMNtNtCs7f8recisRHY_16c509_certificate13general_names20other_name_hw_moduleNtB2_27OtherNameHardwareModuleName13hw_serial_num
FNDA:0,_RNvMNtNtCs7f8recisRHY_16c509_certificate13general_names20other_name_hw_moduleNtB2_27OtherNameHardwareModuleName7hw_type
FNF:5
FNH:3
DA:32,6
DA:33,6
DA:34,6
DA:35,6
DA:36,6
DA:37,6
DA:38,6
DA:39,6
DA:40,6
DA:44,0
DA:45,0
DA:46,0
DA:50,0
DA:51,0
DA:52,0
DA:56,3
DA:57,3
DA:58,3
DA:59,3
DA:60,3
DA:61,3
DA:62,3
DA:63,3
DA:64,3
DA:65,3
DA:66,3
DA:67,0
DA:68,3
DA:69,3
DA:73,3
DA:74,3
DA:75,3
DA:76,3
DA:77,3
DA:78,3
DA:79,3
DA:80,3
DA:81,3
DA:82,3
DA:83,3
DA:84,3
BRF:0
BRH:0
LF:41
LH:34
end_of_record
SF:/root/build/c509-certificate/src/helper/decode.rs
FN:6,_RINvNtNtCs7f8recisRHY_16c509_certificate6helper6decode13decode_helperINtNtCs8Ty2CzGA6U3_5alloc3vec3VechEuEB6_
FN:6,_RINvNtNtCs7f8recisRHY_16c509_certificate6helper6decode13decode_helperNtNtCs8Ty2CzGA6U3_5alloc6string6StringNtNtNtB6_13general_names12general_name20GeneralNameValueTypeEB6_
FN:6,_RINvNtNtCs7f8recisRHY_16c509_certificate6helper6decode13decode_helperNtNtCs8Ty2CzGA6U3_5alloc6string6StringuEB6_
FN:6,_RINvNtNtCs7f8recisRHY_16c509_certificate6helper6decode13decode_helperbuEB6_
FN:6,_RINvNtNtCs7f8recisRHY_16c509_certificate6helper6decode13decode_helperhuEB6_
FN:6,_RINvNtNtCs7f8recisRHY_16c509_certificate6helper6decode13decode_helpersuEB6_
FN:6,_RINvNtNtCs7f8recisRHY_16c509_certificate6helper6decode13decode_helperxNtNtNtB6_10extensions9extension18ExtensionValueTypeEB6_
FN:6,_RINvNtNtCs7f8recisRHY_16c509_certificate6helper6decode13decode_helperxuEB6_
FN:6,_RINvNtNtCs7f8recisRHY_16c509_certificate6helper6decode13decode_helperyuEB6_
FN:14,_RNCINvNtNtCs7f8recisRHY_16c509_certificate6helper6decode13decode_helperINtNtCs8Ty2CzGA6U3_5alloc3vec3VechEuE0B8_
FN:14,_RNCINvNtNtCs7f8recisRHY_16c509_certificate6helper6decode13decode_helperNtNtCs8Ty2CzGA6U3_5alloc6string6StringNtNtNtB8_13general_names12general_name20GeneralNameValueTypeE0B8_
FN:14,_RNCINvNtNtCs7f8recisRHY_16c509_certificate6helper6decode13decode_helperNtNtCs8Ty2CzGA6U3_5alloc6string6StringuE0B8_
FN:14,_RNCINvNtNtCs7f8recisRHY_16c509_certificate6helper6decode13decode_helperbuE0B8_
FN:14,_RNCINvNtNtCs7f8recisRHY_16c509_certificate6helper6decode13decode_helperhuE0B8_
FN:14,_RNCINvNtNtCs7f8recisRHY_16c509_certificate6helper6decode13decode_helpersuE0B8_
FN:14,_RNCINvNtNtCs7f8recisRHY_16c509_certificate6helper6decode13decode_helperxNtNtNtB8_10extensions9extension18ExtensionValueTypeE0B8_
FN:14,_RNCINvNtNtCs7f8recisRHY_16c509_certificate6helper6decode13decode_helperxuE0B8_
FN:14,_RNCINvNtNtCs7f8recisRHY_16c509_certificate6helper6decode13decode_helperyuE0B8_
FN:57,_RNCNvNtNtCs7f8recisRHY_16c509_certificate6helper6decode11decode_null0B7_
FN:27,_RNCNvNtNtCs7f8recisRHY_16c509_certificate6helper6decode12decode_bytes0B7_
FN:70,_RNCNvNtNtCs7f8recisRHY_16c509_certificate6helper6decode15decode_datatype0B7_
FN:41,_RNCNvNtNtCs7f8recisRHY_16c509_certificate6helper6decode16decode_array_len0B7_
FN:53,_RNvNtNtCs7f8recisRHY_16c509_certificate6helper6decode11decode_null
FN:23,_RNvNtNtCs7f8recisRHY_16c509_certificate6helper6decode12decode_bytes
FN:66,_RNvNtNtCs7f8recisRHY_16c509_certificate6helper6decode15decode_datatype
FN:36,_RNvNtNtCs7f8recisRHY_16c509_certificate6helper6decode16decode_array_len
FNDA:0,_RINvNtNtCs7f8recisRHY_16c509_certificate6helper6decode13decode_helperINtNtCs8Ty2CzGA6U3_5alloc3vec3VechEuEB6_
FNDA:6,_RINvNtNtCs7f8recisRHY_16c509_certificate6helper6decode13decode_helperNtNtCs8Ty2CzGA6U3_5alloc6string6StringNtNtNtB6_13general_names12general_name20GeneralNameValueTypeEB6_
FNDA:27,_RINvNtNtCs7f8recisRHY_16c509_certificate6helper6decode13decode_helperNtNtCs8Ty2CzGA6U3_5alloc6string6StringuEB6_
FNDA:0,_RINvNtNtCs7f8recisRHY_16c509_certificate6helper6decode13decode_helperbuEB6_
FNDA:3,_RINvNtNtCs7f8recisRHY_16c509_certificate6helper6decode13decode_helperhuEB6_
FNDA:48,_RINvNtNtCs7f8recisRHY_16c509_certificate6helper6decode13decode_helpersuEB6_
FNDA:5,_RINvNtNtCs7f8recisRHY_16c509_certificate6helper6decode13decode_helperxNtNtNtB6_10extensions9extension18ExtensionValueTypeEB6_
FNDA:4,_RINvNtNtCs7f8recisRHY_16c509_certificate6helper6decode13decode_helperxuEB6_
FNDA:6,_RINvNtNtCs7f8recisRHY_16c509_certificate6helper6decode13decode_helperyuEB6_
FNDA:0,_RNCINvNtNtCs7f8recisRHY_16c509_certificate6helper6decode13decode_helperINtNtCs8Ty2CzGA6U3_5alloc3vec3VechEuE0B8_
FNDA:1,_RNCINvNtNtCs7f8recisRHY_16c509_certificate6helper6decode13decode_helperNtNtCs8Ty2CzGA6U3_5alloc6string6StringNtNtNtB8_13general_names12general_name20GeneralNameValueTypeE0B8_
FNDA:0,_RNCINvNtNtCs7f8recisRHY_16c509_certificate6helper6decode13decode_helperNtNtCs8Ty2CzGA6U3_5alloc6string6StringuE0B8_
FNDA:0,_RNCINvNtNtCs7f8recisRHY_16c509_certificate6helper6decode13decode_helperbuE0B8_
FNDA:0,_RNCINvNtNtCs7f8recisRHY_16c509_certificate6helper6decode13decode_helperhuE0B8_
FNDA:0,_RNCINvNtNtCs7f8recisRHY_16c509_certificate6helper6decode13decode_helpersuE0B8_
FNDA:0,_RNCINvNtNtCs7f8recisRHY_16c509_certificate6helper6decode13decode_helperxNtNtNtB8_10extensions9extension18ExtensionValueTypeE0B8_
FNDA:0,_RNCINvNtNtCs7f8recisRHY_16c509_certificate6helper6decode13decode_helperxuE0B8_
FNDA:0,_RNCINvNtNtCs7f8recisRHY_16c509_certificate6helper6decode13decode_helperyuE0B8_
FNDA:0,_RNCNvNtNtCs7f8recisRHY_16c509_certificate6helper6decode11decode_null0B7_
FNDA:1,_RNCNvNtNtCs7f8recisRHY_16c509_certificate6helper6decode12decode_bytes0B7_
FNDA:0,_RNCNvNtNtCs7f8recisRHY_16c509_certificate6helper6decode15decode_datatype0B7_
FNDA:0,_RNCNvNtNtCs7f8recisRHY_16c509_certificate6helper6decode16decode_array_len0B7_
FNDA:2,_RNvNtNtCs7f8recisRHY_16c509_certificate6helper6decode11decode_null
FNDA:36,_RNvNtNtCs7f8recisRHY_16c509_certificate6helper6decode12decode_bytes
FNDA:141,_RNvNtNtCs7f8recisRHY_16c509_certificate6helper6decode15decode_datatype
FNDA:17,_RNvNtNtCs7f8recisRHY_16c509_certificate6helper6decode16decode_array_len
FNF:10
FNH:7
DA:6,99
DA:7,99
DA:8,99
DA:9,99
DA:10,99
DA:11,99
DA:12,99
DA:14,99
DA:15,1
DA:16,1
DA:17,1
DA:19,1
DA:20,99
DA:23,36
DA:24,36
DA:25,36
DA:26,36
DA:27,36
DA:28,1
DA:29,1
DA:30,1
DA:32,1
DA:33,36
DA:36,17
DA:37,17
DA:38,17
DA:39,17
DA:40,17
DA:41,17
DA:42,0
DA:43,0
DA:44,0
DA:46,0
DA:47,17
DA:48,17
DA:50,17
DA:53,2
DA:54,2
DA:55,2
DA:56,2
DA:57,2
DA:58,0
DA:59,0
DA:60,0
DA:62,0
DA:63,2
DA:66,141
DA:67,141
DA:68,141
DA:69,141
DA:70,141
DA:71,0
DA:72,0
DA:73,0
DA:75,0
DA:76,141
BRF:0
BRH:0
LF:62
LH:46
end_of_record
SF:/root/build/c509-certificate/src/helper/encode.rs
FN:44,_RINvNtNtCs7f8recisRHY_16c509_certificate6helper6encode11encode_nullQINtNtCs8Ty2CzGA6U3_5alloc3vec3VechEEB6_
FN:32,_RINvNtNtCs7f8recisRHY_16c509_certificate6helper6encode12encode_bytesQINtNtCs8Ty2CzGA6U3_5alloc3vec3VechEEB6_
FN:9,_RINvNtNtCs7f8recisRHY_16c509_certificate6helper6encode13encode_helperQINtNtCs8Ty2CzGA6U3_5alloc3vec3VechEuB16_EB6_
FN:9,_RINvNtNtCs7f8recisRHY_16c509_certificate6helper6encode13encode_helperQINtNtCs8Ty2CzGA6U3_5alloc3vec3VechEuNtNtB1b_6string6StringEB6_
FN:9,_RINvNtNtCs7f8recisRHY_16c509_certificate6helper6encode13encode_helperQINtNtCs8Ty2CzGA6U3_5alloc3vec3VechEubEB6_
FN:9,_RINvNtNtCs7f8recisRHY_16c509_certificate6helper6encode13encode_helperQINtNtCs8Ty2CzGA6U3_5alloc3vec3VechEuhEB6_
FN:9,_RINvNtNtCs7f8recisRHY_16c509_certificate6helper6encode13encode_helperQINtNtCs8Ty2CzGA6U3_5alloc3vec3VechEusEB6_
FN:9,_RINvNtNtCs7f8recisRHY_16c509_certificate6helper6encode13encode_helperQINtNtCs8Ty2CzGA6U3_5alloc3vec3VechEuxEB6_
FN:9,_RINvNtNtCs7f8recisRHY_16c509_certificate6helper6encode13encode_helperQINtNtCs8Ty2CzGA6U3_5alloc3vec3VechEuyEB6_
FN:55,_RINvNtNtCs7f8recisRHY_16c509_certificate6helper6encode16encode_array_lenQINtNtCs8Ty2CzGA6U3_5alloc3vec3VechEEB6_
FN:48,_RNCINvNtNtCs7f8recisRHY_16c509_certificate6helper6encode11encode_nullQINtNtCs8Ty2CzGA6U3_5alloc3vec3VechEE0B8_
FN:37,_RNCINvNtNtCs7f8recisRHY_16c509_certificate6helper6encode12encode_bytesQINtNtCs8Ty2CzGA6U3_5alloc3vec3VechEE0B8_
FN:18,_RNCINvNtNtCs7f8recisRHY_16c509_certificate6helper6encode13encode_helperQINtNtCs8Ty2CzGA6U3_5alloc3vec3VechEuB18_E0B8_
FN:18,_RNCINvNtNtCs7f8recisRHY_16c509_certificate6helper6encode13encode_helperQINtNtCs8Ty2CzGA6U3_5alloc3vec3VechEuNtNtB1d_6string6StringE0B8_
FN:18,_RNCINvNtNtCs7f8recisRHY_16c509_certificate6helper6encode13encode_helperQINtNtCs8Ty2CzGA6U3_5alloc3vec3VechEubE0B8_
FN:18,_RNCINvNtNtCs7f8recisRHY_16c509_certificate6helper6encode13encode_helperQINtNtCs8Ty2CzGA6U3_5alloc3vec3VechEuhE0B8_
FN:18,_RNCINvNtNtCs7f8recisRHY_16c509_certificate6helper6encode13encode_helperQINtNtCs8Ty2CzGA6U3_5alloc3vec3VechEusE0B8_
FN:18,_RNCINvNtNtCs7f8recisRHY_16c509_certificate6helper6encode13encode_helperQINtNtCs8Ty2CzGA6U3_5alloc3vec3VechEuxE0B8_
FN:18,_RNCINvNtNtCs7f8recisRHY_16c509_certificate6helper6encode13encode_helperQINtNtCs8Ty2CzGA6U3_5alloc3vec3VechEuyE0B8_
FN:60,_RNCINvNtNtCs7f8recisRHY_16c509_certificate6helper6encode16encode_array_lenQINtNtCs8Ty2CzGA6U3_5alloc3vec3VechEE0B8_
FNDA:2,_RINvNtNtCs7f8recisRHY_16c509_certificate6helper6encode11encode_nullQINtNtCs8Ty2CzGA6U3_5alloc3vec3VechEEB6_
FNDA:42,_RINvNtNtCs7f8recisRHY_16c509_certificate6helper6encode12encode_bytesQINtNtCs8Ty2CzGA6U3_5alloc3vec3VechEEB6_
FNDA:0,_RINvNtNtCs7f8recisRHY_16c509_certificate6helper6encode13encode_helperQINtNtCs8Ty2CzGA6U3_5alloc3vec3VechEuB16_EB6_
FNDA:34,_RINvNtNtCs7f8recisRHY_16c509_certificate6helper6encode13encode_helperQINtNtCs8Ty2CzGA6U3_5alloc3vec3VechEuNtNtB1b_6string6StringEB6_
FNDA:0,_RINvNtNtCs7f8recisRHY_16c509_certificate6helper6encode13encode_helperQINtNtCs8Ty2CzGA6U3_5alloc3vec3VechEubEB6_
FNDA:5,_RINvNtNtCs7f8recisRHY_16c509_certificate6helper6encode13encode_helperQINtNtCs8Ty2CzGA6U3_5alloc3vec3VechEuhEB6_
FNDA:53,_RINvNtNtCs7f8recisRHY_16c509_certificate6helper6encode13encode_helperQINtNtCs8Ty2CzGA6U3_5alloc3vec3VechEusEB6_
FNDA:12,_RINvNtNtCs7f8recisRHY_16c509_certificate6helper6encode13encode_helperQINtNtCs8Ty2CzGA6U3_5alloc3vec3VechEuxEB6_
FNDA:10,_RINvNtNtCs7f8recisRHY_16c509_certificate6helper6encode13encode_helperQINtNtCs8Ty2CzGA6U3_5alloc3vec3VechEuyEB6_
FNDA:17,_RINvNtNtCs7f8recisRHY_16c509_certificate6helper6encode16encode_array_lenQINtNtCs8Ty2CzGA6U3_5alloc3vec3VechEEB6_
FNDA:0,_RNCINvNtNtCs7f8recisRHY_16c509_certificate6helper6encode11encode_nullQINtNtCs8Ty2CzGA6U3_5alloc3vec3VechEE0B8_
FNDA:0,_RNCINvNtNtCs7f8recisRHY_16c509_certificate6helper6encode12encode_bytesQINtNtCs8Ty2CzGA6U3_5alloc3vec3VechEE0B8_
FNDA:0,_RNCINvNtNtCs7f8recisRHY_16c509_certificate6helper6encode13encode_helperQINtNtCs8Ty2CzGA6U3_5alloc3vec3VechEuB18_E0B8_
FNDA:0,_RNCINvNtNtCs7f8recisRHY_16c509_certificate6helper6encode13encode_helperQINtNtCs8Ty2CzGA6U3_5alloc3vec3VechEuNtNtB1d_6string6StringE0B8_
FNDA:0,_RNCINvNtNtCs7f8recisRHY_16c509_certificate6helper6encode13encode_helperQINtNtCs8Ty2CzGA6U3_5alloc3vec3VechEubE0B8_
FNDA:0,_RNCINvNtNtCs7f8recisRHY_16c509_certificate6helper6encode13encode_helperQINtNtCs8Ty2CzGA6U3_5alloc3vec3VechEuhE0B8_
FNDA:0,_RNCINvNtNtCs7f8recisRHY_16c509_certificate6helper6encode13encode_helperQINtNtCs8Ty2CzGA6U3_5alloc3vec3VechEusE0B8_
FNDA:0,_RNCINvNtNtCs7f8recisRHY_16c509_certificate6helper6encode13encode_helperQINtNtCs8Ty2CzGA6U3_5alloc3vec3VechEuxE0B8_
FNDA:0,_RNCINvNtNtCs7f8recisRHY_16c509_certificate6helper6encode13encode_helperQINtNtCs8Ty2CzGA6U3_5alloc3vec3VechEuyE0B8_
FNDA:0,_RNCINvNtNtCs7f8recisRHY_16c509_certificate6helper6encode16encode_array_lenQINtNtCs8Ty2CzGA6U3_5alloc3vec3VechEE0B8_
FNF:8
FNH:4
DA:9,114
DA:10,114
DA:11,114
DA:12,114
DA:13,114
DA:14,114
DA:15,114
DA:16,114
DA:18,114
DA:19,0
DA:20,0
DA:21,0
DA:22,0
DA:23,0
DA:26,0
DA:28,114
DA:29,114
DA:32,42
DA:33,42
DA:34,42
DA:35,42
DA:36,42
DA:37,42
DA:38,0
DA:39,0
DA:40,42
DA:41,42
DA:44,2
DA:45,2
DA:46,2
DA:47,2
DA:48,2
DA:49,0
DA:50,0
DA:51,2
DA:52,2
DA:55,17
DA:56,17
DA:57,17
DA:58,17
DA:59,17
DA:60,17
DA:61,0
DA:62,0
DA:63,17
DA:64,17
BRF:0
BRH:0
LF:54
LH:34
end_of_record
SF:/root/build/c509-certificate/src/issuer_sig_algo/data.rs
FN:60,_RNCNvNtNtCs7f8recisRHY_16c509_certificate15issuer_sig_algo4data21ISSUER_SIG_ALGO_TABLE0B7_
FN:54,_RNvMNtNtCs7f8recisRHY_16c509_certificate15issuer_sig_algo4dataNtB2_17IssuerSigAlgoData20get_int_to_oid_table
FN:74,_RNvNtNtCs7f8recisRHY_16c509_certificate15issuer_sig_algo4data16get_oid_from_int
FNDA:6,_RNCNvNtNtCs7f8recisRHY_16c509_certificate15issuer_sig_algo4data21ISSUER_SIG_ALGO_TABLE0B7_
FNDA:16,_RNvMNtNtCs7f8recisRHY_16c509_certificate15issuer_sig_algo4dataNtB2_17IssuerSigAlgoData20get_int_to_oid_table
FNDA:4,_RNvNtNtCs7f8recisRHY_16c509_certificate15issuer_sig_algo4data16get_oid_from_int
FNF:3
FNH:3
DA:54,16
DA:55,16
DA:56,16
DA:60,6
DA:61,6
DA:63,138
DA:64,132
DA:65,132
DA:67,6
DA:68,6
DA:74,4
DA:75,4
DA:76,4
DA:77,4
DA:78,4
DA:79,4
DA:80,4
DA:82,4
DA:83,4
BRF:0
BRH:0
LF:19
LH:19
end_of_record
SF:/root/build/c509-certificate/src/issuer_sig_algo/mod.rs
FN:155,_RNvNtNtCs7f8recisRHY_16c509_certificate15issuer_sig_algo31test_issuer_signature_algorithms_19test_registered_oid
FN:173,_RNvNtNtCs7f8recisRHY_16c509_certificate15issuer_sig_algo31test_issuer_signature_algorithms_21test_unregistered_oid
FN:191,_RNvNtNtCs7f8recisRHY_16c509_certificate15issuer_sig_algo31test_issuer_signature_algorithms_32test_unregistered_oid_with_param
FN:104,_RINvXs1_NtCs7f8recisRHY_16c509_certificate15issuer_sig_algoNtB6_24IssuerSignatureAlgorithmINtNtCs906yGzbw5oA_8minicbor6encode6EncodeuE6encodeQINtNtCs8Ty2CzGA6U3_5alloc3vec3VechEEB8_
FN:41,_RNvMNtCs7f8recisRHY_16c509_certificate15issuer_sig_algoNtB2_24IssuerSignatureAlgorithm3new
FN:124,_RNvXs2_NtCs7f8recisRHY_16c509_certificate15issuer_sig_algoNtB5_24IssuerSignatureAlgorithmINtNtCs906yGzbw5oA_8minicbor6decode6DecodeuE6decode
FN:88,_RINvXs0_NtCs7f8recisRHY_16c509_certificate15issuer_sig_algoNtB6_24IssuerSignatureAlgorithmNtNtCs8fL3q8PO2IZ_10serde_core3ser9Serialize9serializepEB8_
FN:77,_RINvXs_NtCs7f8recisRHY_16c509_certificate15issuer_sig_algoNtB5_24IssuerSignatureAlgorithmNtNtCs8fL3q8PO2IZ_10serde_core2de11Deserialize11deserializepEB7_
FN:81,_RNCINvXs_NtCs7f8recisRHY_16c509_certificate15issuer_sig_algoNtB7_24IssuerSignatureAlgorithmNtNtCs8fL3q8PO2IZ_10serde_core2de11Deserialize11deserializepE0B9_
FN:62,_RNvMNtCs7f8recisRHY_16c509_certificate15issuer_sig_algoNtB2_24IssuerSignatureAlgorithm14registered_oid
FN:56,_RNvMNtCs7f8recisRHY_16c509_certificate15issuer_sig_algoNtB2_24IssuerSignatureAlgorithm15algo_identifier
FNDA:1,_RNvNtNtCs7f8recisRHY_16c509_certificate15issuer_sig_algo31test_issuer_signature_algorithms_19test_registered_oid
FNDA:1,_RNvNtNtCs7f8recisRHY_16c509_certificate15issuer_sig_algo31test_issuer_signature_algorithms_21test_unregistered_oid
FNDA:1,_RNvNtNtCs7f8recisRHY_16c509_certificate15issuer_sig_algo31test_issuer_signature_algorithms_32test_unregistered_oid_with_param
FNDA:8,_RINvXs1_NtCs7f8recisRHY_16c509_certificate15issuer_sig_algoNtB6_24IssuerSignatureAlgorithmINtNtCs906yGzbw5oA_8minicbor6encode6EncodeuE6encodeQINtNtCs8Ty2CzGA6U3_5alloc3vec3VechEEB8_
FNDA:12,_RNvMNtCs7f8recisRHY_16c509_certificate15issuer_sig_algoNtB2_24IssuerSignatureAlgorithm3new
FNDA:6,_RNvXs2_NtCs7f8recisRHY_16c509_certificate15issuer_sig_algoNtB5_24IssuerSignatureAlgorithmINtNtCs906yGzbw5oA_8minicbor6decode6DecodeuE6decode
FNDA:0,_RINvXs0_NtCs7f8recisRHY_16c509_certificate15issuer_sig_algoNtB6_24IssuerSignatureAlgorithmNtNtCs8fL3q8PO2IZ_10serde_core3ser9Serialize9serializepEB8_
FNDA:0,_RINvXs_NtCs7f8recisRHY_16c509_certificate15issuer_sig_algoNtB5_24IssuerSignatureAlgorithmNtNtCs8fL3q8PO2IZ_10serde_core2de11Deserialize11deserializepEB7_
FNDA:0,_RNCINvXs_NtCs7f8recisRHY_16c509_certificate15issuer_sig_algoNtB7_24IssuerSignatureAlgorithmNtNtCs8fL3q8PO2IZ_10serde_core2de11Deserialize11deserializepE0B9_
FNDA:0,_RNvMNtCs7f8recisRHY_16c509_certificate15issuer_sig_algoNtB2_24IssuerSignatureAlgorithm14registered_oid
FNDA:0,_RNvMNtCs7f8recisRHY_16c509_certificate15issuer_sig_algoNtB2_24IssuerSignatureAlgorithm15algo_identifier
FNF:11
FNH:6
DA:41,12
DA:42,12
DA:43,12
DA:44,12
DA:45,12
DA:46,12
DA:47,12
DA:48,12
DA:49,12
DA:50,12
DA:51,12
DA:52,12
DA:56,0
DA:57,0
DA:58,0
DA:62,0
DA:63,0
DA:64,0
DA:77,0
DA:78,0
DA:79,0
DA:80,0
DA:81,0
DA:83,0
DA:84,0
DA:88,0
DA:89,0
DA:90,0
DA:91,0
DA:92,0
DA:93,0
DA:95,0
DA:96,0
DA:97,0
DA:98,0
DA:99,0
DA:100,0
DA:104,8
DA:105,8
DA:106,8
DA:107,8
DA:108,8
DA:109,8
DA:110,8
DA:111,8
DA:112,8
DA:113,8
DA:115,6
DA:117,2
DA:119,8
DA:120,8
DA:124,6
DA:125,6
DA:126,6
DA:127,6
DA:128,6
DA:131,4
DA:132,4
DA:133,4
DA:136,2
DA:137,2
DA:138,2
DA:139,2
DA:140,2
DA:143,6
DA:155,1
DA:156,1
DA:157,1
DA:159,1
DA:160,1
DA:161,1
DA:164,1
DA:166,1
DA:167,1
DA:168,1
DA:169,1
DA:170,1
DA:173,1
DA:174,1
DA:175,1
DA:177,1
DA:178,1
DA:179,1
DA:182,1
DA:184,1
DA:185,1
DA:186,1
DA:187,1
DA:188,1
DA:191,1
DA:192,1
DA:193,1
DA:195,1
DA:196,1
DA:197,1
DA:199,1
DA:200,1
DA:204,1
DA:205,1
DA:209,1
DA:210,1
DA:211,1
DA:212,1
DA:213,1
BRF:0
BRH:0
LF:105
LH:79
end_of_record
SF:/root/build/c509-certificate/src/lib.rs
FN:140,_RNvNtCs7f8recisRHY_16c509_certificate4tests_41test_generate_and_verify_signed_c509_cert
FN:93,_RNCNvCs7f8recisRHY_16c509_certificate8generate0B3_
FN:115,_RNvCs7f8recisRHY_16c509_certificate6verify
FN:82,_RNvCs7f8recisRHY_16c509_certificate8generate
FNDA:1,_RNvNtCs7f8recisRHY_16c509_certificate4tests_41test_generate_and_verify_signed_c509_cert
FNDA:1,_RNCNvCs7f8recisRHY_16c509_certificate8generate0B3_
FNDA:1,_RNvCs7f8recisRHY_16c509_certificate6verify
FNDA:1,_RNvCs7f8recisRHY_16c509_certificate8generate
FNF:4
FNH:4
DA:82,1
DA:83,1
DA:84,1
DA:85,1
DA:87,1
DA:88,1
DA:89,1
DA:90,1
DA:91,1
DA:93,1
DA:96,1
DA:97,1
DA:98,1
DA:99,1
DA:100,1
DA:101,1
DA:103,1
DA:104,1
DA:115,1
DA:116,1
DA:117,1
DA:118,1
DA:119,1
DA:120,1
DA:121,1
DA:122,1
DA:123,1
DA:124,1
DA:125,1
DA:126,0
DA:127,1
DA:128,1
DA:140,1
DA:141,1
DA:143,1
DA:144,1
DA:145,1
DA:148,1
DA:149,1
DA:151,1
DA:152,1
BRF:0
BRH:0
LF:42
LH:41
end_of_record
SF:/root/build/c509-certificate/src/name/mod.rs
FN:47,_RNvMNtCs7f8recisRHY_16c509_certificate4nameNtB2_4Name3new
FN:178,_RINvNtCs7f8recisRHY_16c509_certificate4name15encode_cn_valueQINtNtCs8Ty2CzGA6U3_5alloc3vec3VechEEB4_
FN:93,_RINvXs1_NtCs7f8recisRHY_16c509_certificate4nameNtB6_9NameValueINtNtCs906yGzbw5oA_8minicbor6encode6EncodeuE6encodeQINtNtCs8Ty2CzGA6U3_5alloc3vec3VechEEB8_
FN:116,_RNCINvXs1_NtCs7f8recisRHY_16c509_certificate4nameNtB8_9NameValueINtNtCs906yGzbw5oA_8minicbor6encode6EncodeuE6encodeQINtNtCs8Ty2CzGA6U3_5alloc3vec3VechEE0Ba_
FN:126,_RNCINvXs1_NtCs7f8recisRHY_16c509_certificate4nameNtB8_9NameValueINtNtCs906yGzbw5oA_8minicbor6encode6EncodeuE6encodeQINtNtCs8Ty2CzGA6U3_5alloc3vec3VechEEs_0Ba_
FN:259,_RNvNtCs7f8recisRHY_16c509_certificate4name19decode_bytes_helper
FN:285,_RNvNtCs7f8recisRHY_16c509_certificate4name19decode_eui_cn_bytes
FN:277,_RNvNtCs7f8recisRHY_16c509_certificate4name19decode_hex_cn_bytes
FN:251,_RNvNtCs7f8recisRHY_16c509_certificate4name19formatted_eui_bytes
FN:317,_RNvNtCs7f8recisRHY_16c509_certificate4name25create_attributes_with_cn
FN:69,_RNvXs0_NtCs7f8recisRHY_16c509_certificate4nameNtB5_4NameINtNtCs906yGzbw5oA_8minicbor6decode6DecodeuE6decode
FN:147,_RNvXs2_NtCs7f8recisRHY_16c509_certificate4nameNtB5_9NameValueINtNtCs906yGzbw5oA_8minicbor6decode6DecodeuE6decode
FN:253,_RNCNvNtCs7f8recisRHY_16c509_certificate4name19formatted_eui_bytes0B5_
FN:335,_RNvNtNtCs7f8recisRHY_16c509_certificate4name9test_names_26encode_decode_type_name_cn
FN:355,_RNvNtNtCs7f8recisRHY_16c509_certificate4name9test_names_27encode_decode_type_name_hex
FN:521,_RNvNtNtCs7f8recisRHY_16c509_certificate4name9test_names_29encode_decode_empty_attribute
FN:492,_RNvNtNtCs7f8recisRHY_16c509_certificate4name9test_names_29encode_decode_type_name_attrs
FN:443,_RNvNtNtCs7f8recisRHY_16c509_certificate4name9test_names_30encode_decode_type_name_cn_eui
FN:377,_RNvNtNtCs7f8recisRHY_16c509_certificate4name9test_names_31encode_decode_type_name_hex_cap
FN:398,_RNvNtNtCs7f8recisRHY_16c509_certificate4name9test_names_34encode_decode_type_name_cn_eui_mac
FN:464,_RNvNtNtCs7f8recisRHY_16c509_certificate4name9test_names_37encode_decode_type_name_cn_eui_un_cap
FN:419,_RNvNtNtCs7f8recisRHY_16c509_certificate4name9test_names_41encode_decode_type_name_cn_eui_mac_un_cap
FN:53,_RNvMNtCs7f8recisRHY_16c509_certificate4nameNtB2_4Name5value
FN:59,_RINvXs_NtCs7f8recisRHY_16c509_certificate4nameNtB5_4NameINtNtCs906yGzbw5oA_8minicbor6encode6EncodeuE6encodeQINtNtCs8Ty2CzGA6U3_5alloc3vec3VechEEB7_
FNDA:30,_RNvMNtCs7f8recisRHY_16c509_certificate4nameNtB2_4Name3new
FNDA:15,_RINvNtCs7f8recisRHY_16c509_certificate4name15encode_cn_valueQINtNtCs8Ty2CzGA6U3_5alloc3vec3VechEEB4_
FNDA:19,_RINvXs1_NtCs7f8recisRHY_16c509_certificate4nameNtB6_9NameValueINtNtCs906yGzbw5oA_8minicbor6encode6EncodeuE6encodeQINtNtCs8Ty2CzGA6U3_5alloc3vec3VechEEB8_
FNDA:0,_RNCINvXs1_NtCs7f8recisRHY_16c509_certificate4nameNtB8_9NameValueINtNtCs906yGzbw5oA_8minicbor6encode6EncodeuE6encodeQINtNtCs8Ty2CzGA6U3_5alloc3vec3VechEE0Ba_
FNDA:0,_RNCINvXs1_NtCs7f8recisRHY_16c509_certificate4nameNtB8_9NameValueINtNtCs906yGzbw5oA_8minicbor6encode6EncodeuE6encodeQINtNtCs8Ty2CzGA6U3_5alloc3vec3VechEEs_0Ba_
FNDA:5,_RNvNtCs7f8recisRHY_16c509_certificate4name19decode_bytes_helper
FNDA:4,_RNvNtCs7f8recisRHY_16c509_certificate4name19decode_eui_cn_bytes
FNDA:1,_RNvNtCs7f8recisRHY_16c509_certificate4name19decode_hex_cn_bytes
FNDA:4,_RNvNtCs7f8recisRHY_16c509_certificate4name19formatted_eui_bytes
FNDA:11,_RNvNtCs7f8recisRHY_16c509_certificate4name25create_attributes_with_cn
FNDA:15,_RNvXs0_NtCs7f8recisRHY_16c509_certificate4nameNtB5_4NameINtNtCs906yGzbw5oA_8minicbor6decode6DecodeuE6decode
FNDA:15,_RNvXs2_NtCs7f8recisRHY_16c509_certificate4nameNtB5_9NameValueINtNtCs906yGzbw5oA_8minicbor6decode6DecodeuE6decode
FNDA:32,_RNCNvNtCs7f8recisRHY_16c509_certificate4name19formatted_eui_bytes0B5_
FNDA:1,_RNvNtNtCs7f8recisRHY_16c509_certificate4name9test_names_26encode_decode_type_name_cn
FNDA:1,_RNvNtNtCs7f8recisRHY_16c509_certificate4name9test_names_27encode_decode_type_name_hex
FNDA:1,_RNvNtNtCs7f8recisRHY_16c509_certificate4name9test_names_29encode_decode_empty_attribute
FNDA:1,_RNvNtNtCs7f8recisRHY_16c509_certificate4name9test_names_29encode_decode_type_name_attrs
FNDA:1,_RNvNtNtCs7f8recisRHY_16c509_certificate4name9test_names_30encode_decode_type_name_cn_eui
FNDA:1,_RNvNtNtCs7f8recisRHY_16c509_certificate4name9test_names_31encode_decode_type_name_hex_cap
FNDA:1,_RNvNtNtCs7f8recisRHY_16c509_certificate4name9test_names_34encode_decode_type_name_cn_eui_mac
FNDA:1,_RNvNtNtCs7f8recisRHY_16c509_certificate4name9test_names_37encode_decode_type_name_cn_eui_un_cap
FNDA:1,_RNvNtNtCs7f8recisRHY_16c509_certificate4name9test_names_41encode_decode_type_name_cn_eui_mac_un_cap
FNDA:0,_RNvMNtCs7f8recisRHY_16c509_certificate4nameNtB2_4Name5value
FNDA:19,_RINvXs_NtCs7f8recisRHY_16c509_certificate4nameNtB5_4NameINtNtCs906yGzbw5oA_8minicbor6encode6EncodeuE6encodeQINtNtCs8Ty2CzGA6U3_5alloc3vec3VechEEB7_
FNF:24
FNH:21
DA:47,30
DA:48,30
DA:49,30
DA:53,0
DA:54,0
DA:55,0
DA:59,19
DA:60,19
DA:61,19
DA:62,19
DA:63,19
DA:64,19
DA:65,19
DA:69,15
DA:70,15
DA:71,15
DA:72,15
DA:73,15
DA:74,15
DA:93,19
DA:94,19
DA:95,19
DA:96,19
DA:97,19
DA:98,19
DA:99,19
DA:100,19
DA:102,18
DA:103,15
DA:106,15
DA:107,15
DA:108,15
DA:109,15
DA:110,15
DA:112,0
DA:114,15
DA:116,3
DA:117,0
DA:118,0
DA:119,3
DA:120,19
DA:121,16
DA:126,1
DA:127,0
DA:128,0
DA:129,1
DA:130,1
DA:131,0
DA:135,0
DA:136,0
DA:138,0
DA:139,0
DA:142,19
DA:143,19
DA:147,15
DA:148,15
DA:149,15
DA:150,15
DA:151,15
DA:153,4
DA:154,4
DA:157,4
DA:158,16
DA:159,16
DA:161,4
DA:165,6
DA:167,5
DA:169,0
DA:170,0
DA:171,0
DA:174,15
DA:178,15
DA:179,15
DA:180,15
DA:181,15
DA:182,15
DA:183,15
DA:184,15
DA:185,15
DA:186,15
DA:188,15
DA:189,15
DA:193,15
DA:194,1
DA:195,1
DA:196,1
DA:197,1
DA:198,1
DA:199,0
DA:204,14
DA:205,5
DA:206,5
DA:207,5
DA:208,5
DA:209,5
DA:210,5
DA:212,0
DA:213,5
DA:214,5
DA:215,5
DA:217,0
DA:218,5
DA:219,5
DA:220,5
DA:221,5
DA:222,0
DA:228,9
DA:229,1
DA:230,1
DA:231,1
DA:232,1
DA:233,1
DA:234,1
DA:235,1
DA:236,0
DA:238,8
DA:242,0
DA:243,0
DA:244,0
DA:247,15
DA:248,15
DA:251,4
DA:252,4
DA:253,32
DA:254,4
DA:255,4
DA:256,4
DA:259,5
DA:260,5
DA:262,5
DA:264,0
DA:267,5
DA:269,1
DA:271,4
DA:272,0
DA:274,5
DA:277,1
DA:278,1
DA:280,0
DA:281,1
DA:282,1
DA:285,4
DA:287,4
DA:290,3
DA:292,0
DA:293,3
DA:295,0
DA:297,3
DA:298,3
DA:299,3
DA:303,1
DA:304,1
DA:305,0
DA:306,1
DA:309,0
DA:310,0
DA:311,0
DA:314,4
DA:317,11
DA:318,11
DA:319,11
DA:320,11
DA:321,11
DA:335,1
DA:336,1
DA:337,1
DA:339,1
DA:340,1
DA:342,1
DA:343,1
DA:344,1
DA:347,1
DA:349,1
DA:350,1
DA:351,1
DA:352,1
DA:355,1
DA:356,1
DA:357,1
DA:359,1
DA:360,1
DA:362,1
DA:363,1
DA:364,1
DA:369,1
DA:371,1
DA:372,1
DA:373,1
DA:374,1
DA:377,1
DA:378,1
DA:379,1
DA:381,1
DA:382,1
DA:384,1
DA:385,1
DA:386,1
DA:390,1
DA:392,1
DA:393,1
DA:394,1
DA:395,1
DA:398,1
DA:399,1
DA:400,1
DA:402,1
DA:403,1
DA:405,1
DA:407,1
DA:408,1
DA:411,1
DA:413,1
DA:414,1
DA:415,1
DA:416,1
DA:419,1
DA:420,1
DA:421,1
DA:423,1
DA:424,1
DA:425,1
DA:427,1
DA:428,1
DA:432,1
DA:433,1
DA:437,1
DA:438,1
DA:439,1
DA:440,1
DA:443,1
DA:444,1
DA:445,1
DA:447,1
DA:448,1
DA:450,1
DA:452,1
DA:453,1
DA:456,1
DA:458,1
DA:459,1
DA:460,1
DA:461,1
DA:464,1
DA:465,1
DA:466,1
DA:468,1
DA:469,1
DA:471,1
DA:473,1
DA:474,1
DA:478,1
DA:479,1
DA:483,1
DA:484,1
DA:485,1
DA:486,1
DA:492,1
DA:493,1
DA:494,1
DA:496,1
DA:497,1
DA:498,1
DA:499,1
DA:500,1
DA:501,1
DA:502,1
DA:503,1
DA:504,1
DA:505,1
DA:507,1
DA:508,1
DA:509,1
DA:511,1
DA:512,1
DA:513,1
DA:515,1
DA:516,1
DA:517,1
DA:518,1
DA:521,1
DA:522,1
DA:523,1
DA:525,1
DA:527,1
DA:528,1
DA:530,1
DA:532,1
DA:533,1
DA:534,1
DA:535,1
BRF:0
BRH:0
LF:295
LH:258
end_of_record
SF:/root/build/c509-certificate/src/oid.rs
FN:113,_RINvXs2_NtCs7f8recisRHY_16c509_certificate3oidNtB6_7C509oidINtNtCs906yGzbw5oA_8minicbor6encode6EncodeuE6encodeQINtNtCs8Ty2CzGA6U3_5alloc3vec3VechEEB8_
FN:170,_RNvNtNtCs7f8recisRHY_16c509_certificate3oid13test_c509_oids_13partial_equal
FN:153,_RNvNtNtCs7f8recisRHY_16c509_certificate3oid13test_c509_oids_23encode_decode_unwrapped
FN:69,_RNvMs_NtCs7f8recisRHY_16c509_certificate3oidNtB4_7C509oid3new
FN:43,_RNvMNtCs7f8recisRHY_16c509_certificate3oidNtB2_17C509oidRegistered8c509_oid
FN:75,_RNvMs_NtCs7f8recisRHY_16c509_certificate3oidNtB4_7C509oid3oid
FN:131,_RNvXs3_NtCs7f8recisRHY_16c509_certificate3oidNtB5_7C509oidINtNtCs906yGzbw5oA_8minicbor6decode6DecodeuE6decode
FN:31,_RNvMNtCs7f8recisRHY_16c509_certificate3oidNtB2_17C509oidRegistered3new
FN:48,_RNvMNtCs7f8recisRHY_16c509_certificate3oidNtB2_17C509oidRegistered5table
FN:81,_RINvXs0_NtCs7f8recisRHY_16c509_certificate3oidNtB6_7C509oidNtNtCs8fL3q8PO2IZ_10serde_core2de11Deserialize11deserializepEB8_
FN:91,_RINvXs1_NtCs7f8recisRHY_16c509_certificate3oidNtB6_7C509oidNtNtCs8fL3q8PO2IZ_10serde_core3ser9Serialize9serializepEB8_
FN:85,_RNCINvXs0_NtCs7f8recisRHY_16c509_certificate3oidNtB8_7C509oidNtNtCs8fL3q8PO2IZ_10serde_core2de11Deserialize11deserializepE0Ba_
FNDA:12,_RINvXs2_NtCs7f8recisRHY_16c509_certificate3oidNtB6_7C509oidINtNtCs906yGzbw5oA_8minicbor6encode6EncodeuE6encodeQINtNtCs8Ty2CzGA6U3_5alloc3vec3VechEEB8_
FNDA:1,_RNvNtNtCs7f8recisRHY_16c509_certificate3oid13test_c509_oids_13partial_equal
FNDA:1,_RNvNtNtCs7f8recisRHY_16c509_certificate3oid13test_c509_oids_23encode_decode_unwrapped
FNDA:161,_RNvMs_NtCs7f8recisRHY_16c509_certificate3oidNtB4_7C509oid3new
FNDA:67,_RNvMNtCs7f8recisRHY_16c509_certificate3oidNtB2_17C509oidRegistered8c509_oid
FNDA:78,_RNvMs_NtCs7f8recisRHY_16c509_certificate3oidNtB4_7C509oid3oid
FNDA:11,_RNvXs3_NtCs7f8recisRHY_16c509_certificate3oidNtB5_7C509oidINtNtCs906yGzbw5oA_8minicbor6decode6DecodeuE6decode
FNDA:110,_RNvMNtCs7f8recisRHY_16c509_certificate3oidNtB2_17C509oidRegistered3new
FNDA:45,_RNvMNtCs7f8recisRHY_16c509_certificate3oidNtB2_17C509oidRegistered5table
FNDA:0,_RINvXs0_NtCs7f8recisRHY_16c509_certificate3oidNtB6_7C509oidNtNtCs8fL3q8PO2IZ_10serde_core2de11Deserialize11deserializepEB8_
FNDA:0,_RINvXs1_NtCs7f8recisRHY_16c509_certificate3oidNtB6_7C509oidNtNtCs8fL3q8PO2IZ_10serde_core3ser9Serialize9serializepEB8_
FNDA:0,_RNCINvXs0_NtCs7f8recisRHY_16c509_certificate3oidNtB8_7C509oidNtNtCs8fL3q8PO2IZ_10serde_core2de11Deserialize11deserializepE0Ba_
FNF:12
FNH:9
DA:31,110
DA:32,110
DA:33,110
DA:34,110
DA:35,110
DA:36,110
DA:37,110
DA:38,110
DA:39,110
DA:43,67
DA:44,67
DA:45,67
DA:48,45
DA:49,45
DA:50,45
DA:69,161
DA:70,161
DA:71,161
DA:75,78
DA:76,78
DA:77,78
DA:81,0
DA:82,0
DA:83,0
DA:84,0
DA:85,0
DA:86,0
DA:87,0
DA:91,0
DA:92,0
DA:93,0
DA:94,0
DA:95,0
DA:96,0
DA:98,0
DA:99,0
DA:100,0
DA:101,0
DA:102,0
DA:113,12
DA:114,12
DA:115,12
DA:116,12
DA:117,12
DA:118,12
DA:119,12
DA:120,12
DA:131,11
DA:132,11
DA:133,11
DA:134,11
DA:135,11
DA:136,11
DA:137,11
DA:138,11
DA:153,1
DA:154,1
DA:155,1
DA:156,1
DA:157,1
DA:158,1
DA:162,1
DA:164,1
DA:165,1
DA:166,1
DA:167,1
DA:170,1
DA:171,1
DA:172,1
DA:173,1
DA:174,1
BRF:0
BRH:0
LF:72
LH:53
end_of_record
SF:/root/build/c509-certificate/src/signing.rs
FN:44,_RINvMNtCs7f8recisRHY_16c509_certificate7signingNtB3_9FileError9from_pathRNtNtCsiKSG5X70Gj7_3std4path7PathBufEB5_
FN:76,_RINvMs0_NtCs7f8recisRHY_16c509_certificate7signingNtB6_10PrivateKey9from_fileNtNtCsiKSG5X70Gj7_3std4path7PathBufEB8_
FN:77,_RNCINvMs0_NtCs7f8recisRHY_16c509_certificate7signingNtB8_10PrivateKey9from_fileNtNtCsiKSG5X70Gj7_3std4path7PathBufE0Ba_
FN:78,_RNCINvMs0_NtCs7f8recisRHY_16c509_certificate7signingNtB8_10PrivateKey9from_fileNtNtCsiKSG5X70Gj7_3std4path7PathBufEs_0Ba_
FN:148,_RNCNvMs2_NtCs7f8recisRHY_16c509_certificate7signingNtB7_9PublicKey6verify0B9_
FN:64,_RNCNvXs_NtCs7f8recisRHY_16c509_certificate7signingNtB6_9FileErrorNtNtCs66KPHxksi63_4core3fmt7Display3fmt0B8_
FN:83,_RNvMs0_NtCs7f8recisRHY_16c509_certificate7signingNtB5_10PrivateKey10public_key
FN:90,_RNvMs0_NtCs7f8recisRHY_16c509_certificate7signingNtB5_10PrivateKey4sign
FN:143,_RNvMs2_NtCs7f8recisRHY_16c509_certificate7signingNtB5_9PublicKey6verify
FN:196,_RNvNtNtCs7f8recisRHY_16c509_certificate7signing5tests14public_key_str
FN:181,_RNvNtNtCs7f8recisRHY_16c509_certificate7signing5tests15private_key_str
FN:218,_RNvNtNtCs7f8recisRHY_16c509_certificate7signing5testss_23public_private_key_test
FN:206,_RNvNtNtCs7f8recisRHY_16c509_certificate7signing5testss_26private_key_from_file_test
FN:227,_RNvNtNtCs7f8recisRHY_16c509_certificate7signing5testss_9sign_test
FN:101,_RNvXs1_NtCs7f8recisRHY_16c509_certificate7signingNtB5_10PrivateKeyNtNtNtCs66KPHxksi63_4core3str6traits7FromStr8from_str
FN:164,_RNvXs3_NtCs7f8recisRHY_16c509_certificate7signingNtB5_9PublicKeyNtNtNtCs66KPHxksi63_4core3str6traits7FromStr8from_str
FN:56,_RNvXs_NtCs7f8recisRHY_16c509_certificate7signingNtB4_9FileErrorNtNtCs66KPHxksi63_4core3fmt7Display3fmt
FN:119,_RINvMs2_NtCs7f8recisRHY_16c509_certificate7signingNtB6_9PublicKey9from_filepEB8_
FN:120,_RNCINvMs2_NtCs7f8recisRHY_16c509_certificate7signingNtB8_9PublicKey9from_filepE0Ba_
FN:121,_RNCINvMs2_NtCs7f8recisRHY_16c509_certificate7signingNtB8_9PublicKey9from_filepEs_0Ba_
FN:36,_RNvMNtCs7f8recisRHY_16c509_certificate7signingNtB2_9FileError11from_string
FN:128,_RNvMs2_NtCs7f8recisRHY_16c509_certificate7signingNtB5_9PublicKey10from_bytes
FN:135,_RNvMs2_NtCs7f8recisRHY_16c509_certificate7signingNtB5_9PublicKey8to_bytes
FNDA:0,_RINvMNtCs7f8recisRHY_16c509_certificate7signingNtB3_9FileError9from_pathRNtNtCsiKSG5X70Gj7_3std4path7PathBufEB5_
FNDA:1,_RINvMs0_NtCs7f8recisRHY_16c509_certificate7signingNtB6_10PrivateKey9from_fileNtNtCsiKSG5X70Gj7_3std4path7PathBufEB8_
FNDA:0,_RNCINvMs0_NtCs7f8recisRHY_16c509_certificate7signingNtB8_10PrivateKey9from_fileNtNtCsiKSG5X70Gj7_3std4path7PathBufE0Ba_
FNDA:0,_RNCINvMs0_NtCs7f8recisRHY_16c509_certificate7signingNtB8_10PrivateKey9from_fileNtNtCsiKSG5X70Gj7_3std4path7PathBufEs_0Ba_
FNDA:0,_RNCNvMs2_NtCs7f8recisRHY_16c509_certificate7signingNtB7_9PublicKey6verify0B9_
FNDA:0,_RNCNvXs_NtCs7f8recisRHY_16c509_certificate7signingNtB6_9FileErrorNtNtCs66KPHxksi63_4core3fmt7Display3fmt0B8_
FNDA:2,_RNvMs0_NtCs7f8recisRHY_16c509_certificate7signingNtB5_10PrivateKey10public_key
FNDA:2,_RNvMs0_NtCs7f8recisRHY_16c509_certificate7signingNtB5_10PrivateKey4sign
FNDA:3,_RNvMs2_NtCs7f8recisRHY_16c509_certificate7signingNtB5_9PublicKey6verify
FNDA:2,_RNvNtNtCs7f8recisRHY_16c509_certificate7signing5tests14public_key_str
FNDA:4,_RNvNtNtCs7f8recisRHY_16c509_certificate7signing5tests15private_key_str
FNDA:1,_RNvNtNtCs7f8recisRHY_16c509_certificate7signing5testss_23public_private_key_test
FNDA:1,_RNvNtNtCs7f8recisRHY_16c509_certificate7signing5testss_26private_key_from_file_test
FNDA:1,_RNvNtNtCs7f8recisRHY_16c509_certificate7signing5testss_9sign_test
FNDA:4,_RNvXs1_NtCs7f8recisRHY_16c509_certificate7signingNtB5_10PrivateKeyNtNtNtCs66KPHxksi63_4core3str6traits7FromStr8from_str
FNDA:2,_RNvXs3_NtCs7f8recisRHY_16c509_certificate7signingNtB5_9PublicKeyNtNtNtCs66KPHxksi63_4core3str6traits7FromStr8from_str
FNDA:0,_RNvXs_NtCs7f8recisRHY_16c509_certificate7signingNtB4_9FileErrorNtNtCs66KPHxksi63_4core3fmt7Display3fmt
FNDA:0,_RINvMs2_NtCs7f8recisRHY_16c509_certificate7signingNtB6_9PublicKey9from_filepEB8_
FNDA:0,_RNCINvMs2_NtCs7f8recisRHY_16c509_certificate7signingNtB8_9PublicKey9from_filepE0Ba_
FNDA:0,_RNCINvMs2_NtCs7f8recisRHY_16c509_certificate7signingNtB8_9PublicKey9from_filepEs_0Ba_
FNDA:0,_RNvMNtCs7f8recisRHY_16c509_certificate7signingNtB2_9FileError11from_string
FNDA:0,_RNvMs2_NtCs7f8recisRHY_16c509_certificate7signingNtB5_9PublicKey10from_bytes
FNDA:0,_RNvMs2_NtCs7f8recisRHY_16c509_certificate7signingNtB5_9PublicKey8to_bytes
FNF:23
FNH:11
DA:36,0
DA:37,0
DA:38,0
DA:39,0
DA:40,0
DA:41,0
DA:44,0
DA:45,0
DA:46,0
DA:47,0
DA:48,0
DA:49,0
DA:50,0
DA:51,0
DA:52,0
DA:56,0
DA:57,0
DA:58,0
DA:59,0
DA:60,0
DA:61,0
DA:62,0
DA:63,0
DA:64,0
DA:65,0
DA:66,0
DA:67,0
DA:76,1
DA:77,1
DA:78,1
DA:79,1
DA:83,2
DA:84,2
DA:85,2
DA:90,2
DA:91,2
DA:92,2
DA:93,2
DA:94,2
DA:95,2
DA:101,4
DA:102,4
DA:103,4
DA:104,4
DA:119,0
DA:120,0
DA:121,0
DA:122,0
DA:128,0
DA:129,0
DA:130,0
DA:131,0
DA:135,0
DA:136,0
DA:137,0
DA:143,3
DA:144,3
DA:145,3
DA:146,3
DA:147,3
DA:148,3
DA:149,0
DA:150,0
DA:152,0
DA:154,0
DA:155,3
DA:156,3
DA:157,2
DA:158,3
DA:164,2
DA:165,2
DA:166,2
DA:167,2
DA:181,4
DA:182,4
DA:183,4
DA:188,4
DA:196,2
DA:197,2
DA:198,2
DA:203,2
DA:206,1
DA:207,1
DA:209,1
DA:210,1
DA:211,1
DA:213,1
DA:214,1
DA:215,1
DA:218,1
DA:219,1
DA:220,1
DA:221,1
DA:223,1
DA:224,1
DA:227,1
DA:228,1
DA:229,1
DA:230,1
DA:232,1
DA:234,1
DA:235,1
DA:236,1
DA:237,1
DA:238,0
DA:240,1
BRF:0
BRH:0
LF:113
LH:63
end_of_record
SF:/root/build/c509-certificate/src/subject_pub_key_algo/data.rs
FN:52,_RNCNvNtNtCs7f8recisRHY_16c509_certificate20subject_pub_key_algo4data26SUBJECT_PUB_KEY_ALGO_TABLE0B7_
FN:46,_RNvMNtNtCs7f8recisRHY_16c509_certificate20subject_pub_key_algo4dataNtB2_21SubjectPubKeyAlgoData20get_int_to_oid_table
FN:67,_RNvNtNtCs7f8recisRHY_16c509_certificate20subject_pub_key_algo4data16get_oid_from_int
FNDA:6,_RNCNvNtNtCs7f8recisRHY_16c509_certificate20subject_pub_key_algo4data26SUBJECT_PUB_KEY_ALGO_TABLE0B7_
FNDA:16,_RNvMNtNtCs7f8recisRHY_16c509_certificate20subject_pub_key_algo4dataNtB2_21SubjectPubKeyAlgoData20get_int_to_oid_table
FNDA:4,_RNvNtNtCs7f8recisRHY_16c509_certificate20subject_pub_key_algo4data16get_oid_from_int
FNF:3
FNH:3
DA:46,16
DA:47,16
DA:48,16
DA:52,6
DA:53,6
DA:55,60
DA:56,54
DA:57,54
DA:59,6
DA:60,6
DA:67,4
DA:68,4
DA:69,4
DA:70,4
DA:71,4
DA:72,4
DA:73,4
DA:75,4
DA:76,4
BRF:0
BRH:0
LF:19
LH:19
end_of_record
SF:/root/build/c509-certificate/src/subject_pub_key_algo/mod.rs
FN:153,_RNvNtNtCs7f8recisRHY_16c509_certificate20subject_pub_key_algo33test_subject_public_key_algorithms_19test_registered_oid
FN:171,_RNvNtNtCs7f8recisRHY_16c509_certificate20subject_pub_key_algo33test_subject_public_key_algorithms_21test_unregistered_oid
FN:189,_RNvNtNtCs7f8recisRHY_16c509_certificate20subject_pub_key_algo33test_subject_public_key_algorithms_32test_unregistered_oid_with_param
FN:105,_RINvXs1_NtCs7f8recisRHY_16c509_certificate20subject_pub_key_algoNtB6_22SubjectPubKeyAlgorithmINtNtCs906yGzbw5oA_8minicbor6encode6EncodeuE6encodeQINtNtCs8Ty2CzGA6U3_5alloc3vec3VechEEB8_
FN:42,_RNvMNtCs7f8recisRHY_16c509_certificate20subject_pub_key_algoNtB2_22SubjectPubKeyAlgorithm3new
FN:125,_RNvXs2_NtCs7f8recisRHY_16c509_certificate20subject_pub_key_algoNtB5_22SubjectPubKeyAlgorithmINtNtCs906yGzbw5oA_8minicbor6decode6DecodeuE6decode
FN:89,_RINvXs0_NtCs7f8recisRHY_16c509_certificate20subject_pub_key_algoNtB6_22SubjectPubKeyAlgorithmNtNtCs8fL3q8PO2IZ_10serde_core3ser9Serialize9serializepEB8_
FN:78,_RINvXs_NtCs7f8recisRHY_16c509_certificate20subject_pub_key_algoNtB5_22SubjectPubKeyAlgorithmNtNtCs8fL3q8PO2IZ_10serde_core2de11Deserialize11deserializepEB7_
FN:82,_RNCINvXs_NtCs7f8recisRHY_16c509_certificate20subject_pub_key_algoNtB7_22SubjectPubKeyAlgorithmNtNtCs8fL3q8PO2IZ_10serde_core2de11Deserialize11deserializepE0B9_
FN:63,_RNvMNtCs7f8recisRHY_16c509_certificate20subject_pub_key_algoNtB2_22SubjectPubKeyAlgorithm14registered_oid
FN:57,_RNvMNtCs7f8recisRHY_16c509_certificate20subject_pub_key_algoNtB2_22SubjectPubKeyAlgorithm15algo_identifier
FNDA:1,_RNvNtNtCs7f8recisRHY_16c509_certificate20subject_pub_key_algo33test_subject_public_key_algorithms_19test_registered_oid
FNDA:1,_RNvNtNtCs7f8recisRHY_16c509_certificate20subject_pub_key_algo33test_subject_public_key_algorithms_21test_unregistered_oid
FNDA:1,_RNvNtNtCs7f8recisRHY_16c509_certificate20subject_pub_key_algo33test_subject_public_key_algorithms_32test_unregistered_oid_with_param
FNDA:8,_RINvXs1_NtCs7f8recisRHY_16c509_certificate20subject_pub_key_algoNtB6_22SubjectPubKeyAlgorithmINtNtCs906yGzbw5oA_8minicbor6encode6EncodeuE6encodeQINtNtCs8Ty2CzGA6U3_5alloc3vec3VechEEB8_
FNDA:12,_RNvMNtCs7f8recisRHY_16c509_certificate20subject_pub_key_algoNtB2_22SubjectPubKeyAlgorithm3new
FNDA:6,_RNvXs2_NtCs7f8recisRHY_16c509_certificate20subject_pub_key_algoNtB5_22SubjectPubKeyAlgorithmINtNtCs906yGzbw5oA_8minicbor6decode6DecodeuE6decode
FNDA:0,_RINvXs0_NtCs7f8recisRHY_16c509_certificate20subject_pub_key_algoNtB6_22SubjectPubKeyAlgorithmNtNtCs8fL3q8PO2IZ_10serde_core3ser9Serialize9serializepEB8_
FNDA:0,_RINvXs_NtCs7f8recisRHY_16c509_certificate20subject_pub_key_algoNtB5_22SubjectPubKeyAlgorithmNtNtCs8fL3q8PO2IZ_10serde_core2de11Deserialize11deserializepEB7_
FNDA:0,_RNCINvXs_NtCs7f8recisRHY_16c509_certificate20subject_pub_key_algoNtB7_22SubjectPubKeyAlgorithmNtNtCs8fL3q8PO2IZ_10serde_core2de11Deserialize11deserializepE0B9_
FNDA:0,_RNvMNtCs7f8recisRHY_16c509_certificate20subject_pub_key_algoNtB2_22SubjectPubKeyAlgorithm14registered_oid
FNDA:0,_RNvMNtCs7f8recisRHY_16c509_certificate20subject_pub_key_algoNtB2_22SubjectPubKeyAlgorithm15algo_identifier
FNF:11
FNH:6
DA:42,12
DA:43,12
DA:44,12
DA:45,12
DA:46,12
DA:47,12
DA:48,12
DA:49,12
DA:50,12
DA:51,12
DA:52,12
DA:53,12
DA:57,0
DA:58,0
DA:59,0
DA:63,0
DA:64,0
DA:65,0
DA:78,0
DA:79,0
DA:80,0
DA:81,0
DA:82,0
DA:84,0
DA:85,0
DA:89,0
DA:90,0
DA:91,0
DA:92,0
DA:93,0
DA:94,0
DA:96,0
DA:97,0
DA:98,0
DA:99,0
DA:100,0
DA:101,0
DA:105,8
DA:106,8
DA:107,8
DA:108,8
DA:109,8
DA:110,8
DA:111,8
DA:112,8
DA:113,8
DA:114,8
DA:116,6
DA:118,2
DA:120,8
DA:121,8
DA:125,6
DA:126,6
DA:127,6
DA:128,6
DA:130,6
DA:131,4
DA:132,4
DA:133,4
DA:135,2
DA:136,2
DA:137,2
DA:138,2
DA:139,2
DA:141,6
DA:153,1
DA:154,1
DA:155,1
DA:157,1
DA:158,1
DA:159,1
DA:162,1
DA:164,1
DA:165,1
DA:166,1
DA:167,1
DA:168,1
DA:171,1
DA:172,1
DA:173,1
DA:175,1
DA:176,1
DA:177,1
DA:180,1
DA:182,1
DA:183,1
DA:184,1
DA:185,1
DA:186,1
DA:189,1
DA:190,1
DA:191,1
DA:193,1
DA:194,1
DA:195,1
DA:197,1
DA:198,1
DA:202,1
DA:203,1
DA:207,1
DA:208,1
DA:209,1
DA:210,1
DA:211,1
BRF:0
BRH:0
LF:105
LH:79
end_of_record
SF:/root/build/c509-certificate/src/tables.rs
FN:45,_RNvXNtCs7f8recisRHY_16c509_certificate6tablesINtB2_8IntTableNtNtNtB4_13general_names12general_name23GeneralNameTypeRegistryEINtB2_10TableTraitsBW_E3addB4_
FN:40,_RNvXNtCs7f8recisRHY_16c509_certificate6tablesINtB2_8IntTableNtNtNtB4_13general_names12general_name23GeneralNameTypeRegistryEINtB2_10TableTraitsBW_E3newB4_
FN:54,_RNvXNtCs7f8recisRHY_16c509_certificate6tablesINtB2_8IntTableNtNtNtB4_13general_names12general_name23GeneralNameTypeRegistryEINtB2_10TableTraitsBW_E7get_mapB4_
FN:87,_RNvMs_NtCs7f8recisRHY_16c509_certificate6tablesNtB4_17IntegerToOidTable7get_map
FN:54,_RNvXNtCs7f8recisRHY_16c509_certificate6tablesINtB2_8IntTableNtNtNtCskpPIqMjpqko_7asn1_rs10asn1_types3oid3OidEINtB2_10TableTraitsBW_E7get_mapB4_
FN:78,_RNvMs_NtCs7f8recisRHY_16c509_certificate6tablesNtB4_17IntegerToOidTable3add
FN:71,_RNvMs_NtCs7f8recisRHY_16c509_certificate6tablesNtB4_17IntegerToOidTable3new
FN:45,_RNvXNtCs7f8recisRHY_16c509_certificate6tablesINtB2_8IntTableNtNtNtCskpPIqMjpqko_7asn1_rs10asn1_types3oid3OidEINtB2_10TableTraitsBW_E3addB4_
FN:40,_RNvXNtCs7f8recisRHY_16c509_certificate6tablesINtB2_8IntTableNtNtNtCskpPIqMjpqko_7asn1_rs10asn1_types3oid3OidEINtB2_10TableTraitsBW_E3newB4_
FNDA:80,_RNvXNtCs7f8recisRHY_16c509_certificate6tablesINtB2_8IntTableNtNtNtB4_13general_names12general_name23GeneralNameTypeRegistryEINtB2_10TableTraitsBW_E3addB4_
FNDA:8,_RNvXNtCs7f8recisRHY_16c509_certificate6tablesINtB2_8IntTableNtNtNtB4_13general_names12general_name23GeneralNameTypeRegistryEINtB2_10TableTraitsBW_E3newB4_
FNDA:26,_RNvXNtCs7f8recisRHY_16c509_certificate6tablesINtB2_8IntTableNtNtNtB4_13general_names12general_name23GeneralNameTypeRegistryEINtB2_10TableTraitsBW_E7get_mapB4_
FNDA:80,_RNvMs_NtCs7f8recisRHY_16c509_certificate6tablesNtB4_17IntegerToOidTable7get_map
FNDA:80,_RNvXNtCs7f8recisRHY_16c509_certificate6tablesINtB2_8IntTableNtNtNtCskpPIqMjpqko_7asn1_rs10asn1_types3oid3OidEINtB2_10TableTraitsBW_E7get_mapB4_
FNDA:856,_RNvMs_NtCs7f8recisRHY_16c509_certificate6tablesNtB4_17IntegerToOidTable3add
FNDA:36,_RNvMs_NtCs7f8recisRHY_16c509_certificate6tablesNtB4_17IntegerToOidTable3new
FNDA:856,_RNvXNtCs7f8recisRHY_16c509_certificate6tablesINtB2_8IntTableNtNtNtCskpPIqMjpqko_7asn1_rs10asn1_types3oid3OidEINtB2_10TableTraitsBW_E3addB4_
FNDA:36,_RNvXNtCs7f8recisRHY_16c509_certificate6tablesINtB2_8IntTableNtNtNtCskpPIqMjpqko_7asn1_rs10asn1_types3oid3OidEINtB2_10TableTraitsBW_E3newB4_
FNF:6
FNH:6
DA:40,44
DA:41,44
DA:42,44
DA:45,936
DA:46,936
DA:47,936
DA:48,936
DA:49,936
DA:50,936
DA:51,936
DA:54,106
DA:55,106
DA:56,106
DA:71,36
DA:72,36
DA:73,36
DA:74,36
DA:75,36
DA:78,856
DA:79,856
DA:80,856
DA:81,856
DA:82,856
DA:83,856
DA:84,856
DA:87,80
DA:88,80
DA:89,80
BRF:0
BRH:0
LF:28
LH:28
end_of_record
SF:/root/build/c509-certificate/src/time.rs
FN:107,_RNvNtNtCs7f8recisRHY_16c509_certificate4time9test_times_18test_encode_decode
FN:89,_RNvNtNtCs7f8recisRHY_16c509_certificate4time9test_times_30test_encode_decode_no_exp_date
FN:29,_RNvMNtCs7f8recisRHY_16c509_certificate4timeNtB2_4Time4time
FN:41,_RNvXs0_NtCs7f8recisRHY_16c509_certificate4timeyINtNtCs66KPHxksi63_4core7convert4FromNtB5_4TimeE4from
FN:35,_RNvXs_NtCs7f8recisRHY_16c509_certificate4timeNtB4_4TimeINtNtCs66KPHxksi63_4core7convert4FromyE4from
FN:47,_RINvXs1_NtCs7f8recisRHY_16c509_certificate4timeNtB6_4TimeINtNtCs906yGzbw5oA_8minicbor6encode6EncodeuE6encodeQINtNtCs8Ty2CzGA6U3_5alloc3vec3VechEEB8_
FN:62,_RNvXs2_NtCs7f8recisRHY_16c509_certificate4timeNtB5_4TimeINtNtCs906yGzbw5oA_8minicbor6decode6DecodeuE6decode
FN:23,_RNvMNtCs7f8recisRHY_16c509_certificate4timeNtB2_4Time3new
FNDA:1,_RNvNtNtCs7f8recisRHY_16c509_certificate4time9test_times_18test_encode_decode
FNDA:1,_RNvNtNtCs7f8recisRHY_16c509_certificate4time9test_times_30test_encode_decode_no_exp_date
FNDA:0,_RNvMNtCs7f8recisRHY_16c509_certificate4timeNtB2_4Time4time
FNDA:0,_RNvXs0_NtCs7f8recisRHY_16c509_certificate4timeyINtNtCs66KPHxksi63_4core7convert4FromNtB5_4TimeE4from
FNDA:0,_RNvXs_NtCs7f8recisRHY_16c509_certificate4timeNtB4_4TimeINtNtCs66KPHxksi63_4core7convert4FromyE4from
FNDA:12,_RINvXs1_NtCs7f8recisRHY_16c509_certificate4timeNtB6_4TimeINtNtCs906yGzbw5oA_8minicbor6encode6EncodeuE6encodeQINtNtCs8Ty2CzGA6U3_5alloc3vec3VechEEB8_
FNDA:8,_RNvXs2_NtCs7f8recisRHY_16c509_certificate4timeNtB5_4TimeINtNtCs906yGzbw5oA_8minicbor6decode6DecodeuE6decode
FNDA:16,_RNvMNtCs7f8recisRHY_16c509_certificate4timeNtB2_4Time3new
FNF:8
FNH:5
DA:23,16
DA:24,16
DA:25,16
DA:29,0
DA:30,0
DA:31,0
DA:35,0
DA:36,0
DA:37,0
DA:41,0
DA:42,0
DA:43,0
DA:47,12
DA:48,12
DA:49,12
DA:50,12
DA:51,12
DA:52,12
DA:53,2
DA:55,10
DA:57,12
DA:58,12
DA:62,8
DA:63,8
DA:64,8
DA:65,8
DA:66,8
DA:71,6
DA:72,6
DA:75,2
DA:76,2
DA:78,0
DA:80,8
DA:89,1
DA:90,1
DA:91,1
DA:92,1
DA:93,1
DA:94,1
DA:96,1
DA:98,1
DA:99,1
DA:101,1
DA:102,1
DA:107,1
DA:108,1
DA:109,1
DA:111,1
DA:112,1
DA:113,1
DA:115,1
DA:117,1
DA:118,1
DA:120,1
DA:121,1
BRF:0
BRH:0
LF:55
LH:45
end_of_record
SF:/root/build/cardano-blockchain-types/src/auxdata/aux_data.rs
FN:100,_RNvMs_NtNtCsaaQWVZq1tay_24cardano_blockchain_types7auxdata8aux_dataNtB4_18TransactionAuxData22decode_alonzo_plus_map
FN:66,_RNvMs_NtNtCsaaQWVZq1tay_24cardano_blockchain_types7auxdata8aux_dataNtB4_18TransactionAuxData23decode_shelley_ma_array
FN:58,_RNvMs_NtNtCsaaQWVZq1tay_24cardano_blockchain_types7auxdata8aux_dataNtB4_18TransactionAuxData8metadata
FN:24,_RNvXNtNtCsaaQWVZq1tay_24cardano_blockchain_types7auxdata8aux_dataNtB2_18TransactionAuxDataINtNtCs906yGzbw5oA_8minicbor6decode6DecodeuE6decode
FNDA:0,_RNvMs_NtNtCsaaQWVZq1tay_24cardano_blockchain_types7auxdata8aux_dataNtB4_18TransactionAuxData22decode_alonzo_plus_map
FNDA:6,_RNvMs_NtNtCsaaQWVZq1tay_24cardano_blockchain_types7auxdata8aux_dataNtB4_18TransactionAuxData23decode_shelley_ma_array
FNDA:5,_RNvMs_NtNtCsaaQWVZq1tay_24cardano_blockchain_types7auxdata8aux_dataNtB4_18TransactionAuxData8metadata
FNDA:8,_RNvXNtNtCsaaQWVZq1tay_24cardano_blockchain_types7auxdata8aux_dataNtB2_18TransactionAuxDataINtNtCs906yGzbw5oA_8minicbor6decode6DecodeuE6decode
FNF:4
FNH:3
DA:24,8
DA:25,8
DA:26,8
DA:27,8
DA:29,8
DA:33,2
DA:34,2
DA:38,6
DA:40,0
DA:41,0
DA:42,0
DA:43,0
DA:45,0
DA:47,0
DA:48,0
DA:49,0
DA:52,8
DA:58,5
DA:59,5
DA:60,5
DA:61,5
DA:62,5
DA:63,5
DA:66,6
DA:67,6
DA:68,6
DA:69,6
DA:70,0
DA:71,0
DA:73,0
DA:74,6
DA:77,0
DA:78,0
DA:80,0
DA:81,0
DA:82,0
DA:83,0
DA:87,6
DA:88,6
DA:90,6
DA:91,6
DA:93,6
DA:94,6
DA:95,6
DA:96,6
DA:97,6
DA:100,0
DA:101,0
DA:102,0
DA:105,0
DA:106,0
DA:107,0
DA:108,0
DA:109,0
DA:111,0
DA:112,0
DA:113,0
DA:114,0
DA:118,0
DA:119,0
DA:121,0
DA:122,0
DA:123,0
DA:125,0
DA:126,0
DA:127,0
DA:128,0
DA:133,0
DA:134,0
DA:137,0
DA:138,0
DA:139,0
DA:140,0
DA:141,0
DA:144,0
DA:145,0
DA:146,0
DA:147,0
DA:148,0
DA:149,0
DA:150,0
DA:154,0
DA:155,0
DA:156,0
DA:157,0
DA:161,0
DA:163,0
DA:164,0
DA:165,0
DA:166,0
DA:167,0
DA:168,0
DA:171,0
DA:172,0
DA:173,0
DA:174,0
DA:175,0
BRF:0
BRH:0
LF:97
LH:29
end_of_record
SF:/root/build/cardano-blockchain-types/src/auxdata/block.rs
FN:20,_RNvMNtNtCsaaQWVZq1tay_24cardano_blockchain_types7auxdata5blockNtB2_12BlockAuxData3get
FN:37,_RNvXs0_NtNtCsaaQWVZq1tay_24cardano_blockchain_types7auxdata5blockNtB5_12BlockAuxDataINtNtCs66KPHxksi63_4core7convert7TryFromRNtCskUQ22b0rIrJ_15pallas_traverse13MultiEraBlockE8try_from
FN:29,_RNvXs_NtNtCsaaQWVZq1tay_24cardano_blockchain_types7auxdata5blockNtB4_12BlockAuxDataNtNtCs66KPHxksi63_4core7default7Default7default
FNDA:5,_RNvMNtNtCsaaQWVZq1tay_24cardano_blockchain_types7auxdata5blockNtB2_12BlockAuxData3get
FNDA:22,_RNvXs0_NtNtCsaaQWVZq1tay_24cardano_blockchain_types7auxdata5blockNtB5_12BlockAuxDataINtNtCs66KPHxksi63_4core7convert7TryFromRNtCskUQ22b0rIrJ_15pallas_traverse13MultiEraBlockE8try_from
FNDA:0,_RNvXs_NtNtCsaaQWVZq1tay_24cardano_blockchain_types7auxdata5blockNtB4_12BlockAuxDataNtNtCs66KPHxksi63_4core7default7Default7default
FNF:3
FNH:2
DA:20,5
DA:21,5
DA:22,5
DA:23,5
DA:24,5
DA:25,5
DA:29,0
DA:30,0
DA:31,0
DA:37,22
DA:38,22
DA:43,22
DA:44,6
DA:45,0
DA:46,6
DA:47,8
DA:48,4
DA:49,4
DA:50,4
DA:52,2
DA:53,6
DA:54,4
DA:55,4
DA:56,4
DA:58,0
DA:59,0
DA:60,0
DA:61,0
DA:62,0
DA:65,0
DA:67,16
DA:69,22
DA:70,22
BRF:0
BRH:0
LF:33
LH:23
end_of_record
SF:/root/build/cardano-blockchain-types/src/auxdata/metadatum.rs
FN:56,_RNvMs_NtNtCsaaQWVZq1tay_24cardano_blockchain_types7auxdata9metadatumNtB4_8Metadata8is_empty
FN:38,_RNvMs_NtNtCsaaQWVZq1tay_24cardano_blockchain_types7auxdata9metadatumNtB4_8Metadata8contains
FN:47,_RNvMs_NtNtCsaaQWVZq1tay_24cardano_blockchain_types7auxdata9metadatumNtB4_8Metadata3get
FN:27,_RNvXNtNtCsaaQWVZq1tay_24cardano_blockchain_types7auxdata9metadatumNtB2_13MetadataInnerNtNtCs66KPHxksi63_4core7default7Default7default
FN:62,_RNvXs0_NtNtCsaaQWVZq1tay_24cardano_blockchain_types7auxdata9metadatumNtB5_8MetadataNtNtCs66KPHxksi63_4core7default7Default7default
FN:68,_RNvXs1_NtNtCsaaQWVZq1tay_24cardano_blockchain_types7auxdata9metadatumNtB5_8MetadataINtNtCs906yGzbw5oA_8minicbor6decode6DecodeuE6decode
FNDA:0,_RNvMs_NtNtCsaaQWVZq1tay_24cardano_blockchain_types7auxdata9metadatumNtB4_8Metadata8is_empty
FNDA:0,_RNvMs_NtNtCsaaQWVZq1tay_24cardano_blockchain_types7auxdata9metadatumNtB4_8Metadata8contains
FNDA:5,_RNvMs_NtNtCsaaQWVZq1tay_24cardano_blockchain_types7auxdata9metadatumNtB4_8Metadata3get
FNDA:0,_RNvXNtNtCsaaQWVZq1tay_24cardano_blockchain_types7auxdata9metadatumNtB2_13MetadataInnerNtNtCs66KPHxksi63_4core7default7Default7default
FNDA:0,_RNvXs0_NtNtCsaaQWVZq1tay_24cardano_blockchain_types7auxdata9metadatumNtB5_8MetadataNtNtCs66KPHxksi63_4core7default7Default7default
FNDA:8,_RNvXs1_NtNtCsaaQWVZq1tay_24cardano_blockchain_types7auxdata9metadatumNtB5_8MetadataINtNtCs906yGzbw5oA_8minicbor6decode6DecodeuE6decode
FNF:6
FNH:2
DA:27,0
DA:28,0
DA:29,0
DA:30,0
DA:31,0
DA:32,0
DA:38,0
DA:39,0
DA:40,0
DA:41,0
DA:42,0
DA:43,0
DA:47,5
DA:48,5
DA:49,5
DA:50,5
DA:51,5
DA:52,5
DA:56,0
DA:57,0
DA:58,0
DA:62,0
DA:63,0
DA:64,0
DA:68,8
DA:69,8
DA:70,8
DA:71,8
DA:72,8
DA:73,8
DA:74,8
DA:75,8
DA:76,8
DA:77,8
DA:78,8
DA:82,0
DA:84,0
DA:85,0
DA:86,0
DA:87,0
DA:91,8
DA:92,10
DA:93,10
DA:95,10
DA:96,10
DA:100,10
DA:101,0
DA:104,0
DA:105,0
DA:107,0
DA:108,0
DA:109,0
DA:110,0
DA:111,0
DA:114,10
DA:118,8
DA:119,8
DA:122,8
DA:124,8
DA:125,8
DA:126,8
DA:127,8
DA:128,8
BRF:0
BRH:0
LF:63
LH:32
end_of_record
SF:/root/build/cardano-blockchain-types/src/auxdata/metadatum_label.rs
FN:44,_RNvXs0_NtNtCsaaQWVZq1tay_24cardano_blockchain_types7auxdata15metadatum_labelNtB5_14MetadatumLabelINtNtCs66KPHxksi63_4core7convert4FromyE4from
FN:26,_RNvXs_NtNtCsaaQWVZq1tay_24cardano_blockchain_types7auxdata15metadatum_labelNtB4_14MetadatumLabelINtNtCs906yGzbw5oA_8minicbor6decode6DecodeuE6decode
FNDA:0,_RNvXs0_NtNtCsaaQWVZq1tay_24cardano_blockchain_types7auxdata15metadatum_labelNtB5_14MetadatumLabelINtNtCs66KPHxksi63_4core7convert4FromyE4from
FNDA:10,_RNvXs_NtNtCsaaQWVZq1tay_24cardano_blockchain_types7auxdata15metadatum_labelNtB4_14MetadatumLabelINtNtCs906yGzbw5oA_8minicbor6decode6DecodeuE6decode
FNF:2
FNH:1
DA:26,10
DA:27,10
DA:28,10
DA:29,10
DA:30,10
DA:31,10
DA:32,0
DA:33,0
DA:34,0
DA:35,0
DA:39,10
DA:40,10
DA:44,0
DA:45,0
DA:46,0
BRF:0
BRH:0
LF:15
LH:8
end_of_record
SF:/root/build/cardano-blockchain-types/src/auxdata/metadatum_value.rs
FN:39,_RNvXs_NtNtCsaaQWVZq1tay_24cardano_blockchain_types7auxdata15metadatum_valueNtB4_14MetadatumValueINtNtCs66KPHxksi63_4core7convert5AsRefShE6as_ref
FN:13,_RNvXNtNtCsaaQWVZq1tay_24cardano_blockchain_types7auxdata15metadatum_valueNtB2_14MetadatumValueINtNtCs906yGzbw5oA_8minicbor6decode6DecodeuE6decode
FNDA:6,_RNvXs_NtNtCsaaQWVZq1tay_24cardano_blockchain_types7auxdata15metadatum_valueNtB4_14MetadatumValueINtNtCs66KPHxksi63_4core7convert5AsRefShE6as_ref
FNDA:10,_RNvXNtNtCsaaQWVZq1tay_24cardano_blockchain_types7auxdata15metadatum_valueNtB2_14MetadatumValueINtNtCs906yGzbw5oA_8minicbor6decode6DecodeuE6decode
FNF:2
FNH:2
DA:13,10
DA:14,10
DA:15,10
DA:16,10
DA:18,10
DA:19,10
DA:20,0
DA:21,0
DA:22,0
DA:23,10
DA:25,10
DA:26,10
DA:27,0
DA:28,0
DA:29,0
DA:34,10
DA:35,10
DA:39,6
DA:40,6
DA:41,6
BRF:0
BRH:0
LF:20
LH:14
end_of_record
SF:/root/build/cardano-blockchain-types/src/auxdata/scripts.rs
FN:14,_RNvXNtNtCsaaQWVZq1tay_24cardano_blockchain_types7auxdata7scriptsNtB2_6ScriptINtNtCs906yGzbw5oA_8minicbor6decode6DecodeNtB2_10ScriptTypeE6decode
FN:101,_RNvXs0_NtNtCsaaQWVZq1tay_24cardano_blockchain_types7auxdata7scriptsNtB5_10ScriptTypeINtNtCs66KPHxksi63_4core7convert7TryFromyE8try_from
FN:116,_RNvXs1_NtNtCsaaQWVZq1tay_24cardano_blockchain_types7auxdata7scriptsNtB5_18TransactionScriptsNtNtCs66KPHxksi63_4core7default7Default7default
FN:126,_RNvXs2_NtNtCsaaQWVZq1tay_24cardano_blockchain_types7auxdata7scriptsNtB5_18TransactionScriptsINtNtCs66KPHxksi63_4core7convert4FromINtCs3rTp2opjamf_7dashmap7DashMapNtB5_10ScriptTypeNtB5_11ScriptArrayEE4from
FN:59,_RNvXs_NtNtCsaaQWVZq1tay_24cardano_blockchain_types7auxdata7scriptsNtB4_11ScriptArrayINtNtCs906yGzbw5oA_8minicbor6decode6DecodeNtB4_10ScriptTypeE6decode
FNDA:0,_RNvXNtNtCsaaQWVZq1tay_24cardano_blockchain_types7auxdata7scriptsNtB2_6ScriptINtNtCs906yGzbw5oA_8minicbor6decode6DecodeNtB2_10ScriptTypeE6decode
FNDA:0,_RNvXs0_NtNtCsaaQWVZq1tay_24cardano_blockchain_types7auxdata7scriptsNtB5_10ScriptTypeINtNtCs66KPHxksi63_4core7convert7TryFromyE8try_from
FNDA:2,_RNvXs1_NtNtCsaaQWVZq1tay_24cardano_blockchain_types7auxdata7scriptsNtB5_18TransactionScriptsNtNtCs66KPHxksi63_4core7default7Default7default
FNDA:6,_RNvXs2_NtNtCsaaQWVZq1tay_24cardano_blockchain_types7auxdata7scriptsNtB5_18TransactionScriptsINtNtCs66KPHxksi63_4core7convert4FromINtCs3rTp2opjamf_7dashmap7DashMapNtB5_10ScriptTypeNtB5_11ScriptArrayEE4from
FNDA:6,_RNvXs_NtNtCsaaQWVZq1tay_24cardano_blockchain_types7auxdata7scriptsNtB4_11ScriptArrayINtNtCs906yGzbw5oA_8minicbor6decode6DecodeNtB4_10ScriptTypeE6decode
FNF:5
FNH:3
DA:14,0
DA:15,0
DA:16,0
DA:17,0
DA:18,0
DA:20,0
DA:24,0
DA:25,0
DA:26,0
DA:27,0
DA:28,0
DA:29,0
DA:30,0
DA:31,0
DA:32,0
DA:33,0
DA:34,0
DA:36,0
DA:40,0
DA:41,0
DA:42,0
DA:43,0
DA:44,0
DA:45,0
DA:48,0
DA:50,0
DA:59,6
DA:60,6
DA:61,6
DA:62,6
DA:63,6
DA:68,6
DA:69,6
DA:71,0
DA:72,0
DA:73,0
DA:75,0
DA:76,0
DA:77,0
DA:81,6
DA:82,0
DA:85,6
DA:86,6
DA:101,0
DA:102,0
DA:103,0
DA:104,0
DA:105,0
DA:107,0
DA:116,2
DA:117,2
DA:118,2
DA:126,6
DA:127,6
DA:128,6
BRF:0
BRH:0
LF:55
LH:16
end_of_record
SF:/root/build/cardano-blockchain-types/src/cip134_uri.rs
FN:42,_RNCNvMNtCsaaQWVZq1tay_24cardano_blockchain_types10cip134_uriNtB4_10Cip0134Uri5parse0B6_
FN:63,_RNvMNtCsaaQWVZq1tay_24cardano_blockchain_types10cip134_uriNtB2_10Cip0134Uri3uri
FN:39,_RNvMNtCsaaQWVZq1tay_24cardano_blockchain_types10cip134_uriNtB2_10Cip0134Uri5parse
FN:89,_RNvXs_NtCsaaQWVZq1tay_24cardano_blockchain_types10cip134_uriNtB4_10Cip0134UriNtNtCs66KPHxksi63_4core3fmt7Display3fmt
FN:102,_RNCNvXs0_NtCsaaQWVZq1tay_24cardano_blockchain_types10cip134_uriNtB7_10Cip0134UriINtNtCs66KPHxksi63_4core7convert7TryFromRShE8try_from0B9_
FN:100,_RNvXs0_NtCsaaQWVZq1tay_24cardano_blockchain_types10cip134_uriNtB5_10Cip0134UriINtNtCs66KPHxksi63_4core7convert7TryFromRShE8try_from
FN:83,_RNvMNtCsaaQWVZq1tay_24cardano_blockchain_types10cip134_uriNtB2_10Cip0134Uri7address
FN:138,_RNvNtNtCsaaQWVZq1tay_24cardano_blockchain_types10cip134_uri5testss_13stake_address
FN:131,_RNvNtNtCsaaQWVZq1tay_24cardano_blockchain_types10cip134_uri5testss_14invalid_bech32
FN:114,_RNvNtNtCsaaQWVZq1tay_24cardano_blockchain_types10cip134_uri5testss_14invalid_prefix
FN:168,_RNvNtNtCsaaQWVZq1tay_24cardano_blockchain_types10cip134_uri5testss_15shelley_address
FN:195,_RNvNtNtCsaaQWVZq1tay_24cardano_blockchain_types10cip134_uri5testss_7display
FNDA:4,_RNCNvMNtCsaaQWVZq1tay_24cardano_blockchain_types10cip134_uriNtB4_10Cip0134Uri5parse0B6_
FNDA:1,_RNvMNtCsaaQWVZq1tay_24cardano_blockchain_types10cip134_uriNtB2_10Cip0134Uri3uri
FNDA:12,_RNvMNtCsaaQWVZq1tay_24cardano_blockchain_types10cip134_uriNtB2_10Cip0134Uri5parse
FNDA:1,_RNvXs_NtCsaaQWVZq1tay_24cardano_blockchain_types10cip134_uriNtB4_10Cip0134UriNtNtCs66KPHxksi63_4core3fmt7Display3fmt
FNDA:0,_RNCNvXs0_NtCsaaQWVZq1tay_24cardano_blockchain_types10cip134_uriNtB7_10Cip0134UriINtNtCs66KPHxksi63_4core7convert7TryFromRShE8try_from0B9_
FNDA:0,_RNvXs0_NtCsaaQWVZq1tay_24cardano_blockchain_types10cip134_uriNtB5_10Cip0134UriINtNtCs66KPHxksi63_4core7convert7TryFromRShE8try_from
FNDA:6,_RNvMNtCsaaQWVZq1tay_24cardano_blockchain_types10cip134_uriNtB2_10Cip0134Uri7address
FNDA:1,_RNvNtNtCsaaQWVZq1tay_24cardano_blockchain_types10cip134_uri5testss_13stake_address
FNDA:1,_RNvNtNtCsaaQWVZq1tay_24cardano_blockchain_types10cip134_uri5testss_14invalid_bech32
FNDA:1,_RNvNtNtCsaaQWVZq1tay_24cardano_blockchain_types10cip134_uri5testss_14invalid_prefix
FNDA:1,_RNvNtNtCsaaQWVZq1tay_24cardano_blockchain_types10cip134_uri5testss_15shelley_address
FNDA:1,_RNvNtNtCsaaQWVZq1tay_24cardano_blockchain_types10cip134_uri5testss_7display
FNF:12
FNH:10
DA:39,12
DA:40,12
DA:41,12
DA:42,12
DA:43,8
DA:45,7
DA:46,7
DA:47,7
DA:48,7
DA:49,12
DA:63,1
DA:64,1
DA:65,1
DA:83,6
DA:84,6
DA:85,6
DA:89,1
DA:90,1
DA:91,1
DA:92,1
DA:93,1
DA:94,1
DA:100,0
DA:101,0
DA:102,0
DA:103,0
DA:104,0
DA:114,1
DA:116,1
DA:117,1
DA:118,1
DA:119,1
DA:120,1
DA:121,1
DA:124,5
DA:125,4
DA:126,4
DA:128,1
DA:131,1
DA:132,1
DA:133,1
DA:134,1
DA:135,1
DA:138,1
DA:139,1
DA:140,1
DA:141,1
DA:142,1
DA:143,1
DA:144,1
DA:145,1
DA:146,1
DA:147,1
DA:148,1
DA:149,1
DA:150,1
DA:151,1
DA:152,1
DA:153,1
DA:154,1
DA:155,1
DA:157,4
DA:158,3
DA:159,3
DA:160,0
DA:162,3
DA:163,3
DA:165,1
DA:168,1
DA:169,1
DA:170,1
DA:171,1
DA:172,1
DA:173,1
DA:174,1
DA:175,1
DA:176,1
DA:177,1
DA:178,1
DA:179,1
DA:180,1
DA:181,1
DA:182,1
DA:184,4
DA:185,3
DA:186,3
DA:187,0
DA:189,3
DA:191,1
DA:195,1
DA:196,1
DA:197,1
DA:198,1
DA:199,1
BRF:0
BRH:0
LF:96
LH:88
end_of_record
SF:/root/build/cardano-blockchain-types/src/fork.rs
FN:83,_RNvXs0_NtCsaaQWVZq1tay_24cardano_blockchain_types4forkNtB5_4ForkINtNtCs66KPHxksi63_4core7convert4FromyE4from
FN:44,_RINvMNtCsaaQWVZq1tay_24cardano_blockchain_types4forkNtB3_4Fork15from_saturatingpEB5_
FN:33,_RNvMNtCsaaQWVZq1tay_24cardano_blockchain_types4forkNtB2_4Fork11is_backfill
FN:27,_RNvMNtCsaaQWVZq1tay_24cardano_blockchain_types4forkNtB2_4Fork12is_immutable
FN:63,_RNvMNtCsaaQWVZq1tay_24cardano_blockchain_types4forkNtB2_4Fork4decr
FN:58,_RNvMNtCsaaQWVZq1tay_24cardano_blockchain_types4forkNtB2_4Fork4incr
FN:39,_RNvMNtCsaaQWVZq1tay_24cardano_blockchain_types4forkNtB2_4Fork7is_live
FN:89,_RNvXs1_NtCsaaQWVZq1tay_24cardano_blockchain_types4forkyINtNtCs66KPHxksi63_4core7convert4FromNtB5_4ForkE4from
FN:69,_RNvXs_NtCsaaQWVZq1tay_24cardano_blockchain_types4forkNtB4_4ForkNtNtCs66KPHxksi63_4core3fmt7Display3fmt
FNDA:32,_RNvXs0_NtCsaaQWVZq1tay_24cardano_blockchain_types4forkNtB5_4ForkINtNtCs66KPHxksi63_4core7convert4FromyE4from
FNDA:0,_RINvMNtCsaaQWVZq1tay_24cardano_blockchain_types4forkNtB3_4Fork15from_saturatingpEB5_
FNDA:0,_RNvMNtCsaaQWVZq1tay_24cardano_blockchain_types4forkNtB2_4Fork11is_backfill
FNDA:0,_RNvMNtCsaaQWVZq1tay_24cardano_blockchain_types4forkNtB2_4Fork12is_immutable
FNDA:0,_RNvMNtCsaaQWVZq1tay_24cardano_blockchain_types4forkNtB2_4Fork4decr
FNDA:0,_RNvMNtCsaaQWVZq1tay_24cardano_blockchain_types4forkNtB2_4Fork4incr
FNDA:0,_RNvMNtCsaaQWVZq1tay_24cardano_blockchain_types4forkNtB2_4Fork7is_live
FNDA:0,_RNvXs1_NtCsaaQWVZq1tay_24cardano_blockchain_types4forkyINtNtCs66KPHxksi63_4core7convert4FromNtB5_4ForkE4from
FNDA:0,_RNvXs_NtCsaaQWVZq1tay_24cardano_blockchain_types4forkNtB4_4ForkNtNtCs66KPHxksi63_4core3fmt7Display3fmt
FNF:9
FNH:1
DA:27,0
DA:28,0
DA:29,0
DA:33,0
DA:34,0
DA:35,0
DA:39,0
DA:40,0
DA:41,0
DA:44,0
DA:45,0
DA:46,0
DA:47,0
DA:48,0
DA:49,0
DA:50,0
DA:51,0
DA:52,0
DA:53,0
DA:54,0
DA:55,0
DA:58,0
DA:59,0
DA:60,0
DA:63,0
DA:64,0
DA:65,0
DA:69,0
DA:70,0
DA:71,0
DA:72,0
DA:73,0
DA:74,0
DA:75,0
DA:77,0
DA:79,0
DA:83,32
DA:84,32
DA:85,32
DA:89,0
DA:90,0
DA:91,0
BRF:0
BRH:0
LF:42
LH:3
end_of_record
SF:/root/build/cardano-blockchain-types/src/hashes/hash_wrapper.rs
FN:44,_RNvXs0_NtNtNtCsaaQWVZq1tay_24cardano_blockchain_types6hashes12hash_wrapper5testsINtNtCs8Ty2CzGA6U3_5alloc3vec3VechEINtNtCs66KPHxksi63_4core7convert4FromNtB5_2H1E4from
FN:32,_RNvMNtNtNtCsaaQWVZq1tay_24cardano_blockchain_types6hashes12hash_wrapper5testsNtB2_2H13new
FN:124,_RNvNtNtNtCsaaQWVZq1tay_24cardano_blockchain_types6hashes12hash_wrapper5testss_12hash_wrapper
FN:138,_RNvNtNtNtCsaaQWVZq1tay_24cardano_blockchain_types6hashes12hash_wrapper5testss_7display
FN:58,_RNvXs2_NtNtNtCsaaQWVZq1tay_24cardano_blockchain_types6hashes12hash_wrapper5testsNtB5_2H1INtNtCs66KPHxksi63_4core7convert7TryFromRShE8try_from
FN:66,_RNvXs3_NtNtNtCsaaQWVZq1tay_24cardano_blockchain_types6hashes12hash_wrapper5testsNtB5_2H1INtNtCs66KPHxksi63_4core7convert7TryFromINtNtCs8Ty2CzGA6U3_5alloc3vec3VechEE8try_from
FN:38,_RNvXs_NtNtNtCsaaQWVZq1tay_24cardano_blockchain_types6hashes12hash_wrapper5testsNtB4_2H1NtNtCs66KPHxksi63_4core3fmt7Display3fmt
FN:81,_RINvXININtCsaaQWVZq1tay_24cardano_blockchain_types6hashessi_0pENtB6_13TransactionIdINtNtCs906yGzbw5oA_8minicbor6encode6EncodepE6encodepEB8_
FN:81,_RINvXININtCsaaQWVZq1tay_24cardano_blockchain_types6hashessr_0pENtB6_10PubKeyHashINtNtCs906yGzbw5oA_8minicbor6encode6EncodepE6encodepEB8_
FN:81,_RINvXININtNtNtCsaaQWVZq1tay_24cardano_blockchain_types6hashes12hash_wrapper5testss5_0pENtB6_2H1INtNtCs906yGzbw5oA_8minicbor6encode6EncodepE6encodepEBc_
FN:81,_RINvXININtNtNtCsaaQWVZq1tay_24cardano_blockchain_types6hashes12hash_wrapper5testssF_0pENtB6_2H3INtNtCs906yGzbw5oA_8minicbor6encode6EncodepE6encodepEBc_
FN:81,_RINvXININtNtNtCsaaQWVZq1tay_24cardano_blockchain_types6hashes12hash_wrapper5testssO_0pENtB6_2H4INtNtCs906yGzbw5oA_8minicbor6encode6EncodepE6encodepEBc_
FN:81,_RINvXININtNtNtCsaaQWVZq1tay_24cardano_blockchain_types6hashes12hash_wrapper5testssX_0pENtB6_2H5INtNtCs906yGzbw5oA_8minicbor6encode6EncodepE6encodepEBc_
FN:81,_RINvXININtNtNtCsaaQWVZq1tay_24cardano_blockchain_types6hashes12hash_wrapper5testssn_0pENtB6_2H2INtNtCs906yGzbw5oA_8minicbor6encode6EncodepE6encodepEBc_
FN:32,_RNvMsH_NtNtNtCsaaQWVZq1tay_24cardano_blockchain_types6hashes12hash_wrapper5testsNtB5_2H43new
FN:32,_RNvMsQ_NtNtNtCsaaQWVZq1tay_24cardano_blockchain_types6hashes12hash_wrapper5testsNtB5_2H53new
FN:32,_RNvMsb_NtCsaaQWVZq1tay_24cardano_blockchain_types6hashesNtB5_13TransactionId3new
FN:32,_RNvMsg_NtNtNtCsaaQWVZq1tay_24cardano_blockchain_types6hashes12hash_wrapper5testsNtB5_2H23new
FN:32,_RNvMsk_NtCsaaQWVZq1tay_24cardano_blockchain_types6hashesNtB5_10PubKeyHash3new
FN:32,_RNvMsy_NtNtNtCsaaQWVZq1tay_24cardano_blockchain_types6hashes12hash_wrapper5testsNtB5_2H33new
FN:89,_RNvXININtCsaaQWVZq1tay_24cardano_blockchain_types6hashessj_0pENtB5_13TransactionIdINtNtCs906yGzbw5oA_8minicbor6decode6DecodepE6decodeB7_
FN:89,_RNvXININtCsaaQWVZq1tay_24cardano_blockchain_types6hashesss_0pENtB5_10PubKeyHashINtNtCs906yGzbw5oA_8minicbor6decode6DecodepE6decodeB7_
FN:89,_RNvXININtNtNtCsaaQWVZq1tay_24cardano_blockchain_types6hashes12hash_wrapper5testss6_0pENtB5_2H1INtNtCs906yGzbw5oA_8minicbor6decode6DecodepE6decodeBb_
FN:89,_RNvXININtNtNtCsaaQWVZq1tay_24cardano_blockchain_types6hashes12hash_wrapper5testssG_0pENtB5_2H3INtNtCs906yGzbw5oA_8minicbor6decode6DecodepE6decodeBb_
FN:89,_RNvXININtNtNtCsaaQWVZq1tay_24cardano_blockchain_types6hashes12hash_wrapper5testssP_0pENtB5_2H4INtNtCs906yGzbw5oA_8minicbor6decode6DecodepE6decodeBb_
FN:89,_RNvXININtNtNtCsaaQWVZq1tay_24cardano_blockchain_types6hashes12hash_wrapper5testssY_0pENtB5_2H5INtNtCs906yGzbw5oA_8minicbor6decode6DecodepE6decodeBb_
FN:89,_RNvXININtNtNtCsaaQWVZq1tay_24cardano_blockchain_types6hashes12hash_wrapper5testsso_0pENtB5_2H2INtNtCs906yGzbw5oA_8minicbor6decode6DecodepE6decodeBb_
FN:50,_RNvXs1_NtNtNtCsaaQWVZq1tay_24cardano_blockchain_types6hashes12hash_wrapper5testsNtB5_2H1INtNtCs66KPHxksi63_4core7convert4FromINtB9_11Blake2bHashKj10_EE4from
FN:74,_RNvXs4_NtNtNtCsaaQWVZq1tay_24cardano_blockchain_types6hashes12hash_wrapper5testsNtB5_2H1NtNtNtCs66KPHxksi63_4core3str6traits7FromStr8from_str
FN:44,_RNvXsA_NtNtNtCsaaQWVZq1tay_24cardano_blockchain_types6hashes12hash_wrapper5testsINtNtCs8Ty2CzGA6U3_5alloc3vec3VechEINtNtCs66KPHxksi63_4core7convert4FromNtB5_2H3E4from
FN:50,_RNvXsB_NtNtNtCsaaQWVZq1tay_24cardano_blockchain_types6hashes12hash_wrapper5testsNtB5_2H3INtNtCs66KPHxksi63_4core7convert4FromINtB9_11Blake2bHashKj10_EE4from
FN:58,_RNvXsC_NtNtNtCsaaQWVZq1tay_24cardano_blockchain_types6hashes12hash_wrapper5testsNtB5_2H3INtNtCs66KPHxksi63_4core7convert7TryFromRShE8try_from
FN:66,_RNvXsD_NtNtNtCsaaQWVZq1tay_24cardano_blockchain_types6hashes12hash_wrapper5testsNtB5_2H3INtNtCs66KPHxksi63_4core7convert7TryFromINtNtCs8Ty2CzGA6U3_5alloc3vec3VechEE8try_from
FN:74,_RNvXsE_NtNtNtCsaaQWVZq1tay_24cardano_blockchain_types6hashes12hash_wrapper5testsNtB5_2H3NtNtNtCs66KPHxksi63_4core3str6traits7FromStr8from_str
FN:38,_RNvXsI_NtNtNtCsaaQWVZq1tay_24cardano_blockchain_types6hashes12hash_wrapper5testsNtB5_2H4NtNtCs66KPHxksi63_4core3fmt7Display3fmt
FN:44,_RNvXsJ_NtNtNtCsaaQWVZq1tay_24cardano_blockchain_types6hashes12hash_wrapper5testsINtNtCs8Ty2CzGA6U3_5alloc3vec3VechEINtNtCs66KPHxksi63_4core7convert4FromNtB5_2H4E4from
FN:50,_RNvXsK_NtNtNtCsaaQWVZq1tay_24cardano_blockchain_types6hashes12hash_wrapper5testsNtB5_2H4INtNtCs66KPHxksi63_4core7convert4FromINtB9_11Blake2bHashKj10_EE4from
FN:58,_RNvXsL_NtNtNtCsaaQWVZq1tay_24cardano_blockchain_types6hashes12hash_wrapper5testsNtB5_2H4INtNtCs66KPHxksi63_4core7convert7TryFromRShE8try_from
FN:66,_RNvXsM_NtNtNtCsaaQWVZq1tay_24cardano_blockchain_types6hashes12hash_wrapper5testsNtB5_2H4INtNtCs66KPHxksi63_4core7convert7TryFromINtNtCs8Ty2CzGA6U3_5alloc3vec3VechEE8try_from
FN:74,_RNvXsN_NtNtNtCsaaQWVZq1tay_24cardano_blockchain_types6hashes12hash_wrapper5testsNtB5_2H4NtNtNtCs66KPHxksi63_4core3str6traits7FromStr8from_str
FN:38,_RNvXsR_NtNtNtCsaaQWVZq1tay_24cardano_blockchain_types6hashes12hash_wrapper5testsNtB5_2H5NtNtCs66KPHxksi63_4core3fmt7Display3fmt
FN:44,_RNvXsS_NtNtNtCsaaQWVZq1tay_24cardano_blockchain_types6hashes12hash_wrapper5testsINtNtCs8Ty2CzGA6U3_5alloc3vec3VechEINtNtCs66KPHxksi63_4core7convert4FromNtB5_2H5E4from
FN:50,_RNvXsT_NtNtNtCsaaQWVZq1tay_24cardano_blockchain_types6hashes12hash_wrapper5testsNtB5_2H5INtNtCs66KPHxksi63_4core7convert4FromINtB9_11Blake2bHashKj10_EE4from
FN:58,_RNvXsU_NtNtNtCsaaQWVZq1tay_24cardano_blockchain_types6hashes12hash_wrapper5testsNtB5_2H5INtNtCs66KPHxksi63_4core7convert7TryFromRShE8try_from
FN:66,_RNvXsV_NtNtNtCsaaQWVZq1tay_24cardano_blockchain_types6hashes12hash_wrapper5testsNtB5_2H5INtNtCs66KPHxksi63_4core7convert7TryFromINtNtCs8Ty2CzGA6U3_5alloc3vec3VechEE8try_from
FN:74,_RNvXsW_NtNtNtCsaaQWVZq1tay_24cardano_blockchain_types6hashes12hash_wrapper5testsNtB5_2H5NtNtNtCs66KPHxksi63_4core3str6traits7FromStr8from_str
FN:38,_RNvXsc_NtCsaaQWVZq1tay_24cardano_blockchain_types6hashesNtB5_13TransactionIdNtNtCs66KPHxksi63_4core3fmt7Display3fmt
FN:44,_RNvXsd_NtCsaaQWVZq1tay_24cardano_blockchain_types6hashesINtNtCs8Ty2CzGA6U3_5alloc3vec3VechEINtNtCs66KPHxksi63_4core7convert4FromNtB5_13TransactionIdE4from
FN:50,_RNvXse_NtCsaaQWVZq1tay_24cardano_blockchain_types6hashesNtB5_13TransactionIdINtNtCs66KPHxksi63_4core7convert4FromINtB5_11Blake2bHashKj20_EE4from
FN:58,_RNvXsf_NtCsaaQWVZq1tay_24cardano_blockchain_types6hashesNtB5_13TransactionIdINtNtCs66KPHxksi63_4core7convert7TryFromRShE8try_from
FN:66,_RNvXsg_NtCsaaQWVZq1tay_24cardano_blockchain_types6hashesNtB5_13TransactionIdINtNtCs66KPHxksi63_4core7convert7TryFromINtNtCs8Ty2CzGA6U3_5alloc3vec3VechEE8try_from
FN:74,_RNvXsh_NtCsaaQWVZq1tay_24cardano_blockchain_types6hashesNtB5_13TransactionIdNtNtNtCs66KPHxksi63_4core3str6traits7FromStr8from_str
FN:38,_RNvXsh_NtNtNtCsaaQWVZq1tay_24cardano_blockchain_types6hashes12hash_wrapper5testsNtB5_2H2NtNtCs66KPHxksi63_4core3fmt7Display3fmt
FN:44,_RNvXsi_NtNtNtCsaaQWVZq1tay_24cardano_blockchain_types6hashes12hash_wrapper5testsINtNtCs8Ty2CzGA6U3_5alloc3vec3VechEINtNtCs66KPHxksi63_4core7convert4FromNtB5_2H2E4from
FN:50,_RNvXsj_NtNtNtCsaaQWVZq1tay_24cardano_blockchain_types6hashes12hash_wrapper5testsNtB5_2H2INtNtCs66KPHxksi63_4core7convert4FromINtB9_11Blake2bHashKj10_EE4from
FN:58,_RNvXsk_NtNtNtCsaaQWVZq1tay_24cardano_blockchain_types6hashes12hash_wrapper5testsNtB5_2H2INtNtCs66KPHxksi63_4core7convert7TryFromRShE8try_from
FN:38,_RNvXsl_NtCsaaQWVZq1tay_24cardano_blockchain_types6hashesNtB5_10PubKeyHashNtNtCs66KPHxksi63_4core3fmt7Display3fmt
FN:66,_RNvXsl_NtNtNtCsaaQWVZq1tay_24cardano_blockchain_types6hashes12hash_wrapper5testsNtB5_2H2INtNtCs66KPHxksi63_4core7convert7TryFromINtNtCs8Ty2CzGA6U3_5alloc3vec3VechEE8try_from
FN:44,_RNvXsm_NtCsaaQWVZq1tay_24cardano_blockchain_types6hashesINtNtCs8Ty2CzGA6U3_5alloc3vec3VechEINtNtCs66KPHxksi63_4core7convert4FromNtB5_10PubKeyHashE4from
FN:74,_RNvXsm_NtNtNtCsaaQWVZq1tay_24cardano_blockchain_types6hashes12hash_wrapper5testsNtB5_2H2NtNtNtCs66KPHxksi63_4core3str6traits7FromStr8from_str
FN:50,_RNvXsn_NtCsaaQWVZq1tay_24cardano_blockchain_types6hashesNtB5_10PubKeyHashINtNtCs66KPHxksi63_4core7convert4FromINtB5_11Blake2bHashKj1c_EE4from
FN:58,_RNvXso_NtCsaaQWVZq1tay_24cardano_blockchain_types6hashesNtB5_10PubKeyHashINtNtCs66KPHxksi63_4core7convert7TryFromRShE8try_from
FN:66,_RNvXsp_NtCsaaQWVZq1tay_24cardano_blockchain_types6hashesNtB5_10PubKeyHashINtNtCs66KPHxksi63_4core7convert7TryFromINtNtCs8Ty2CzGA6U3_5alloc3vec3VechEE8try_from
FN:74,_RNvXsq_NtCsaaQWVZq1tay_24cardano_blockchain_types6hashesNtB5_10PubKeyHashNtNtNtCs66KPHxksi63_4core3str6traits7FromStr8from_str
FN:38,_RNvXsz_NtNtNtCsaaQWVZq1tay_24cardano_blockchain_types6hashes12hash_wrapper5testsNtB5_2H3NtNtCs66KPHxksi63_4core3fmt7Display3fmt
FNDA:1,_RNvXs0_NtNtNtCsaaQWVZq1tay_24cardano_blockchain_types6hashes12hash_wrapper5testsINtNtCs8Ty2CzGA6U3_5alloc3vec3VechEINtNtCs66KPHxksi63_4core7convert4FromNtB5_2H1E4from
FNDA:2,_RNvMNtNtNtCsaaQWVZq1tay_24cardano_blockchain_types6hashes12hash_wrapper5testsNtB2_2H13new
FNDA:1,_RNvNtNtNtCsaaQWVZq1tay_24cardano_blockchain_types6hashes12hash_wrapper5testss_12hash_wrapper
FNDA:1,_RNvNtNtNtCsaaQWVZq1tay_24cardano_blockchain_types6hashes12hash_wrapper5testss_7display
FNDA:2,_RNvXs2_NtNtNtCsaaQWVZq1tay_24cardano_blockchain_types6hashes12hash_wrapper5testsNtB5_2H1INtNtCs66KPHxksi63_4core7convert7TryFromRShE8try_from
FNDA:1,_RNvXs3_NtNtNtCsaaQWVZq1tay_24cardano_blockchain_types6hashes12hash_wrapper5testsNtB5_2H1INtNtCs66KPHxksi63_4core7convert7TryFromINtNtCs8Ty2CzGA6U3_5alloc3vec3VechEE8try_from
FNDA:1,_RNvXs_NtNtNtCsaaQWVZq1tay_24cardano_blockchain_types6hashes12hash_wrapper5testsNtB4_2H1NtNtCs66KPHxksi63_4core3fmt7Display3fmt
FNDA:0,_RINvXININtCsaaQWVZq1tay_24cardano_blockchain_types6hashessi_0pENtB6_13TransactionIdINtNtCs906yGzbw5oA_8minicbor6encode6EncodepE6encodepEB8_
FNDA:0,_RINvXININtCsaaQWVZq1tay_24cardano_blockchain_types6hashessr_0pENtB6_10PubKeyHashINtNtCs906yGzbw5oA_8minicbor6encode6EncodepE6encodepEB8_
FNDA:0,_RINvXININtNtNtCsaaQWVZq1tay_24cardano_blockchain_types6hashes12hash_wrapper5testss5_0pENtB6_2H1INtNtCs906yGzbw5oA_8minicbor6encode6EncodepE6encodepEBc_
FNDA:0,_RINvXININtNtNtCsaaQWVZq1tay_24cardano_blockchain_types6hashes12hash_wrapper5testssF_0pENtB6_2H3INtNtCs906yGzbw5oA_8minicbor6encode6EncodepE6encodepEBc_
FNDA:0,_RINvXININtNtNtCsaaQWVZq1tay_24cardano_blockchain_types6hashes12hash_wrapper5testssO_0pENtB6_2H4INtNtCs906yGzbw5oA_8minicbor6encode6EncodepE6encodepEBc_
FNDA:0,_RINvXININtNtNtCsaaQWVZq1tay_24cardano_blockchain_types6hashes12hash_wrapper5testssX_0pENtB6_2H5INtNtCs906yGzbw5oA_8minicbor6encode6EncodepE6encodepEBc_
FNDA:0,_RINvXININtNtNtCsaaQWVZq1tay_24cardano_blockchain_types6hashes12hash_wrapper5testssn_0pENtB6_2H2INtNtCs906yGzbw5oA_8minicbor6encode6EncodepE6encodepEBc_
FNDA:0,_RNvMsH_NtNtNtCsaaQWVZq1tay_24cardano_blockchain_types6hashes12hash_wrapper5testsNtB5_2H43new
FNDA:0,_RNvMsQ_NtNtNtCsaaQWVZq1tay_24cardano_blockchain_types6hashes12hash_wrapper5testsNtB5_2H53new
FNDA:0,_RNvMsb_NtCsaaQWVZq1tay_24cardano_blockchain_types6hashesNtB5_13TransactionId3new
FNDA:0,_RNvMsg_NtNtNtCsaaQWVZq1tay_24cardano_blockchain_types6hashes12hash_wrapper5testsNtB5_2H23new
FNDA:0,_RNvMsk_NtCsaaQWVZq1tay_24cardano_blockchain_types6hashesNtB5_10PubKeyHash3new
FNDA:0,_RNvMsy_NtNtNtCsaaQWVZq1tay_24cardano_blockchain_types6hashes12hash_wrapper5testsNtB5_2H33new
FNDA:0,_RNvXININtCsaaQWVZq1tay_24cardano_blockchain_types6hashessj_0pENtB5_13TransactionIdINtNtCs906yGzbw5oA_8minicbor6decode6DecodepE6decodeB7_
FNDA:0,_RNvXININtCsaaQWVZq1tay_24cardano_blockchain_types6hashesss_0pENtB5_10PubKeyHashINtNtCs906yGzbw5oA_8minicbor6decode6DecodepE6decodeB7_
FNDA:0,_RNvXININtNtNtCsaaQWVZq1tay_24cardano_blockchain_types6hashes12hash_wrapper5testss6_0pENtB5_2H1INtNtCs906yGzbw5oA_8minicbor6decode6DecodepE6decodeBb_
FNDA:0,_RNvXININtNtNtCsaaQWVZq1tay_24cardano_blockchain_types6hashes12hash_wrapper5testssG_0pENtB5_2H3INtNtCs906yGzbw5oA_8minicbor6decode6DecodepE6decodeBb_
FNDA:0,_RNvXININtNtNtCsaaQWVZq1tay_24cardano_blockchain_types6hashes12hash_wrapper5testssP_0pENtB5_2H4INtNtCs906yGzbw5oA_8minicbor6decode6DecodepE6decodeBb_
FNDA:0,_RNvXININtNtNtCsaaQWVZq1tay_24cardano_blockchain_types6hashes12hash_wrapper5testssY_0pENtB5_2H5INtNtCs906yGzbw5oA_8minicbor6decode6DecodepE6decodeBb_
FNDA:0,_RNvXININtNtNtCsaaQWVZq1tay_24cardano_blockchain_types6hashes12hash_wrapper5testsso_0pENtB5_2H2INtNtCs906yGzbw5oA_8minicbor6decode6DecodepE6decodeBb_
FNDA:0,_RNvXs1_NtNtNtCsaaQWVZq1tay_24cardano_blockchain_types6hashes12hash_wrapper5testsNtB5_2H1INtNtCs66KPHxksi63_4core7convert4FromINtB9_11Blake2bHashKj10_EE4from
FNDA:0,_RNvXs4_NtNtNtCsaaQWVZq1tay_24cardano_blockchain_types6hashes12hash_wrapper5testsNtB5_2H1NtNtNtCs66KPHxksi63_4core3str6traits7FromStr8from_str
FNDA:0,_RNvXsA_NtNtNtCsaaQWVZq1tay_24cardano_blockchain_types6hashes12hash_wrapper5testsINtNtCs8Ty2CzGA6U3_5alloc3vec3VechEINtNtCs66KPHxksi63_4core7convert4FromNtB5_2H3E4from
FNDA:0,_RNvXsB_NtNtNtCsaaQWVZq1tay_24cardano_blockchain_types6hashes12hash_wrapper5testsNtB5_2H3INtNtCs66KPHxksi63_4core7convert4FromINtB9_11Blake2bHashKj10_EE4from
FNDA:0,_RNvXsC_NtNtNtCsaaQWVZq1tay_24cardano_blockchain_types6hashes12hash_wrapper5testsNtB5_2H3INtNtCs66KPHxksi63_4core7convert7TryFromRShE8try_from
FNDA:0,_RNvXsD_NtNtNtCsaaQWVZq1tay_24cardano_blockchain_types6hashes12hash_wrapper5testsNtB5_2H3INtNtCs66KPHxksi63_4core7convert7TryFromINtNtCs8Ty2CzGA6U3_5alloc3vec3VechEE8try_from
FNDA:0,_RNvXsE_NtNtNtCsaaQWVZq1tay_24cardano_blockchain_types6hashes12hash_wrapper5testsNtB5_2H3NtNtNtCs66KPHxksi63_4core3str6traits7FromStr8from_str
FNDA:0,_RNvXsI_NtNtNtCsaaQWVZq1tay_24cardano_blockchain_types6hashes12hash_wrapper5testsNtB5_2H4NtNtCs66KPHxksi63_4core3fmt7Display3fmt
FNDA:0,_RNvXsJ_NtNtNtCsaaQWVZq1tay_24cardano_blockchain_types6hashes12hash_wrapper5testsINtNtCs8Ty2CzGA6U3_5alloc3vec3VechEINtNtCs66KPHxksi63_4core7convert4FromNtB5_2H4E4from
FNDA:0,_RNvXsK_NtNtNtCsaaQWVZq1tay_24cardano_blockchain_types6hashes12hash_wrapper5testsNtB5_2H4INtNtCs66KPHxksi63_4core7convert4FromINtB9_11Blake2bHashKj10_EE4from
FNDA:0,_RNvXsL_NtNtNtCsaaQWVZq1tay_24cardano_blockchain_types6hashes12hash_wrapper5testsNtB5_2H4INtNtCs66KPHxksi63_4core7convert7TryFromRShE8try_from
FNDA:0,_RNvXsM_NtNtNtCsaaQWVZq1tay_24cardano_blockchain_types6hashes12hash_wrapper5testsNtB5_2H4INtNtCs66KPHxksi63_4core7convert7TryFromINtNtCs8Ty2CzGA6U3_5alloc3vec3VechEE8try_from
FNDA:0,_RNvXsN_NtNtNtCsaaQWVZq1tay_24cardano_blockchain_types6hashes12hash_wrapper5testsNtB5_2H4NtNtNtCs66KPHxksi63_4core3str6traits7FromStr8from_str
FNDA:0,_RNvXsR_NtNtNtCsaaQWVZq1tay_24cardano_blockchain_types6hashes12hash_wrapper5testsNtB5_2H5NtNtCs66KPHxksi63_4core3fmt7Display3fmt
FNDA:0,_RNvXsS_NtNtNtCsaaQWVZq1tay_24cardano_blockchain_types6hashes12hash_wrapper5testsINtNtCs8Ty2CzGA6U3_5alloc3vec3VechEINtNtCs66KPHxksi63_4core7convert4FromNtB5_2H5E4from
FNDA:0,_RNvXsT_NtNtNtCsaaQWVZq1tay_24cardano_blockchain_types6hashes12hash_wrapper5testsNtB5_2H5INtNtCs66KPHxksi63_4core7convert4FromINtB9_11Blake2bHashKj10_EE4from
FNDA:0,_RNvXsU_NtNtNtCsaaQWVZq1tay_24cardano_blockchain_types6hashes12hash_wrapper5testsNtB5_2H5INtNtCs66KPHxksi63_4core7convert7TryFromRShE8try_from
FNDA:0,_RNvXsV_NtNtNtCsaaQWVZq1tay_24cardano_blockchain_types6hashes12hash_wrapper5testsNtB5_2H5INtNtCs66KPHxksi63_4core7convert7TryFromINtNtCs8Ty2CzGA6U3_5alloc3vec3VechEE8try_from
FNDA:0,_RNvXsW_NtNtNtCsaaQWVZq1tay_24cardano_blockchain_types6hashes12hash_wrapper5testsNtB5_2H5NtNtNtCs66KPHxksi63_4core3str6traits7FromStr8from_str
FNDA:0,_RNvXsc_NtCsaaQWVZq1tay_24cardano_blockchain_types6hashesNtB5_13TransactionIdNtNtCs66KPHxksi63_4core3fmt7Display3fmt
FNDA:0,_RNvXsd_NtCsaaQWVZq1tay_24cardano_blockchain_types6hashesINtNtCs8Ty2CzGA6U3_5alloc3vec3VechEINtNtCs66KPHxksi63_4core7convert4FromNtB5_13TransactionIdE4from
FNDA:0,_RNvXse_NtCsaaQWVZq1tay_24cardano_blockchain_types6hashesNtB5_13TransactionIdINtNtCs66KPHxksi63_4core7convert4FromINtB5_11Blake2bHashKj20_EE4from
FNDA:0,_RNvXsf_NtCsaaQWVZq1tay_24cardano_blockchain_types6hashesNtB5_13TransactionIdINtNtCs66KPHxksi63_4core7convert7TryFromRShE8try_from
FNDA:0,_RNvXsg_NtCsaaQWVZq1tay_24cardano_blockchain_types6hashesNtB5_13TransactionIdINtNtCs66KPHxksi63_4core7convert7TryFromINtNtCs8Ty2CzGA6U3_5alloc3vec3VechEE8try_from
FNDA:0,_RNvXsh_NtCsaaQWVZq1tay_24cardano_blockchain_types6hashesNtB5_13TransactionIdNtNtNtCs66KPHxksi63_4core3str6traits7FromStr8from_str
FNDA:0,_RNvXsh_NtNtNtCsaaQWVZq1tay_24cardano_blockchain_types6hashes12hash_wrapper5testsNtB5_2H2NtNtCs66KPHxksi63_4core3fmt7Display3fmt
FNDA:0,_RNvXsi_NtNtNtCsaaQWVZq1tay_24cardano_blockchain_types6hashes12hash_wrapper5testsINtNtCs8Ty2CzGA6U3_5alloc3vec3VechEINtNtCs66KPHxksi63_4core7convert4FromNtB5_2H2E4from
FNDA:0,_RNvXsj_NtNtNtCsaaQWVZq1tay_24cardano_blockchain_types6hashes12hash_wrapper5testsNtB5_2H2INtNtCs66KPHxksi63_4core7convert4FromINtB9_11Blake2bHashKj10_EE4from
FNDA:0,_RNvXsk_NtNtNtCsaaQWVZq1tay_24cardano_blockchain_types6hashes12hash_wrapper5testsNtB5_2H2INtNtCs66KPHxksi63_4core7convert7TryFromRShE8try_from
FNDA:0,_RNvXsl_NtCsaaQWVZq1tay_24cardano_blockchain_types6hashesNtB5_10PubKeyHashNtNtCs66KPHxksi63_4core3fmt7Display3fmt
FNDA:0,_RNvXsl_NtNtNtCsaaQWVZq1tay_24cardano_blockchain_types6hashes12hash_wrapper5testsNtB5_2H2INtNtCs66KPHxksi63_4core7convert7TryFromINtNtCs8Ty2CzGA6U3_5alloc3vec3VechEE8try_from
FNDA:0,_RNvXsm_NtCsaaQWVZq1tay_24cardano_blockchain_types6hashesINtNtCs8Ty2CzGA6U3_5alloc3vec3VechEINtNtCs66KPHxksi63_4core7convert4FromNtB5_10PubKeyHashE4from
FNDA:0,_RNvXsm_NtNtNtCsaaQWVZq1tay_24cardano_blockchain_types6hashes12hash_wrapper5testsNtB5_2H2NtNtNtCs66KPHxksi63_4core3str6traits7FromStr8from_str
FNDA:0,_RNvXsn_NtCsaaQWVZq1tay_24cardano_blockchain_types6hashesNtB5_10PubKeyHashINtNtCs66KPHxksi63_4core7convert4FromINtB5_11Blake2bHashKj1c_EE4from
FNDA:0,_RNvXso_NtCsaaQWVZq1tay_24cardano_blockchain_types6hashesNtB5_10PubKeyHashINtNtCs66KPHxksi63_4core7convert7TryFromRShE8try_from
FNDA:0,_RNvXsp_NtCsaaQWVZq1tay_24cardano_blockchain_types6hashesNtB5_10PubKeyHashINtNtCs66KPHxksi63_4core7convert7TryFromINtNtCs8Ty2CzGA6U3_5alloc3vec3VechEE8try_from
FNDA:0,_RNvXsq_NtCsaaQWVZq1tay_24cardano_blockchain_types6hashesNtB5_10PubKeyHashNtNtNtCs66KPHxksi63_4core3str6traits7FromStr8from_str
FNDA:0,_RNvXsz_NtNtNtCsaaQWVZq1tay_24cardano_blockchain_types6hashes12hash_wrapper5testsNtB5_2H3NtNtCs66KPHxksi63_4core3fmt7Display3fmt
FNF:11
FNH:7
DA:32,2
DA:33,2
DA:34,2
DA:38,1
DA:39,1
DA:40,1
DA:44,1
DA:45,1
DA:46,1
DA:50,0
DA:51,0
DA:52,0
DA:58,2
DA:59,2
DA:60,2
DA:66,1
DA:67,1
DA:68,1
DA:74,0
DA:75,0
DA:76,0
DA:77,0
DA:81,0
DA:82,0
DA:83,0
DA:84,0
DA:85,0
DA:89,0
DA:90,0
DA:91,0
DA:92,0
DA:93,0
DA:94,0
DA:124,1
DA:125,1
DA:127,1
DA:128,1
DA:129,1
DA:131,1
DA:132,1
DA:133,1
DA:138,1
DA:139,1
DA:140,1
DA:141,1
DA:142,1
DA:143,1
BRF:0
BRH:0
LF:47
LH:29
end_of_record
SF:/root/build/cardano-blockchain-types/src/hashes/mod.rs
FN:93,_RNvXs0_NtCsaaQWVZq1tay_24cardano_blockchain_types6hashesINtB5_11Blake2bHashKj20_EINtNtCs66KPHxksi63_4core7convert4FromINtNtNtCsla93c1KTxZB_13pallas_crypto4hash4hash4HashKB1c_EE4fromB7_
FN:100,_RNvXs1_NtCsaaQWVZq1tay_24cardano_blockchain_types6hashesINtNtNtCsla93c1KTxZB_13pallas_crypto4hash4hash4HashKj1c_EINtNtCs66KPHxksi63_4core7convert4FromINtB5_11Blake2bHashKB1I_EE4fromB7_
FN:106,_RNvXs2_NtCsaaQWVZq1tay_24cardano_blockchain_types6hashesINtNtCs8Ty2CzGA6U3_5alloc3vec3VechEINtNtCs66KPHxksi63_4core7convert4FromINtB5_11Blake2bHashKj10_EE4fromB7_
FN:67,_RNvMNtCsaaQWVZq1tay_24cardano_blockchain_types6hashesINtB2_11Blake2bHashKj10_E3newB4_
FN:67,_RNvMNtCsaaQWVZq1tay_24cardano_blockchain_types6hashesINtB2_11Blake2bHashKj1c_E3newB4_
FN:67,_RNvMNtCsaaQWVZq1tay_24cardano_blockchain_types6hashesINtB2_11Blake2bHashKj20_E3newB4_
FN:93,_RNvXs0_NtCsaaQWVZq1tay_24cardano_blockchain_types6hashesINtB5_11Blake2bHashKj10_EINtNtCs66KPHxksi63_4core7convert4FromINtNtNtCsla93c1KTxZB_13pallas_crypto4hash4hash4HashKB1c_EE4fromB7_
FN:106,_RNvXs2_NtCsaaQWVZq1tay_24cardano_blockchain_types6hashesINtNtCs8Ty2CzGA6U3_5alloc3vec3VechEINtNtCs66KPHxksi63_4core7convert4FromINtB5_11Blake2bHashKj20_EE4fromB7_
FN:115,_RNvXs3_NtCsaaQWVZq1tay_24cardano_blockchain_types6hashesINtB5_11Blake2bHashKj10_EINtNtCs66KPHxksi63_4core7convert7TryFromRShE8try_fromB7_
FN:115,_RNvXs3_NtCsaaQWVZq1tay_24cardano_blockchain_types6hashesINtB5_11Blake2bHashKj1c_EINtNtCs66KPHxksi63_4core7convert7TryFromRShE8try_fromB7_
FN:115,_RNvXs3_NtCsaaQWVZq1tay_24cardano_blockchain_types6hashesINtB5_11Blake2bHashKj20_EINtNtCs66KPHxksi63_4core7convert7TryFromRShE8try_fromB7_
FN:141,_RNvXs5_NtCsaaQWVZq1tay_24cardano_blockchain_types6hashesINtB5_11Blake2bHashKj20_EINtNtCs66KPHxksi63_4core7convert7TryFromINtNtCs8Ty2CzGA6U3_5alloc3vec3VechEE8try_fromB7_
FN:147,_RNvXs6_NtCsaaQWVZq1tay_24cardano_blockchain_types6hashesINtB5_11Blake2bHashKj10_ENtNtCs66KPHxksi63_4core3fmt5Debug3fmtB7_
FN:147,_RNvXs6_NtCsaaQWVZq1tay_24cardano_blockchain_types6hashesINtB5_11Blake2bHashKj1c_ENtNtCs66KPHxksi63_4core3fmt5Debug3fmtB7_
FN:147,_RNvXs6_NtCsaaQWVZq1tay_24cardano_blockchain_types6hashesINtB5_11Blake2bHashKj20_ENtNtCs66KPHxksi63_4core3fmt5Debug3fmtB7_
FN:156,_RNvXs7_NtCsaaQWVZq1tay_24cardano_blockchain_types6hashesINtB5_11Blake2bHashKj10_ENtNtCs66KPHxksi63_4core3fmt7Display3fmtB7_
FN:156,_RNvXs7_NtCsaaQWVZq1tay_24cardano_blockchain_types6hashesINtB5_11Blake2bHashKj1c_ENtNtCs66KPHxksi63_4core3fmt7Display3fmtB7_
FN:167,_RNvXs8_NtCsaaQWVZq1tay_24cardano_blockchain_types6hashesINtB5_11Blake2bHashKj1c_ENtNtNtCs66KPHxksi63_4core3str6traits7FromStr8from_strB7_
FN:85,_RNvXs_NtCsaaQWVZq1tay_24cardano_blockchain_types6hashesINtB4_11Blake2bHashKj10_EINtNtCs66KPHxksi63_4core7convert4FromAhB1b_E4fromB6_
FN:85,_RNvXs_NtCsaaQWVZq1tay_24cardano_blockchain_types6hashesINtB4_11Blake2bHashKj1c_EINtNtCs66KPHxksi63_4core7convert4FromAhB1b_E4fromB6_
FN:85,_RNvXs_NtCsaaQWVZq1tay_24cardano_blockchain_types6hashesINtB4_11Blake2bHashKj20_EINtNtCs66KPHxksi63_4core7convert4FromAhB1b_E4fromB6_
FN:200,_RNvNtNtCsaaQWVZq1tay_24cardano_blockchain_types6hashes5testss_22test_blake2b_hash_init
FN:212,_RNvNtNtCsaaQWVZq1tay_24cardano_blockchain_types6hashes5testss_28test_blake2b_hash_conversion
FN:225,_RNvNtNtCsaaQWVZq1tay_24cardano_blockchain_types6hashes5testss_32test_blake2b_hash_invalid_length
FN:106,_RNvXs2_NtCsaaQWVZq1tay_24cardano_blockchain_types6hashesINtNtCs8Ty2CzGA6U3_5alloc3vec3VechEINtNtCs66KPHxksi63_4core7convert4FromINtB5_11Blake2bHashKj1c_EE4fromB7_
FN:133,_RNvXs4_NtCsaaQWVZq1tay_24cardano_blockchain_types6hashesINtB5_11Blake2bHashKj1c_EINtNtCs66KPHxksi63_4core7convert7TryFromRINtNtCs8Ty2CzGA6U3_5alloc3vec3VechEE8try_fromB7_
FN:174,_RINvXININtCsaaQWVZq1tay_24cardano_blockchain_types6hashess9_0pKpEINtB6_11Blake2bHashKpEINtNtCs906yGzbw5oA_8minicbor6encode6EncodepE6encodepEB8_
FN:189,_RNCNvXININtCsaaQWVZq1tay_24cardano_blockchain_types6hashessa_0pKpEINtB7_11Blake2bHashKpEINtNtCs906yGzbw5oA_8minicbor6decode6DecodepE6decode0B9_
FN:184,_RNvXININtCsaaQWVZq1tay_24cardano_blockchain_types6hashessa_0pKpEINtB5_11Blake2bHashKpEINtNtCs906yGzbw5oA_8minicbor6decode6DecodepE6decodeB7_
FN:93,_RNvXs0_NtCsaaQWVZq1tay_24cardano_blockchain_types6hashesINtB5_11Blake2bHashKj1c_EINtNtCs66KPHxksi63_4core7convert4FromINtNtNtCsla93c1KTxZB_13pallas_crypto4hash4hash4HashKB1c_EE4fromB7_
FNDA:96,_RNvXs0_NtCsaaQWVZq1tay_24cardano_blockchain_types6hashesINtB5_11Blake2bHashKj20_EINtNtCs66KPHxksi63_4core7convert4FromINtNtNtCsla93c1KTxZB_13pallas_crypto4hash4hash4HashKB1c_EE4fromB7_
FNDA:18,_RNvXs1_NtCsaaQWVZq1tay_24cardano_blockchain_types6hashesINtNtNtCsla93c1KTxZB_13pallas_crypto4hash4hash4HashKj1c_EINtNtCs66KPHxksi63_4core7convert4FromINtB5_11Blake2bHashKB1I_EE4fromB7_
FNDA:1,_RNvXs2_NtCsaaQWVZq1tay_24cardano_blockchain_types6hashesINtNtCs8Ty2CzGA6U3_5alloc3vec3VechEINtNtCs66KPHxksi63_4core7convert4FromINtB5_11Blake2bHashKj10_EE4fromB7_
FNDA:3,_RNvMNtCsaaQWVZq1tay_24cardano_blockchain_types6hashesINtB2_11Blake2bHashKj10_E3newB4_
FNDA:238,_RNvMNtCsaaQWVZq1tay_24cardano_blockchain_types6hashesINtB2_11Blake2bHashKj1c_E3newB4_
FNDA:5,_RNvMNtCsaaQWVZq1tay_24cardano_blockchain_types6hashesINtB2_11Blake2bHashKj20_E3newB4_
FNDA:5,_RNvXs0_NtCsaaQWVZq1tay_24cardano_blockchain_types6hashesINtB5_11Blake2bHashKj10_EINtNtCs66KPHxksi63_4core7convert4FromINtNtNtCsla93c1KTxZB_13pallas_crypto4hash4hash4HashKB1c_EE4fromB7_
FNDA:92,_RNvXs2_NtCsaaQWVZq1tay_24cardano_blockchain_types6hashesINtNtCs8Ty2CzGA6U3_5alloc3vec3VechEINtNtCs66KPHxksi63_4core7convert4FromINtB5_11Blake2bHashKj20_EE4fromB7_
FNDA:2,_RNvXs3_NtCsaaQWVZq1tay_24cardano_blockchain_types6hashesINtB5_11Blake2bHashKj10_EINtNtCs66KPHxksi63_4core7convert7TryFromRShE8try_fromB7_
FNDA:4,_RNvXs3_NtCsaaQWVZq1tay_24cardano_blockchain_types6hashesINtB5_11Blake2bHashKj1c_EINtNtCs66KPHxksi63_4core7convert7TryFromRShE8try_fromB7_
FNDA:6,_RNvXs3_NtCsaaQWVZq1tay_24cardano_blockchain_types6hashesINtB5_11Blake2bHashKj20_EINtNtCs66KPHxksi63_4core7convert7TryFromRShE8try_fromB7_
FNDA:6,_RNvXs5_NtCsaaQWVZq1tay_24cardano_blockchain_types6hashesINtB5_11Blake2bHashKj20_EINtNtCs66KPHxksi63_4core7convert7TryFromINtNtCs8Ty2CzGA6U3_5alloc3vec3VechEE8try_fromB7_
FNDA:0,_RNvXs6_NtCsaaQWVZq1tay_24cardano_blockchain_types6hashesINtB5_11Blake2bHashKj10_ENtNtCs66KPHxksi63_4core3fmt5Debug3fmtB7_
FNDA:0,_RNvXs6_NtCsaaQWVZq1tay_24cardano_blockchain_types6hashesINtB5_11Blake2bHashKj1c_ENtNtCs66KPHxksi63_4core3fmt5Debug3fmtB7_
FNDA:0,_RNvXs6_NtCsaaQWVZq1tay_24cardano_blockchain_types6hashesINtB5_11Blake2bHashKj20_ENtNtCs66KPHxksi63_4core3fmt5Debug3fmtB7_
FNDA:1,_RNvXs7_NtCsaaQWVZq1tay_24cardano_blockchain_types6hashesINtB5_11Blake2bHashKj10_ENtNtCs66KPHxksi63_4core3fmt7Display3fmtB7_
FNDA:8,_RNvXs7_NtCsaaQWVZq1tay_24cardano_blockchain_types6hashesINtB5_11Blake2bHashKj1c_ENtNtCs66KPHxksi63_4core3fmt7Display3fmtB7_
FNDA:2,_RNvXs8_NtCsaaQWVZq1tay_24cardano_blockchain_types6hashesINtB5_11Blake2bHashKj1c_ENtNtNtCs66KPHxksi63_4core3str6traits7FromStr8from_strB7_
FNDA:3,_RNvXs_NtCsaaQWVZq1tay_24cardano_blockchain_types6hashesINtB4_11Blake2bHashKj10_EINtNtCs66KPHxksi63_4core7convert4FromAhB1b_E4fromB6_
FNDA:238,_RNvXs_NtCsaaQWVZq1tay_24cardano_blockchain_types6hashesINtB4_11Blake2bHashKj1c_EINtNtCs66KPHxksi63_4core7convert4FromAhB1b_E4fromB6_
FNDA:13,_RNvXs_NtCsaaQWVZq1tay_24cardano_blockchain_types6hashesINtB4_11Blake2bHashKj20_EINtNtCs66KPHxksi63_4core7convert4FromAhB1b_E4fromB6_
FNDA:1,_RNvNtNtCsaaQWVZq1tay_24cardano_blockchain_types6hashes5testss_22test_blake2b_hash_init
FNDA:1,_RNvNtNtCsaaQWVZq1tay_24cardano_blockchain_types6hashes5testss_28test_blake2b_hash_conversion
FNDA:1,_RNvNtNtCsaaQWVZq1tay_24cardano_blockchain_types6hashes5testss_32test_blake2b_hash_invalid_length
FNDA:1,_RNvXs2_NtCsaaQWVZq1tay_24cardano_blockchain_types6hashesINtNtCs8Ty2CzGA6U3_5alloc3vec3VechEINtNtCs66KPHxksi63_4core7convert4FromINtB5_11Blake2bHashKj1c_EE4fromB7_
FNDA:3,_RNvXs4_NtCsaaQWVZq1tay_24cardano_blockchain_types6hashesINtB5_11Blake2bHashKj1c_EINtNtCs66KPHxksi63_4core7convert7TryFromRINtNtCs8Ty2CzGA6U3_5alloc3vec3VechEE8try_fromB7_
FNDA:0,_RINvXININtCsaaQWVZq1tay_24cardano_blockchain_types6hashess9_0pKpEINtB6_11Blake2bHashKpEINtNtCs906yGzbw5oA_8minicbor6encode6EncodepE6encodepEB8_
FNDA:0,_RNCNvXININtCsaaQWVZq1tay_24cardano_blockchain_types6hashessa_0pKpEINtB7_11Blake2bHashKpEINtNtCs906yGzbw5oA_8minicbor6decode6DecodepE6decode0B9_
FNDA:0,_RNvXININtCsaaQWVZq1tay_24cardano_blockchain_types6hashessa_0pKpEINtB5_11Blake2bHashKpEINtNtCs906yGzbw5oA_8minicbor6decode6DecodepE6decodeB7_
FNDA:260,_RNvXs0_NtCsaaQWVZq1tay_24cardano_blockchain_types6hashesINtB5_11Blake2bHashKj1c_EINtNtCs66KPHxksi63_4core7convert4FromINtNtNtCsla93c1KTxZB_13pallas_crypto4hash4hash4HashKB1c_EE4fromB7_
FNF:17
FNH:13
DA:67,246
DA:68,246
DA:71,246
DA:73,246
DA:74,246
DA:77,246
DA:79,246
DA:80,246
DA:85,254
DA:86,254
DA:87,254
DA:88,254
DA:93,361
DA:94,361
DA:95,361
DA:100,18
DA:101,18
DA:102,18
DA:106,94
DA:107,94
DA:108,94
DA:115,12
DA:116,12
DA:117,2
DA:118,2
DA:119,2
DA:120,2
DA:121,10
DA:123,10
DA:124,10
DA:125,10
DA:126,10
DA:127,12
DA:133,3
DA:134,3
DA:135,3
DA:141,6
DA:142,6
DA:143,6
DA:147,0
DA:148,0
DA:149,0
DA:150,0
DA:151,0
DA:152,0
DA:156,9
DA:157,9
DA:158,9
DA:159,9
DA:160,9
DA:161,9
DA:167,2
DA:168,2
DA:169,2
DA:170,2
DA:174,0
DA:175,0
DA:176,0
DA:177,0
DA:178,0
DA:179,0
DA:180,0
DA:184,0
DA:185,0
DA:186,0
DA:187,0
DA:188,0
DA:189,0
DA:190,0
DA:191,0
DA:192,0
DA:200,1
DA:201,1
DA:202,1
DA:203,1
DA:204,1
DA:206,1
DA:207,1
DA:208,1
DA:209,1
DA:212,1
DA:213,1
DA:214,1
DA:216,1
DA:217,1
DA:218,1
DA:220,1
DA:221,1
DA:222,1
DA:225,1
DA:226,1
DA:227,1
DA:228,1
DA:230,1
DA:231,1
DA:232,1
DA:234,0
DA:237,1
DA:238,1
DA:239,1
DA:241,1
DA:242,1
DA:243,1
DA:245,0
DA:247,1
BRF:0
BRH:0
LF:106
LH:81
end_of_record
SF:/root/build/cardano-blockchain-types/src/metadata/cip36/key_registration.rs
FN:254,_RNCNvNtNtNtCsaaQWVZq1tay_24cardano_blockchain_types8metadata5cip3616key_registration30voting_pk_vec_to_verifying_key0B9_
FN:264,_RNCNvNtNtNtCsaaQWVZq1tay_24cardano_blockchain_types8metadata5cip3616key_registration30voting_pk_vec_to_verifying_keys_0B9_
FN:125,_RNCNvXNtNtNtCsaaQWVZq1tay_24cardano_blockchain_types8metadata5cip3616key_registrationNtB4_20Cip36KeyRegistrationINtNtCs906yGzbw5oA_8minicbor6decode6DecodeNtNtCsbJ2osHAMMj9_14catalyst_types14problem_report13ProblemReportE6decode0Ba_
FN:357,_RNvNtNtNtCsaaQWVZq1tay_24cardano_blockchain_types8metadata5cip3616key_registration12decode_nonce
FN:372,_RNvNtNtNtCsaaQWVZq1tay_24cardano_blockchain_types8metadata5cip3616key_registration14decode_purpose
FN:288,_RNvNtNtNtCsaaQWVZq1tay_24cardano_blockchain_types8metadata5cip3616key_registration15decode_stake_pk
FN:169,_RNvNtNtNtCsaaQWVZq1tay_24cardano_blockchain_types8metadata5cip3616key_registration17decode_voting_key
FN:312,_RNvNtNtNtCsaaQWVZq1tay_24cardano_blockchain_types8metadata5cip3616key_registration19decode_payment_addr
FN:247,_RNvNtNtNtCsaaQWVZq1tay_24cardano_blockchain_types8metadata5cip3616key_registration30voting_pk_vec_to_verifying_key
FN:444,_RNvNtNtNtNtCsaaQWVZq1tay_24cardano_blockchain_types8metadata5cip3616key_registration5testss_17test_decode_nonce
FN:396,_RNvNtNtNtNtCsaaQWVZq1tay_24cardano_blockchain_types8metadata5cip3616key_registration5testss_20test_decode_stake_pk
FN:428,_RNvNtNtNtNtCsaaQWVZq1tay_24cardano_blockchain_types8metadata5cip3616key_registration5testss_24test_decode_voting_key_2
FN:382,_RNvNtNtNtNtCsaaQWVZq1tay_24cardano_blockchain_types8metadata5cip3616key_registration5testss_27test_decode_payment_address
FN:411,_RNvNtNtNtNtCsaaQWVZq1tay_24cardano_blockchain_types8metadata5cip3616key_registration5testss_28test_decode_voting_key_cip36
FN:87,_RNvXNtNtNtCsaaQWVZq1tay_24cardano_blockchain_types8metadata5cip3616key_registrationNtB2_20Cip36KeyRegistrationINtNtCs906yGzbw5oA_8minicbor6decode6DecodeNtNtCsbJ2osHAMMj9_14catalyst_types14problem_report13ProblemReportE6decode
FNDA:0,_RNCNvNtNtNtCsaaQWVZq1tay_24cardano_blockchain_types8metadata5cip3616key_registration30voting_pk_vec_to_verifying_key0B9_
FNDA:0,_RNCNvNtNtNtCsaaQWVZq1tay_24cardano_blockchain_types8metadata5cip3616key_registration30voting_pk_vec_to_verifying_keys_0B9_
FNDA:2,_RNCNvXNtNtNtCsaaQWVZq1tay_24cardano_blockchain_types8metadata5cip3616key_registrationNtB4_20Cip36KeyRegistrationINtNtCs906yGzbw5oA_8minicbor6decode6DecodeNtNtCsbJ2osHAMMj9_14catalyst_types14problem_report13ProblemReportE6decode0Ba_
FNDA:3,_RNvNtNtNtCsaaQWVZq1tay_24cardano_blockchain_types8metadata5cip3616key_registration12decode_nonce
FNDA:0,_RNvNtNtNtCsaaQWVZq1tay_24cardano_blockchain_types8metadata5cip3616key_registration14decode_purpose
FNDA:3,_RNvNtNtNtCsaaQWVZq1tay_24cardano_blockchain_types8metadata5cip3616key_registration15decode_stake_pk
FNDA:4,_RNvNtNtNtCsaaQWVZq1tay_24cardano_blockchain_types8metadata5cip3616key_registration17decode_voting_key
FNDA:3,_RNvNtNtNtCsaaQWVZq1tay_24cardano_blockchain_types8metadata5cip3616key_registration19decode_payment_addr
FNDA:7,_RNvNtNtNtCsaaQWVZq1tay_24cardano_blockchain_types8metadata5cip3616key_registration30voting_pk_vec_to_verifying_key
FNDA:1,_RNvNtNtNtNtCsaaQWVZq1tay_24cardano_blockchain_types8metadata5cip3616key_registration5testss_17test_decode_nonce
FNDA:1,_RNvNtNtNtNtCsaaQWVZq1tay_24cardano_blockchain_types8metadata5cip3616key_registration5testss_20test_decode_stake_pk
FNDA:1,_RNvNtNtNtNtCsaaQWVZq1tay_24cardano_blockchain_types8metadata5cip3616key_registration5testss_24test_decode_voting_key_2
FNDA:1,_RNvNtNtNtNtCsaaQWVZq1tay_24cardano_blockchain_types8metadata5cip3616key_registration5testss_27test_decode_payment_address
FNDA:1,_RNvNtNtNtNtCsaaQWVZq1tay_24cardano_blockchain_types8metadata5cip3616key_registration5testss_28test_decode_voting_key_cip36
FNDA:2,_RNvXNtNtNtCsaaQWVZq1tay_24cardano_blockchain_types8metadata5cip3616key_registrationNtB2_20Cip36KeyRegistrationINtNtCs906yGzbw5oA_8minicbor6decode6DecodeNtNtCsbJ2osHAMMj9_14catalyst_types14problem_report13ProblemReportE6decode
FNF:15
FNH:12
DA:87,2
DA:88,2
DA:89,2
DA:90,2
DA:91,2
DA:93,2
DA:96,2
DA:98,8
DA:99,8
DA:101,8
DA:102,8
DA:103,8
DA:104,8
DA:105,8
DA:106,8
DA:107,8
DA:109,0
DA:110,8
DA:111,8
DA:113,2
DA:114,2
DA:115,2
DA:118,2
DA:119,2
DA:122,2
DA:123,2
DA:124,2
DA:125,2
DA:126,2
DA:127,2
DA:130,2
DA:133,0
DA:137,8
DA:138,0
DA:142,2
DA:143,2
DA:144,2
DA:145,2
DA:146,2
DA:147,2
DA:148,2
DA:149,2
DA:150,2
DA:151,2
DA:152,2
DA:155,2
DA:156,2
DA:169,4
DA:170,4
DA:171,4
DA:172,4
DA:173,4
DA:175,4
DA:177,4
DA:178,4
DA:179,4
DA:186,3
DA:187,3
DA:188,3
DA:189,3
DA:190,3
DA:191,3
DA:192,3
DA:195,3
DA:204,1
DA:205,1
DA:206,1
DA:207,1
DA:208,0
DA:210,1
DA:211,1
DA:212,1
DA:214,1
DA:215,0
DA:216,1
DA:219,1
DA:221,1
DA:223,1
DA:224,1
DA:225,1
DA:226,1
DA:228,1
DA:233,0
DA:237,0
DA:238,0
DA:239,0
DA:240,0
DA:243,4
DA:244,4
DA:247,7
DA:248,7
DA:249,7
DA:250,7
DA:251,7
DA:252,7
DA:253,7
DA:254,7
DA:255,0
DA:256,0
DA:257,0
DA:258,0
DA:259,0
DA:261,0
DA:262,7
DA:263,7
DA:264,7
DA:265,0
DA:266,0
DA:267,0
DA:268,0
DA:269,0
DA:271,0
DA:272,7
DA:273,7
DA:288,3
DA:289,3
DA:290,3
DA:291,3
DA:292,3
DA:293,3
DA:294,3
DA:295,3
DA:296,3
DA:297,3
DA:298,3
DA:312,3
DA:313,3
DA:314,3
DA:315,3
DA:316,3
DA:318,3
DA:319,3
DA:320,3
DA:321,0
DA:322,0
DA:323,0
DA:324,0
DA:325,0
DA:326,0
DA:328,0
DA:330,3
DA:333,0
DA:334,0
DA:335,0
DA:336,0
DA:337,0
DA:338,0
DA:341,0
DA:344,3
DA:357,3
DA:358,3
DA:359,3
DA:372,0
DA:373,0
DA:374,0
DA:382,1
DA:383,1
DA:386,1
DA:387,1
DA:388,1
DA:389,1
DA:390,1
DA:391,1
DA:392,1
DA:393,1
DA:396,1
DA:397,1
DA:401,1
DA:402,1
DA:403,1
DA:404,1
DA:405,1
DA:406,1
DA:407,1
DA:411,1
DA:412,1
DA:416,1
DA:417,1
DA:418,1
DA:419,1
DA:420,1
DA:421,1
DA:422,1
DA:423,1
DA:424,1
DA:428,1
DA:429,1
DA:433,1
DA:434,1
DA:435,1
DA:436,1
DA:437,1
DA:438,1
DA:439,1
DA:440,1
DA:441,1
DA:444,1
DA:445,1
DA:446,1
DA:447,1
DA:448,1
DA:449,1
BRF:0
BRH:0
LF:205
LH:164
end_of_record
SF:/root/build/cardano-blockchain-types/src/metadata/cip36/mod.rs
FN:173,_RNvMs_NtNtCsaaQWVZq1tay_24cardano_blockchain_types8metadata5cip36NtB4_5Cip3616cip36_from_block
FN:90,_RNvMs_NtNtCsaaQWVZq1tay_24cardano_blockchain_types8metadata5cip36NtB4_5Cip363new
FN:282,_RNvMs_NtNtCsaaQWVZq1tay_24cardano_blockchain_types8metadata5cip36NtB4_5Cip368is_valid
FN:317,_RNvMs_NtNtCsaaQWVZq1tay_24cardano_blockchain_types8metadata5cip36NtB4_5Cip3610err_report
FN:228,_RNvMs_NtNtCsaaQWVZq1tay_24cardano_blockchain_types8metadata5cip36NtB4_5Cip365nonce
FN:264,_RNvMs_NtNtCsaaQWVZq1tay_24cardano_blockchain_types8metadata5cip36NtB4_5Cip367network
FN:240,_RNvMs_NtNtCsaaQWVZq1tay_24cardano_blockchain_types8metadata5cip36NtB4_5Cip369raw_nonce
FN:328,_RNvNtNtNtCsaaQWVZq1tay_24cardano_blockchain_types8metadata5cip365tests7block_1
FN:345,_RNvNtNtNtCsaaQWVZq1tay_24cardano_blockchain_types8metadata5cip365testss_10from_block
FN:335,_RNvNtNtNtCsaaQWVZq1tay_24cardano_blockchain_types8metadata5cip365testss_3new
FN:246,_RNvMs_NtNtCsaaQWVZq1tay_24cardano_blockchain_types8metadata5cip36NtB4_5Cip3610is_payable
FN:210,_RNvMs_NtNtCsaaQWVZq1tay_24cardano_blockchain_types8metadata5cip36NtB4_5Cip3610voting_pks
FN:222,_RNvMs_NtNtCsaaQWVZq1tay_24cardano_blockchain_types8metadata5cip36NtB4_5Cip3615payment_address
FN:311,_RNvMs_NtNtCsaaQWVZq1tay_24cardano_blockchain_types8metadata5cip36NtB4_5Cip3616is_valid_purpose
FN:276,_RNvMs_NtNtCsaaQWVZq1tay_24cardano_blockchain_types8metadata5cip36NtB4_5Cip3618is_strict_catalyst
FN:293,_RNvMs_NtNtCsaaQWVZq1tay_24cardano_blockchain_types8metadata5cip36NtB4_5Cip3618is_valid_signature
FN:305,_RNvMs_NtNtCsaaQWVZq1tay_24cardano_blockchain_types8metadata5cip36NtB4_5Cip3620is_valid_voting_keys
FN:299,_RNvMs_NtNtCsaaQWVZq1tay_24cardano_blockchain_types8metadata5cip36NtB4_5Cip3632is_valid_payment_address_network
FN:258,_RNvMs_NtNtCsaaQWVZq1tay_24cardano_blockchain_types8metadata5cip36NtB4_5Cip364slot
FN:234,_RNvMs_NtNtCsaaQWVZq1tay_24cardano_blockchain_types8metadata5cip36NtB4_5Cip367purpose
FN:270,_RNvMs_NtNtCsaaQWVZq1tay_24cardano_blockchain_types8metadata5cip36NtB4_5Cip367txn_idx
FN:204,_RNvMs_NtNtCsaaQWVZq1tay_24cardano_blockchain_types8metadata5cip36NtB4_5Cip368is_cip36
FN:216,_RNvMs_NtNtCsaaQWVZq1tay_24cardano_blockchain_types8metadata5cip36NtB4_5Cip368stake_pk
FN:252,_RNvMs_NtNtCsaaQWVZq1tay_24cardano_blockchain_types8metadata5cip36NtB4_5Cip369signature
FN:48,_RNvXNtNtCsaaQWVZq1tay_24cardano_blockchain_types8metadata5cip36NtB2_5Cip36NtNtCs66KPHxksi63_4core3fmt7Display3fmt
FNDA:1,_RNvMs_NtNtCsaaQWVZq1tay_24cardano_blockchain_types8metadata5cip36NtB4_5Cip3616cip36_from_block
FNDA:3,_RNvMs_NtNtCsaaQWVZq1tay_24cardano_blockchain_types8metadata5cip36NtB4_5Cip363new
FNDA:1,_RNvMs_NtNtCsaaQWVZq1tay_24cardano_blockchain_types8metadata5cip36NtB4_5Cip368is_valid
FNDA:1,_RNvMs_NtNtCsaaQWVZq1tay_24cardano_blockchain_types8metadata5cip36NtB4_5Cip3610err_report
FNDA:1,_RNvMs_NtNtCsaaQWVZq1tay_24cardano_blockchain_types8metadata5cip36NtB4_5Cip365nonce
FNDA:1,_RNvMs_NtNtCsaaQWVZq1tay_24cardano_blockchain_types8metadata5cip36NtB4_5Cip367network
FNDA:1,_RNvMs_NtNtCsaaQWVZq1tay_24cardano_blockchain_types8metadata5cip36NtB4_5Cip369raw_nonce
FNDA:2,_RNvNtNtNtCsaaQWVZq1tay_24cardano_blockchain_types8metadata5cip365tests7block_1
FNDA:1,_RNvNtNtNtCsaaQWVZq1tay_24cardano_blockchain_types8metadata5cip365testss_10from_block
FNDA:1,_RNvNtNtNtCsaaQWVZq1tay_24cardano_blockchain_types8metadata5cip365testss_3new
FNDA:0,_RNvMs_NtNtCsaaQWVZq1tay_24cardano_blockchain_types8metadata5cip36NtB4_5Cip3610is_payable
FNDA:0,_RNvMs_NtNtCsaaQWVZq1tay_24cardano_blockchain_types8metadata5cip36NtB4_5Cip3610voting_pks
FNDA:0,_RNvMs_NtNtCsaaQWVZq1tay_24cardano_blockchain_types8metadata5cip36NtB4_5Cip3615payment_address
FNDA:0,_RNvMs_NtNtCsaaQWVZq1tay_24cardano_blockchain_types8metadata5cip36NtB4_5Cip3616is_valid_purpose
FNDA:0,_RNvMs_NtNtCsaaQWVZq1tay_24cardano_blockchain_types8metadata5cip36NtB4_5Cip3618is_strict_catalyst
FNDA:0,_RNvMs_NtNtCsaaQWVZq1tay_24cardano_blockchain_types8metadata5cip36NtB4_5Cip3618is_valid_signature
FNDA:0,_RNvMs_NtNtCsaaQWVZq1tay_24cardano_blockchain_types8metadata5cip36NtB4_5Cip3620is_valid_voting_keys
FNDA:0,_RNvMs_NtNtCsaaQWVZq1tay_24cardano_blockchain_types8metadata5cip36NtB4_5Cip3632is_valid_payment_address_network
FNDA:0,_RNvMs_NtNtCsaaQWVZq1tay_24cardano_blockchain_types8metadata5cip36NtB4_5Cip364slot
FNDA:0,_RNvMs_NtNtCsaaQWVZq1tay_24cardano_blockchain_types8metadata5cip36NtB4_5Cip367purpose
FNDA:0,_RNvMs_NtNtCsaaQWVZq1tay_24cardano_blockchain_types8metadata5cip36NtB4_5Cip367txn_idx
FNDA:0,_RNvMs_NtNtCsaaQWVZq1tay_24cardano_blockchain_types8metadata5cip36NtB4_5Cip368is_cip36
FNDA:0,_RNvMs_NtNtCsaaQWVZq1tay_24cardano_blockchain_types8metadata5cip36NtB4_5Cip368stake_pk
FNDA:0,_RNvMs_NtNtCsaaQWVZq1tay_24cardano_blockchain_types8metadata5cip36NtB4_5Cip369signature
FNDA:0,_RNvXNtNtCsaaQWVZq1tay_24cardano_blockchain_types8metadata5cip36NtB2_5Cip36NtNtCs66KPHxksi63_4core3fmt7Display3fmt
FNF:25
FNH:10
DA:48,0
DA:49,0
DA:50,0
DA:51,0
DA:52,0
DA:53,0
DA:54,0
DA:65,0
DA:67,0
DA:90,3
DA:91,3
DA:92,3
DA:93,3
DA:94,3
DA:96,3
DA:98,3
DA:99,1
DA:101,2
DA:102,0
DA:105,2
DA:106,2
DA:108,2
DA:109,2
DA:111,2
DA:112,2
DA:113,2
DA:114,2
DA:115,0
DA:117,2
DA:120,2
DA:121,2
DA:123,0
DA:124,0
DA:128,2
DA:129,2
DA:130,2
DA:131,0
DA:132,0
DA:138,2
DA:139,2
DA:140,2
DA:141,2
DA:142,2
DA:143,2
DA:144,2
DA:145,2
DA:146,2
DA:147,2
DA:148,2
DA:149,2
DA:150,2
DA:153,2
DA:154,2
DA:155,2
DA:156,2
DA:158,2
DA:159,3
DA:173,1
DA:174,1
DA:175,1
DA:176,1
DA:177,1
DA:179,2
DA:180,2
DA:181,2
DA:182,2
DA:183,1
DA:184,1
DA:185,1
DA:187,1
DA:189,0
DA:190,0
DA:191,0
DA:195,1
DA:196,0
DA:197,1
DA:198,1
DA:199,1
DA:204,0
DA:205,0
DA:206,0
DA:210,0
DA:211,0
DA:212,0
DA:216,0
DA:217,0
DA:218,0
DA:222,0
DA:223,0
DA:224,0
DA:228,1
DA:229,1
DA:230,1
DA:234,0
DA:235,0
DA:236,0
DA:240,1
DA:241,1
DA:242,1
DA:246,0
DA:247,0
DA:248,0
DA:252,0
DA:253,0
DA:254,0
DA:258,0
DA:259,0
DA:260,0
DA:264,1
DA:265,1
DA:266,1
DA:270,0
DA:271,0
DA:272,0
DA:276,0
DA:277,0
DA:278,0
DA:282,1
DA:284,1
DA:285,1
DA:286,1
DA:287,1
DA:288,1
DA:289,1
DA:293,0
DA:294,0
DA:295,0
DA:299,0
DA:300,0
DA:301,0
DA:305,0
DA:306,0
DA:307,0
DA:311,0
DA:312,0
DA:313,0
DA:317,1
DA:318,1
DA:319,1
DA:328,2
DA:329,2
DA:330,2
DA:331,2
DA:332,2
DA:335,1
DA:336,1
DA:337,1
DA:338,1
DA:339,1
DA:340,1
DA:341,1
DA:342,1
DA:345,1
DA:346,1
DA:347,1
DA:348,1
BRF:0
BRH:0
LF:156
LH:95
end_of_record
SF:/root/build/cardano-blockchain-types/src/metadata/cip36/registration_witness.rs
FN:52,_RNCNvXNtNtNtCsaaQWVZq1tay_24cardano_blockchain_types8metadata5cip3620registration_witnessNtB4_24Cip36RegistrationWitnessINtNtCs906yGzbw5oA_8minicbor6decode6DecodeNtNtCsbJ2osHAMMj9_14catalyst_types14problem_report13ProblemReportE6decode0Ba_
FN:25,_RNvXNtNtNtCsaaQWVZq1tay_24cardano_blockchain_types8metadata5cip3620registration_witnessNtB2_24Cip36RegistrationWitnessINtNtCs906yGzbw5oA_8minicbor6decode6DecodeNtNtCsbJ2osHAMMj9_14catalyst_types14problem_report13ProblemReportE6decode
FNDA:0,_RNCNvXNtNtNtCsaaQWVZq1tay_24cardano_blockchain_types8metadata5cip3620registration_witnessNtB4_24Cip36RegistrationWitnessINtNtCs906yGzbw5oA_8minicbor6decode6DecodeNtNtCsbJ2osHAMMj9_14catalyst_types14problem_report13ProblemReportE6decode0Ba_
FNDA:2,_RNvXNtNtNtCsaaQWVZq1tay_24cardano_blockchain_types8metadata5cip3620registration_witnessNtB2_24Cip36RegistrationWitnessINtNtCs906yGzbw5oA_8minicbor6decode6DecodeNtNtCsbJ2osHAMMj9_14catalyst_types14problem_report13ProblemReportE6decode
FNF:2
FNH:1
DA:25,2
DA:26,2
DA:27,2
DA:28,2
DA:29,2
DA:32,2
DA:33,0
DA:34,0
DA:35,0
DA:36,2
DA:38,2
DA:41,2
DA:42,0
DA:43,0
DA:44,0
DA:45,0
DA:46,0
DA:47,0
DA:48,2
DA:50,2
DA:51,2
DA:52,2
DA:53,0
DA:54,0
DA:55,0
DA:56,0
DA:57,0
DA:59,0
DA:60,2
DA:62,2
DA:63,2
BRF:0
BRH:0
LF:32
LH:16
end_of_record
SF:/root/build/cardano-blockchain-types/src/metadata/cip36/validation.rs
FN:127,_RNvMNtNtNtCsaaQWVZq1tay_24cardano_blockchain_types8metadata5cip3610validationNtB4_5Cip3616validate_purpose
FN:27,_RNvMNtNtNtCsaaQWVZq1tay_24cardano_blockchain_types8metadata5cip3610validationNtB4_5Cip3618validate_signature
FN:111,_RNvMNtNtNtCsaaQWVZq1tay_24cardano_blockchain_types8metadata5cip3610validationNtB4_5Cip3620validate_voting_keys
FN:69,_RNvMNtNtNtCsaaQWVZq1tay_24cardano_blockchain_types8metadata5cip3610validationNtB4_5Cip3632validate_payment_address_network
FN:160,_RNvNtNtNtNtCsaaQWVZq1tay_24cardano_blockchain_types8metadata5cip3610validation5tests12create_cip36
FN:240,_RNvNtNtNtNtCsaaQWVZq1tay_24cardano_blockchain_types8metadata5cip3610validation5testss_21test_validate_purpose
FN:210,_RNvNtNtNtNtCsaaQWVZq1tay_24cardano_blockchain_types8metadata5cip3610validation5testss_25test_validate_voting_keys
FN:249,_RNvNtNtNtNtCsaaQWVZq1tay_24cardano_blockchain_types8metadata5cip3610validation5testss_29test_validate_invalid_purpose
FN:223,_RNvNtNtNtNtCsaaQWVZq1tay_24cardano_blockchain_types8metadata5cip3610validation5testss_33test_validate_invalid_voting_keys
FN:177,_RNvNtNtNtNtCsaaQWVZq1tay_24cardano_blockchain_types8metadata5cip3610validation5testss_37test_validate_payment_address_network
FN:193,_RNvNtNtNtNtCsaaQWVZq1tay_24cardano_blockchain_types8metadata5cip3610validation5testss_45test_validate_invalid_payment_address_network
FNDA:4,_RNvMNtNtNtCsaaQWVZq1tay_24cardano_blockchain_types8metadata5cip3610validationNtB4_5Cip3616validate_purpose
FNDA:2,_RNvMNtNtNtCsaaQWVZq1tay_24cardano_blockchain_types8metadata5cip3610validationNtB4_5Cip3618validate_signature
FNDA:4,_RNvMNtNtNtCsaaQWVZq1tay_24cardano_blockchain_types8metadata5cip3610validationNtB4_5Cip3620validate_voting_keys
FNDA:4,_RNvMNtNtNtCsaaQWVZq1tay_24cardano_blockchain_types8metadata5cip3610validationNtB4_5Cip3632validate_payment_address_network
FNDA:6,_RNvNtNtNtNtCsaaQWVZq1tay_24cardano_blockchain_types8metadata5cip3610validation5tests12create_cip36
FNDA:1,_RNvNtNtNtNtCsaaQWVZq1tay_24cardano_blockchain_types8metadata5cip3610validation5testss_21test_validate_purpose
FNDA:1,_RNvNtNtNtNtCsaaQWVZq1tay_24cardano_blockchain_types8metadata5cip3610validation5testss_25test_validate_voting_keys
FNDA:1,_RNvNtNtNtNtCsaaQWVZq1tay_24cardano_blockchain_types8metadata5cip3610validation5testss_29test_validate_invalid_purpose
FNDA:1,_RNvNtNtNtNtCsaaQWVZq1tay_24cardano_blockchain_types8metadata5cip3610validation5testss_33test_validate_invalid_voting_keys
FNDA:1,_RNvNtNtNtNtCsaaQWVZq1tay_24cardano_blockchain_types8metadata5cip3610validation5testss_37test_validate_payment_address_network
FNDA:1,_RNvNtNtNtNtCsaaQWVZq1tay_24cardano_blockchain_types8metadata5cip3610validation5testss_45test_validate_invalid_payment_address_network
FNF:11
FNH:11
DA:27,2
DA:28,2
DA:29,2
DA:30,2
DA:31,2
DA:32,2
DA:33,2
DA:34,2
DA:35,2
DA:36,2
DA:39,2
DA:40,0
DA:41,0
DA:42,0
DA:43,0
DA:47,2
DA:48,0
DA:49,0
DA:50,0
DA:52,0
DA:53,0
DA:57,2
DA:58,2
DA:59,2
DA:60,0
DA:61,0
DA:62,0
DA:63,0
DA:64,0
DA:65,0
DA:66,2
DA:69,4
DA:71,4
DA:72,0
DA:73,0
DA:74,0
DA:76,0
DA:77,0
DA:80,4
DA:82,0
DA:83,0
DA:84,0
DA:86,0
DA:87,0
DA:90,4
DA:91,1
DA:93,3
DA:98,4
DA:99,1
DA:100,1
DA:101,1
DA:102,1
DA:103,1
DA:104,1
DA:105,3
DA:107,4
DA:108,4
DA:111,4
DA:112,4
DA:113,1
DA:114,1
DA:115,1
DA:116,1
DA:117,1
DA:119,1
DA:120,1
DA:121,3
DA:123,3
DA:124,4
DA:127,4
DA:128,4
DA:129,1
DA:130,1
DA:131,1
DA:132,1
DA:133,1
DA:134,1
DA:135,1
DA:137,1
DA:138,1
DA:139,3
DA:141,3
DA:142,4
DA:160,6
DA:161,6
DA:162,6
DA:163,6
DA:164,6
DA:165,6
DA:166,6
DA:167,6
DA:168,6
DA:169,6
DA:170,6
DA:171,6
DA:172,6
DA:173,6
DA:174,6
DA:177,1
DA:179,1
DA:181,1
DA:182,1
DA:183,1
DA:184,1
DA:185,1
DA:186,1
DA:188,1
DA:189,1
DA:190,1
DA:193,1
DA:195,1
DA:197,1
DA:198,1
DA:199,1
DA:200,1
DA:201,1
DA:202,1
DA:203,1
DA:205,1
DA:206,1
DA:207,1
DA:210,1
DA:211,1
DA:212,1
DA:213,1
DA:214,1
DA:215,1
DA:217,1
DA:218,1
DA:219,1
DA:220,1
DA:223,1
DA:224,1
DA:225,1
DA:226,1
DA:227,1
DA:228,1
DA:229,1
DA:230,1
DA:231,1
DA:232,1
DA:234,1
DA:235,1
DA:236,1
DA:237,1
DA:240,1
DA:241,1
DA:242,1
DA:243,1
DA:244,1
DA:245,1
DA:246,1
DA:249,1
DA:250,1
DA:251,1
DA:252,1
DA:253,1
DA:254,1
DA:255,1
DA:257,1
DA:258,1
DA:259,1
DA:260,1
BRF:0
BRH:0
LF:163
LH:138
end_of_record
SF:/root/build/cardano-blockchain-types/src/metadata/cip36/voting_pk.rs
FN:17,_RNvMNtNtNtCsaaQWVZq1tay_24cardano_blockchain_types8metadata5cip369voting_pkNtB2_12VotingPubKey3new
FN:32,_RNvMNtNtNtCsaaQWVZq1tay_24cardano_blockchain_types8metadata5cip369voting_pkNtB2_12VotingPubKey6weight
FN:26,_RNvMNtNtNtCsaaQWVZq1tay_24cardano_blockchain_types8metadata5cip369voting_pkNtB2_12VotingPubKey9voting_pk
FNDA:7,_RNvMNtNtNtCsaaQWVZq1tay_24cardano_blockchain_types8metadata5cip369voting_pkNtB2_12VotingPubKey3new
FNDA:0,_RNvMNtNtNtCsaaQWVZq1tay_24cardano_blockchain_types8metadata5cip369voting_pkNtB2_12VotingPubKey6weight
FNDA:0,_RNvMNtNtNtCsaaQWVZq1tay_24cardano_blockchain_types8metadata5cip369voting_pkNtB2_12VotingPubKey9voting_pk
FNF:3
FNH:1
DA:17,7
DA:18,7
DA:19,7
DA:20,7
DA:21,7
DA:22,7
DA:26,0
DA:27,0
DA:28,0
DA:32,0
DA:33,0
DA:34,0
BRF:0
BRH:0
LF:12
LH:6
end_of_record
SF:/root/build/cardano-blockchain-types/src/multi_era_block_data.rs
FN:169,_RNvMNtCsaaQWVZq1tay_24cardano_blockchain_types20multi_era_block_dataNtB2_13MultiEraBlock6decode
FN:431,_RNvNtNtCsaaQWVZq1tay_24cardano_blockchain_types20multi_era_block_data5tests10mary_block
FN:419,_RNvNtNtCsaaQWVZq1tay_24cardano_blockchain_types20multi_era_block_data5tests11byron_block
FN:454,_RNvNtNtCsaaQWVZq1tay_24cardano_blockchain_types20multi_era_block_data5tests11test_blocks
FN:442,_RNvNtNtCsaaQWVZq1tay_24cardano_blockchain_types20multi_era_block_data5tests12alonzo_block
FN:436,_RNvNtNtCsaaQWVZq1tay_24cardano_blockchain_types20multi_era_block_data5tests13allegra_block
FN:448,_RNvNtNtCsaaQWVZq1tay_24cardano_blockchain_types20multi_era_block_data5tests13babbage_block
FN:425,_RNvNtNtCsaaQWVZq1tay_24cardano_blockchain_types20multi_era_block_data5tests13shelley_block
FN:574,_RNvNtNtCsaaQWVZq1tay_24cardano_blockchain_types20multi_era_block_data5tests14mk_test_blocks
FN:598,_RNvNtNtCsaaQWVZq1tay_24cardano_blockchain_types20multi_era_block_data5tests14mk_test_points
FN:480,_RNvNtNtCsaaQWVZq1tay_24cardano_blockchain_types20multi_era_block_data5tests18sorted_test_blocks
FN:492,_RNvNtNtCsaaQWVZq1tay_24cardano_blockchain_types20multi_era_block_data5testss_36test_multi_era_block_point_compare_1
FN:524,_RNvNtNtCsaaQWVZq1tay_24cardano_blockchain_types20multi_era_block_data5testss_36test_multi_era_block_point_compare_2
FN:548,_RNvNtNtCsaaQWVZq1tay_24cardano_blockchain_types20multi_era_block_data5testss_36test_multi_era_block_point_compare_3
FN:621,_RNvNtNtCsaaQWVZq1tay_24cardano_blockchain_types20multi_era_block_data5testss_36test_multi_era_block_point_compare_4
FN:699,_RNvNtNtCsaaQWVZq1tay_24cardano_blockchain_types20multi_era_block_data5testss_36test_multi_era_block_point_compare_5
FN:783,_RNvNtNtCsaaQWVZq1tay_24cardano_blockchain_types20multi_era_block_data5testss_38test_multi_era_block_with_origin_point
FN:351,_RNvXs0_NtCsaaQWVZq1tay_24cardano_blockchain_types20multi_era_block_dataNtB5_13MultiEraBlockNtNtCs66KPHxksi63_4core3cmp9PartialEq2eq
FN:364,_RNvXs2_NtCsaaQWVZq1tay_24cardano_blockchain_types20multi_era_block_dataNtB5_13MultiEraBlockNtNtCs66KPHxksi63_4core3cmp10PartialOrd11partial_cmp
FN:375,_RNvXs3_NtCsaaQWVZq1tay_24cardano_blockchain_types20multi_era_block_dataNtB5_13MultiEraBlockNtNtCs66KPHxksi63_4core3cmp3Ord3cmp
FN:386,_RNvXs4_NtCsaaQWVZq1tay_24cardano_blockchain_types20multi_era_block_dataNtB5_13MultiEraBlockINtNtCs66KPHxksi63_4core3cmp9PartialEqNtNtB7_5point5PointE2eq
FN:397,_RNvXs5_NtCsaaQWVZq1tay_24cardano_blockchain_types20multi_era_block_dataNtB5_13MultiEraBlockINtNtCs66KPHxksi63_4core3cmp10PartialOrdNtNtB7_5point5PointE11partial_cmp
FN:239,_RNvMNtCsaaQWVZq1tay_24cardano_blockchain_types20multi_era_block_dataNtB2_13MultiEraBlock7network
FN:255,_RNvMNtCsaaQWVZq1tay_24cardano_blockchain_types20multi_era_block_dataNtB2_13MultiEraBlock12txn_metadata
FN:96,_RNvMNtCsaaQWVZq1tay_24cardano_blockchain_types20multi_era_block_dataNtB2_13MultiEraBlock3new
FN:580,_RNCNCNvNtNtCsaaQWVZq1tay_24cardano_blockchain_types20multi_era_block_data5tests14mk_test_blocks00B9_
FN:604,_RNCNCNvNtNtCsaaQWVZq1tay_24cardano_blockchain_types20multi_era_block_data5tests14mk_test_points00B9_
FN:104,_RNCNvMNtCsaaQWVZq1tay_24cardano_blockchain_types20multi_era_block_dataNtB4_13MultiEraBlock3new0B6_
FN:578,_RNCNvNtNtCsaaQWVZq1tay_24cardano_blockchain_types20multi_era_block_data5tests14mk_test_blocks0B7_
FN:602,_RNCNvNtNtCsaaQWVZq1tay_24cardano_blockchain_types20multi_era_block_data5tests14mk_test_points0B7_
FN:296,_RNCNvMNtCsaaQWVZq1tay_24cardano_blockchain_types20multi_era_block_dataNtB4_13MultiEraBlock13enumerate_txs0B6_
FN:265,_RNvMNtCsaaQWVZq1tay_24cardano_blockchain_types20multi_era_block_dataNtB2_13MultiEraBlock11witness_map
FN:213,_RNvMNtCsaaQWVZq1tay_24cardano_blockchain_types20multi_era_block_dataNtB2_13MultiEraBlock12is_immutable
FN:292,_RNvMNtCsaaQWVZq1tay_24cardano_blockchain_types20multi_era_block_dataNtB2_13MultiEraBlock13enumerate_txs
FN:271,_RNvMNtCsaaQWVZq1tay_24cardano_blockchain_types20multi_era_block_dataNtB2_13MultiEraBlock14witness_for_tx
FN:180,_RNvMNtCsaaQWVZq1tay_24cardano_blockchain_types20multi_era_block_dataNtB2_13MultiEraBlock3raw
FN:287,_RNvMNtCsaaQWVZq1tay_24cardano_blockchain_types20multi_era_block_dataNtB2_13MultiEraBlock3txs
FN:229,_RNvMNtCsaaQWVZq1tay_24cardano_blockchain_types20multi_era_block_dataNtB2_13MultiEraBlock4fork
FN:307,_RNvMNtCsaaQWVZq1tay_24cardano_blockchain_types20multi_era_block_dataNtB2_13MultiEraBlock4slot
FN:190,_RNvMNtCsaaQWVZq1tay_24cardano_blockchain_types20multi_era_block_dataNtB2_13MultiEraBlock5point
FN:301,_RNvMNtCsaaQWVZq1tay_24cardano_blockchain_types20multi_era_block_dataNtB2_13MultiEraBlock8aux_data
FN:200,_RNvMNtCsaaQWVZq1tay_24cardano_blockchain_types20multi_era_block_dataNtB2_13MultiEraBlock8previous
FN:155,_RNvMNtCsaaQWVZq1tay_24cardano_blockchain_types20multi_era_block_dataNtB2_13MultiEraBlock8set_fork
FN:313,_RNvXs_NtCsaaQWVZq1tay_24cardano_blockchain_types20multi_era_block_dataNtB4_13MultiEraBlockNtNtCs66KPHxksi63_4core3fmt7Display3fmt
FNDA:8,_RNvMNtCsaaQWVZq1tay_24cardano_blockchain_types20multi_era_block_dataNtB2_13MultiEraBlock6decode
FNDA:7,_RNvNtNtCsaaQWVZq1tay_24cardano_blockchain_types20multi_era_block_data5tests10mary_block
FNDA:7,_RNvNtNtCsaaQWVZq1tay_24cardano_blockchain_types20multi_era_block_data5tests11byron_block
FNDA:4,_RNvNtNtCsaaQWVZq1tay_24cardano_blockchain_types20multi_era_block_data5tests11test_blocks
FNDA:8,_RNvNtNtCsaaQWVZq1tay_24cardano_blockchain_types20multi_era_block_data5tests12alonzo_block
FNDA:7,_RNvNtNtCsaaQWVZq1tay_24cardano_blockchain_types20multi_era_block_data5tests13allegra_block
FNDA:1,_RNvNtNtCsaaQWVZq1tay_24cardano_blockchain_types20multi_era_block_data5tests13babbage_block
FNDA:7,_RNvNtNtCsaaQWVZq1tay_24cardano_blockchain_types20multi_era_block_data5tests13shelley_block
FNDA:2,_RNvNtNtCsaaQWVZq1tay_24cardano_blockchain_types20multi_era_block_data5tests14mk_test_blocks
FNDA:1,_RNvNtNtCsaaQWVZq1tay_24cardano_blockchain_types20multi_era_block_data5tests14mk_test_points
FNDA:3,_RNvNtNtCsaaQWVZq1tay_24cardano_blockchain_types20multi_era_block_data5tests18sorted_test_blocks
FNDA:1,_RNvNtNtCsaaQWVZq1tay_24cardano_blockchain_types20multi_era_block_data5testss_36test_multi_era_block_point_compare_1
FNDA:1,_RNvNtNtCsaaQWVZq1tay_24cardano_blockchain_types20multi_era_block_data5testss_36test_multi_era_block_point_compare_2
FNDA:1,_RNvNtNtCsaaQWVZq1tay_24cardano_blockchain_types20multi_era_block_data5testss_36test_multi_era_block_point_compare_3
FNDA:1,_RNvNtNtCsaaQWVZq1tay_24cardano_blockchain_types20multi_era_block_data5testss_36test_multi_era_block_point_compare_4
FNDA:1,_RNvNtNtCsaaQWVZq1tay_24cardano_blockchain_types20multi_era_block_data5testss_36test_multi_era_block_point_compare_5
FNDA:1,_RNvNtNtCsaaQWVZq1tay_24cardano_blockchain_types20multi_era_block_data5testss_38test_multi_era_block_with_origin_point
FNDA:19,_RNvXs0_NtCsaaQWVZq1tay_24cardano_blockchain_types20multi_era_block_dataNtB5_13MultiEraBlockNtNtCs66KPHxksi63_4core3cmp9PartialEq2eq
FNDA:59,_RNvXs2_NtCsaaQWVZq1tay_24cardano_blockchain_types20multi_era_block_dataNtB5_13MultiEraBlockNtNtCs66KPHxksi63_4core3cmp10PartialOrd11partial_cmp
FNDA:59,_RNvXs3_NtCsaaQWVZq1tay_24cardano_blockchain_types20multi_era_block_dataNtB5_13MultiEraBlockNtNtCs66KPHxksi63_4core3cmp3Ord3cmp
FNDA:19,_RNvXs4_NtCsaaQWVZq1tay_24cardano_blockchain_types20multi_era_block_dataNtB5_13MultiEraBlockINtNtCs66KPHxksi63_4core3cmp9PartialEqNtNtB7_5point5PointE2eq
FNDA:59,_RNvXs5_NtCsaaQWVZq1tay_24cardano_blockchain_types20multi_era_block_dataNtB5_13MultiEraBlockINtNtCs66KPHxksi63_4core3cmp10PartialOrdNtNtB7_5point5PointE11partial_cmp
FNDA:2,_RNvMNtCsaaQWVZq1tay_24cardano_blockchain_types20multi_era_block_dataNtB2_13MultiEraBlock7network
FNDA:5,_RNvMNtCsaaQWVZq1tay_24cardano_blockchain_types20multi_era_block_dataNtB2_13MultiEraBlock12txn_metadata
FNDA:32,_RNvMNtCsaaQWVZq1tay_24cardano_blockchain_types20multi_era_block_dataNtB2_13MultiEraBlock3new
FNDA:10,_RNCNCNvNtNtCsaaQWVZq1tay_24cardano_blockchain_types20multi_era_block_data5tests14mk_test_blocks00B9_
FNDA:5,_RNCNCNvNtNtCsaaQWVZq1tay_24cardano_blockchain_types20multi_era_block_data5tests14mk_test_points00B9_
FNDA:32,_RNCNvMNtCsaaQWVZq1tay_24cardano_blockchain_types20multi_era_block_dataNtB4_13MultiEraBlock3new0B6_
FNDA:10,_RNCNvNtNtCsaaQWVZq1tay_24cardano_blockchain_types20multi_era_block_data5tests14mk_test_blocks0B7_
FNDA:5,_RNCNvNtNtCsaaQWVZq1tay_24cardano_blockchain_types20multi_era_block_data5tests14mk_test_points0B7_
FNDA:0,_RNCNvMNtCsaaQWVZq1tay_24cardano_blockchain_types20multi_era_block_dataNtB4_13MultiEraBlock13enumerate_txs0B6_
FNDA:0,_RNvMNtCsaaQWVZq1tay_24cardano_blockchain_types20multi_era_block_dataNtB2_13MultiEraBlock11witness_map
FNDA:0,_RNvMNtCsaaQWVZq1tay_24cardano_blockchain_types20multi_era_block_dataNtB2_13MultiEraBlock12is_immutable
FNDA:0,_RNvMNtCsaaQWVZq1tay_24cardano_blockchain_types20multi_era_block_dataNtB2_13MultiEraBlock13enumerate_txs
FNDA:0,_RNvMNtCsaaQWVZq1tay_24cardano_blockchain_types20multi_era_block_dataNtB2_13MultiEraBlock14witness_for_tx
FNDA:0,_RNvMNtCsaaQWVZq1tay_24cardano_blockchain_types20multi_era_block_dataNtB2_13MultiEraBlock3raw
FNDA:0,_RNvMNtCsaaQWVZq1tay_24cardano_blockchain_types20multi_era_block_dataNtB2_13MultiEraBlock3txs
FNDA:0,_RNvMNtCsaaQWVZq1tay_24cardano_blockchain_types20multi_era_block_dataNtB2_13MultiEraBlock4fork
FNDA:0,_RNvMNtCsaaQWVZq1tay_24cardano_blockchain_types20multi_era_block_dataNtB2_13MultiEraBlock4slot
FNDA:0,_RNvMNtCsaaQWVZq1tay_24cardano_blockchain_types20multi_era_block_dataNtB2_13MultiEraBlock5point
FNDA:0,_RNvMNtCsaaQWVZq1tay_24cardano_blockchain_types20multi_era_block_dataNtB2_13MultiEraBlock8aux_data
FNDA:0,_RNvMNtCsaaQWVZq1tay_24cardano_blockchain_types20multi_era_block_dataNtB2_13MultiEraBlock8previous
FNDA:0,_RNvMNtCsaaQWVZq1tay_24cardano_blockchain_types20multi_era_block_dataNtB2_13MultiEraBlock8set_fork
FNDA:0,_RNvXs_NtCsaaQWVZq1tay_24cardano_blockchain_types20multi_era_block_dataNtB4_13MultiEraBlockNtNtCs66KPHxksi63_4core3fmt7Display3fmt
FNF:44
FNH:30
DA:96,32
DA:97,32
DA:98,32
DA:99,32
DA:100,32
DA:101,32
DA:102,32
DA:103,32
DA:104,32
DA:105,32
DA:106,32
DA:108,32
DA:109,32
DA:111,32
DA:113,32
DA:115,32
DA:117,32
DA:120,32
DA:124,27
DA:125,5
DA:126,22
DA:129,22
DA:131,20
DA:133,5
DA:135,5
DA:136,17
DA:137,5
DA:139,22
DA:141,22
DA:142,22
DA:143,22
DA:144,22
DA:145,22
DA:146,22
DA:147,22
DA:148,22
DA:149,22
DA:150,22
DA:151,22
DA:152,32
DA:155,0
DA:156,0
DA:157,0
DA:158,0
DA:159,0
DA:160,0
DA:169,8
DA:170,8
DA:171,8
DA:180,0
DA:181,0
DA:182,0
DA:190,0
DA:191,0
DA:192,0
DA:200,0
DA:201,0
DA:202,0
DA:213,0
DA:214,0
DA:215,0
DA:229,0
DA:230,0
DA:231,0
DA:239,2
DA:240,2
DA:241,2
DA:255,5
DA:256,5
DA:257,5
DA:258,5
DA:259,5
DA:260,5
DA:261,5
DA:262,5
DA:265,0
DA:266,0
DA:267,0
DA:271,0
DA:272,0
DA:273,0
DA:274,0
DA:275,0
DA:276,0
DA:277,0
DA:278,0
DA:279,0
DA:280,0
DA:282,0
DA:283,0
DA:287,0
DA:288,0
DA:289,0
DA:292,0
DA:293,0
DA:294,0
DA:295,0
DA:296,0
DA:297,0
DA:301,0
DA:302,0
DA:303,0
DA:307,0
DA:308,0
DA:309,0
DA:313,0
DA:314,0
DA:315,0
DA:316,0
DA:317,0
DA:318,0
DA:319,0
DA:320,0
DA:321,0
DA:322,0
DA:323,0
DA:324,0
DA:326,0
DA:327,0
DA:329,0
DA:332,0
DA:333,0
DA:334,0
DA:335,0
DA:337,0
DA:338,0
DA:339,0
DA:340,0
DA:342,0
DA:343,0
DA:344,0
DA:345,0
DA:351,19
DA:352,19
DA:353,19
DA:354,19
DA:355,19
DA:356,19
DA:364,59
DA:365,59
DA:366,59
DA:367,59
DA:368,59
DA:369,59
DA:375,59
DA:376,59
DA:377,59
DA:378,59
DA:379,59
DA:380,59
DA:386,19
DA:387,19
DA:388,19
DA:389,19
DA:390,19
DA:391,19
DA:397,59
DA:398,59
DA:399,59
DA:400,59
DA:401,59
DA:402,59
DA:419,7
DA:420,7
DA:421,7
DA:422,7
DA:425,7
DA:426,7
DA:427,7
DA:428,7
DA:431,7
DA:432,7
DA:433,7
DA:436,7
DA:437,7
DA:438,7
DA:439,7
DA:442,8
DA:443,8
DA:444,8
DA:445,8
DA:448,1
DA:449,1
DA:450,1
DA:451,1
DA:454,4
DA:455,4
DA:456,4
DA:457,4
DA:458,4
DA:459,4
DA:460,4
DA:461,4
DA:462,4
DA:463,4
DA:464,4
DA:465,4
DA:466,4
DA:467,4
DA:468,4
DA:469,4
DA:470,4
DA:471,4
DA:472,4
DA:473,4
DA:474,4
DA:475,4
DA:477,4
DA:480,3
DA:481,3
DA:482,3
DA:483,3
DA:484,3
DA:485,3
DA:486,3
DA:488,3
DA:492,1
DA:493,5
DA:494,5
DA:496,5
DA:497,5
DA:498,5
DA:499,5
DA:500,5
DA:501,5
DA:502,5
DA:505,5
DA:506,5
DA:507,5
DA:508,5
DA:509,5
DA:512,5
DA:513,5
DA:514,5
DA:515,5
DA:516,5
DA:519,1
DA:520,1
DA:524,1
DA:525,5
DA:526,5
DA:528,5
DA:529,5
DA:530,5
DA:533,5
DA:534,5
DA:535,5
DA:536,5
DA:537,5
DA:540,5
DA:543,1
DA:544,1
DA:548,1
DA:549,5
DA:550,5
DA:552,5
DA:553,5
DA:554,5
DA:555,5
DA:556,5
DA:557,5
DA:558,5
DA:561,5
DA:562,5
DA:563,5
DA:564,5
DA:565,5
DA:566,0
DA:568,5
DA:571,1
DA:572,1
DA:574,2
DA:575,2
DA:576,2
DA:577,2
DA:578,10
DA:579,10
DA:580,10
DA:581,10
DA:582,10
DA:583,10
DA:584,10
DA:585,10
DA:586,10
DA:587,10
DA:589,10
DA:590,10
DA:592,10
DA:593,10
DA:594,10
DA:595,2
DA:596,2
DA:598,1
DA:599,1
DA:600,1
DA:601,1
DA:602,5
DA:603,5
DA:604,5
DA:605,5
DA:606,5
DA:607,5
DA:608,5
DA:609,5
DA:610,5
DA:611,5
DA:613,5
DA:614,5
DA:615,5
DA:616,1
DA:617,1
DA:621,1
DA:622,1
DA:624,1
DA:625,1
DA:626,1
DA:627,1
DA:628,1
DA:630,1
DA:631,1
DA:632,1
DA:633,1
DA:634,1
DA:635,1
DA:636,1
DA:637,1
DA:638,1
DA:639,1
DA:640,1
DA:642,1
DA:643,1
DA:644,1
DA:645,1
DA:646,1
DA:647,1
DA:648,1
DA:649,1
DA:650,1
DA:651,1
DA:652,1
DA:653,1
DA:655,1
DA:656,1
DA:657,1
DA:658,1
DA:659,1
DA:660,1
DA:661,1
DA:662,1
DA:663,1
DA:664,1
DA:665,1
DA:666,1
DA:668,1
DA:669,1
DA:670,1
DA:671,1
DA:672,1
DA:673,1
DA:674,1
DA:675,1
DA:676,1
DA:677,1
DA:678,1
DA:679,1
DA:681,1
DA:682,1
DA:683,1
DA:684,1
DA:685,1
DA:686,1
DA:687,1
DA:688,1
DA:689,1
DA:690,1
DA:691,1
DA:692,1
DA:694,1
DA:695,1
DA:699,1
DA:700,1
DA:701,1
DA:703,1
DA:704,1
DA:705,1
DA:706,1
DA:707,1
DA:709,1
DA:710,1
DA:711,1
DA:712,1
DA:713,1
DA:715,1
DA:716,1
DA:717,1
DA:718,1
DA:719,1
DA:720,1
DA:721,1
DA:722,1
DA:723,1
DA:724,1
DA:725,1
DA:727,1
DA:728,1
DA:729,1
DA:730,1
DA:731,1
DA:732,1
DA:733,1
DA:734,1
DA:735,1
DA:736,1
DA:737,1
DA:738,1
DA:740,1
DA:741,1
DA:742,1
DA:743,1
DA:744,1
DA:745,1
DA:746,1
DA:747,1
DA:748,1
DA:749,1
DA:750,1
DA:751,1
DA:753,1
DA:754,1
DA:755,1
DA:756,1
DA:757,1
DA:758,1
DA:759,1
DA:760,1
DA:761,1
DA:762,1
DA:763,1
DA:764,1
DA:766,1
DA:767,1
DA:768,1
DA:769,1
DA:770,1
DA:771,1
DA:772,1
DA:773,1
DA:774,1
DA:775,1
DA:776,1
DA:777,1
DA:779,1
DA:780,1
DA:783,1
DA:784,5
DA:785,5
DA:786,5
DA:787,5
DA:788,5
DA:789,5
DA:792,5
DA:794,1
BRF:0
BRH:0
LF:467
LH:387
end_of_record
SF:/root/build/cardano-blockchain-types/src/network.rs
FN:292,_RNvXs0_NtCsaaQWVZq1tay_24cardano_blockchain_types7networkNtCsgm3IeTu00LI_16pallas_addresses7NetworkINtNtCs66KPHxksi63_4core7convert4FromRNtB5_7NetworkE4from
FN:286,_RNvXs_NtCsaaQWVZq1tay_24cardano_blockchain_types7networkNtCsgm3IeTu00LI_16pallas_addresses7NetworkINtNtCs66KPHxksi63_4core7convert4FromNtB4_7NetworkE4from
FN:142,_RNCNvMNtCsaaQWVZq1tay_24cardano_blockchain_types7networkNtB4_7Network20default_mithril_path0B6_
FN:219,_RNvMNtCsaaQWVZq1tay_24cardano_blockchain_types7networkNtB2_7Network12magic_number
FN:103,_RNvMNtCsaaQWVZq1tay_24cardano_blockchain_types7networkNtB2_7Network13default_relay
FN:136,_RNvMNtCsaaQWVZq1tay_24cardano_blockchain_types7networkNtB2_7Network20default_mithril_path
FN:114,_RNvMNtCsaaQWVZq1tay_24cardano_blockchain_types7networkNtB2_7Network26default_mithril_aggregator
FN:125,_RNvMNtCsaaQWVZq1tay_24cardano_blockchain_types7networkNtB2_7Network27default_mithril_genesis_key
FN:230,_RNvMNtCsaaQWVZq1tay_24cardano_blockchain_types7networkNtB2_7Network12slot_to_time
FN:247,_RNvMNtCsaaQWVZq1tay_24cardano_blockchain_types7networkNtB2_7Network12time_to_slot
FN:179,_RNvMNtCsaaQWVZq1tay_24cardano_blockchain_types7networkNtB2_7Network14genesis_values
FN:308,_RNvNtNtCsaaQWVZq1tay_24cardano_blockchain_types7network5testss_22test_variant_to_string
FN:349,_RNvNtNtCsaaQWVZq1tay_24cardano_blockchain_types7network5testss_27test_time_to_slot_byron_era
FN:391,_RNvNtNtCsaaQWVZq1tay_24cardano_blockchain_types7network5testss_29test_time_to_slot_shelley_era
FN:337,_RNvNtNtCsaaQWVZq1tay_24cardano_blockchain_types7network5testss_35test_time_to_slot_before_blockchain
FN:464,_RNvNtNtCsaaQWVZq1tay_24cardano_blockchain_types7network5testss_37test_conway_era_time_to_slot_and_back
FN:408,_RNvNtNtCsaaQWVZq1tay_24cardano_blockchain_types7network5testss_37test_slot_to_time_to_slot_consistency
FN:428,_RNvNtNtCsaaQWVZq1tay_24cardano_blockchain_types7network5testss_37test_time_to_slot_to_time_consistency
FN:366,_RNvNtNtCsaaQWVZq1tay_24cardano_blockchain_types7network5testss_39test_time_to_slot_transition_to_shelley
FNDA:18,_RNvXs0_NtCsaaQWVZq1tay_24cardano_blockchain_types7networkNtCsgm3IeTu00LI_16pallas_addresses7NetworkINtNtCs66KPHxksi63_4core7convert4FromRNtB5_7NetworkE4from
FNDA:18,_RNvXs_NtCsaaQWVZq1tay_24cardano_blockchain_types7networkNtCsgm3IeTu00LI_16pallas_addresses7NetworkINtNtCs66KPHxksi63_4core7convert4FromNtB4_7NetworkE4from
FNDA:0,_RNCNvMNtCsaaQWVZq1tay_24cardano_blockchain_types7networkNtB4_7Network20default_mithril_path0B6_
FNDA:0,_RNvMNtCsaaQWVZq1tay_24cardano_blockchain_types7networkNtB2_7Network12magic_number
FNDA:0,_RNvMNtCsaaQWVZq1tay_24cardano_blockchain_types7networkNtB2_7Network13default_relay
FNDA:0,_RNvMNtCsaaQWVZq1tay_24cardano_blockchain_types7networkNtB2_7Network20default_mithril_path
FNDA:0,_RNvMNtCsaaQWVZq1tay_24cardano_blockchain_types7networkNtB2_7Network26default_mithril_aggregator
FNDA:0,_RNvMNtCsaaQWVZq1tay_24cardano_blockchain_types7networkNtB2_7Network27default_mithril_genesis_key
FNDA:8,_RNvMNtCsaaQWVZq1tay_24cardano_blockchain_types7networkNtB2_7Network12slot_to_time
FNDA:12,_RNvMNtCsaaQWVZq1tay_24cardano_blockchain_types7networkNtB2_7Network12time_to_slot
FNDA:26,_RNvMNtCsaaQWVZq1tay_24cardano_blockchain_types7networkNtB2_7Network14genesis_values
FNDA:1,_RNvNtNtCsaaQWVZq1tay_24cardano_blockchain_types7network5testss_22test_variant_to_string
FNDA:1,_RNvNtNtCsaaQWVZq1tay_24cardano_blockchain_types7network5testss_27test_time_to_slot_byron_era
FNDA:1,_RNvNtNtCsaaQWVZq1tay_24cardano_blockchain_types7network5testss_29test_time_to_slot_shelley_era
FNDA:1,_RNvNtNtCsaaQWVZq1tay_24cardano_blockchain_types7network5testss_35test_time_to_slot_before_blockchain
FNDA:1,_RNvNtNtCsaaQWVZq1tay_24cardano_blockchain_types7network5testss_37test_conway_era_time_to_slot_and_back
FNDA:1,_RNvNtNtCsaaQWVZq1tay_24cardano_blockchain_types7network5testss_37test_slot_to_time_to_slot_consistency
FNDA:1,_RNvNtNtCsaaQWVZq1tay_24cardano_blockchain_types7network5testss_37test_time_to_slot_to_time_consistency
FNDA:1,_RNvNtNtCsaaQWVZq1tay_24cardano_blockchain_types7network5testss_39test_time_to_slot_transition_to_shelley
FNF:19
FNH:13
DA:103,0
DA:104,0
DA:105,0
DA:106,0
DA:107,0
DA:108,0
DA:110,0
DA:114,0
DA:115,0
DA:116,0
DA:117,0
DA:118,0
DA:119,0
DA:121,0
DA:125,0
DA:126,0
DA:127,0
DA:128,0
DA:129,0
DA:130,0
DA:132,0
DA:136,0
DA:141,0
DA:142,0
DA:149,0
DA:150,0
DA:151,0
DA:152,0
DA:153,0
DA:154,0
DA:155,0
DA:159,0
DA:162,0
DA:165,0
DA:167,0
DA:168,0
DA:169,0
DA:170,0
DA:174,0
DA:175,0
DA:179,26
DA:180,26
DA:181,26
DA:182,0
DA:183,0
DA:185,0
DA:186,0
DA:187,0
DA:188,0
DA:189,0
DA:190,0
DA:191,0
DA:192,0
DA:193,0
DA:194,0
DA:195,0
DA:196,0
DA:199,0
DA:200,0
DA:201,0
DA:202,0
DA:203,0
DA:204,0
DA:205,0
DA:206,0
DA:207,0
DA:208,0
DA:209,0
DA:210,0
DA:211,0
DA:212,0
DA:215,26
DA:219,0
DA:220,0
DA:221,0
DA:222,0
DA:223,0
DA:224,0
DA:226,0
DA:230,8
DA:231,8
DA:232,8
DA:233,8
DA:234,8
DA:235,8
DA:237,8
DA:238,8
DA:239,8
DA:247,12
DA:248,12
DA:249,12
DA:250,12
DA:251,12
DA:253,12
DA:254,12
DA:255,12
DA:256,12
DA:259,12
DA:260,1
DA:261,11
DA:263,11
DA:265,6
DA:266,6
DA:267,6
DA:268,6
DA:269,6
DA:272,5
DA:273,5
DA:274,5
DA:275,5
DA:276,5
DA:279,11
DA:280,11
DA:281,11
DA:282,12
DA:286,18
DA:287,18
DA:288,18
DA:292,18
DA:293,18
DA:294,6
DA:295,12
DA:297,18
DA:308,1
DA:309,1
DA:310,1
DA:311,1
DA:312,1
DA:313,1
DA:314,1
DA:315,1
DA:316,1
DA:317,1
DA:318,1
DA:319,1
DA:320,1
DA:321,1
DA:322,1
DA:323,1
DA:324,1
DA:325,1
DA:326,1
DA:327,1
DA:328,1
DA:332,1
DA:333,1
DA:334,1
DA:337,1
DA:338,1
DA:339,1
DA:341,1
DA:342,1
DA:343,1
DA:345,1
DA:346,1
DA:349,1
DA:350,1
DA:351,1
DA:353,1
DA:354,1
DA:355,1
DA:356,1
DA:359,1
DA:360,1
DA:362,1
DA:363,1
DA:366,1
DA:367,1
DA:368,1
DA:370,1
DA:371,1
DA:372,1
DA:373,1
DA:376,1
DA:377,1
DA:378,1
DA:379,1
DA:380,1
DA:381,1
DA:382,1
DA:383,1
DA:384,1
DA:387,1
DA:388,1
DA:391,1
DA:392,1
DA:393,1
DA:395,1
DA:396,1
DA:397,1
DA:398,1
DA:401,1
DA:402,1
DA:404,1
DA:405,1
DA:408,1
DA:409,1
DA:412,1
DA:414,5
DA:415,4
DA:416,4
DA:418,4
DA:420,4
DA:421,0
DA:424,1
DA:428,1
DA:429,1
DA:430,1
DA:433,1
DA:434,1
DA:435,1
DA:436,1
DA:437,1
DA:440,1
DA:441,1
DA:442,1
DA:445,1
DA:448,4
DA:449,3
DA:450,3
DA:452,3
DA:453,3
DA:454,3
DA:455,0
DA:458,0
DA:461,1
DA:464,1
DA:465,1
DA:466,1
DA:469,1
DA:470,1
DA:471,1
DA:474,1
DA:476,1
DA:477,1
DA:478,1
DA:479,0
DA:482,1
DA:484,1
DA:485,1
DA:486,1
DA:487,0
DA:489,1
BRF:0
BRH:0
LF:243
LH:163
end_of_record
SF:/root/build/cardano-blockchain-types/src/point.rs
FN:504,_RNvNtCsaaQWVZq1tay_24cardano_blockchain_types5point9cmp_point
FN:438,_RNvXs5_NtCsaaQWVZq1tay_24cardano_blockchain_types5pointNtB5_5PointNtNtCs66KPHxksi63_4core3cmp3Ord3cmp
FN:297,_RNvMNtCsaaQWVZq1tay_24cardano_blockchain_types5pointNtB2_5Point15hash_or_default
FN:270,_RNvMNtCsaaQWVZq1tay_24cardano_blockchain_types5pointNtB2_5Point15slot_or_default
FN:100,_RNvMNtCsaaQWVZq1tay_24cardano_blockchain_types5pointNtB2_5Point3new
FN:132,_RNvMNtCsaaQWVZq1tay_24cardano_blockchain_types5pointNtB2_5Point5fuzzy
FN:332,_RNvMNtCsaaQWVZq1tay_24cardano_blockchain_types5pointNtB2_5Point9strict_eq
FN:559,_RNvNtNtCsaaQWVZq1tay_24cardano_blockchain_types5point5testss_16test_comparisons
FN:531,_RNvNtNtCsaaQWVZq1tay_24cardano_blockchain_types5point5testss_20test_cmp_hash_simple
FN:542,_RNvNtNtCsaaQWVZq1tay_24cardano_blockchain_types5point5testss_20test_get_hash_simple
FN:549,_RNvNtNtCsaaQWVZq1tay_24cardano_blockchain_types5point5testss_22test_identical_compare
FN:610,_RNvNtNtCsaaQWVZq1tay_24cardano_blockchain_types5point5testss_37test_create_point_and_fuzzy_not_equal
FN:376,_RNvXs0_NtCsaaQWVZq1tay_24cardano_blockchain_types5pointNtB5_5PointINtNtCs66KPHxksi63_4core3cmp9PartialEqINtNtB17_6option6OptionINtNtNtCsla93c1KTxZB_13pallas_crypto4hash4hash4HashKj20_EEE2eq
FN:385,_RNvXs1_NtCsaaQWVZq1tay_24cardano_blockchain_types5pointNtB5_5PointNtNtCs66KPHxksi63_4core3fmt7Display3fmt
FN:427,_RNvXs4_NtCsaaQWVZq1tay_24cardano_blockchain_types5pointNtB5_5PointNtNtCs66KPHxksi63_4core3cmp10PartialOrd11partial_cmp
FN:345,_RNvXs_NtCsaaQWVZq1tay_24cardano_blockchain_types5pointNtB4_5PointINtNtCs66KPHxksi63_4core3cmp9PartialEqINtNtB16_6option6OptionINtNtB6_6hashes11Blake2bHashKj20_EEE2eq
FN:220,_RNvMNtCsaaQWVZq1tay_24cardano_blockchain_types5pointNtB2_5Point10is_unknown
FN:199,_RNvMNtCsaaQWVZq1tay_24cardano_blockchain_types5pointNtB2_5Point9is_origin
FN:457,_RNvXs7_NtCsaaQWVZq1tay_24cardano_blockchain_types5pointNtB5_5PointINtNtCs66KPHxksi63_4core3cmp10PartialOrdyE11partial_cmp
FN:241,_RNvMNtCsaaQWVZq1tay_24cardano_blockchain_types5pointNtB2_5Point6is_tip
FN:143,_RNvMNtCsaaQWVZq1tay_24cardano_blockchain_types5pointNtB2_5Point8as_fuzzy
FN:172,_RNvMNtCsaaQWVZq1tay_24cardano_blockchain_types5pointNtB2_5Point8is_fuzzy
FN:413,_RNvXs2_NtCsaaQWVZq1tay_24cardano_blockchain_types5pointNtB5_5PointINtNtCs66KPHxksi63_4core7convert4FromNtNtNtCsi5KJfd38ky1_17pallas_primitives5types5point5PointE4from
FN:419,_RNvXs3_NtCsaaQWVZq1tay_24cardano_blockchain_types5pointNtNtNtCsi5KJfd38ky1_17pallas_primitives5types5point5PointINtNtCs66KPHxksi63_4core7convert4FromNtB5_5PointE4from
FN:447,_RNvXs6_NtCsaaQWVZq1tay_24cardano_blockchain_types5pointNtB5_5PointINtNtCs66KPHxksi63_4core3cmp9PartialEqyE2eq
FN:469,_RNvXs8_NtCsaaQWVZq1tay_24cardano_blockchain_types5pointNtB5_5PointINtNtCs66KPHxksi63_4core3cmp9PartialEqINtNtB17_6option6OptionBR_EE2eq
FN:484,_RNvXs9_NtCsaaQWVZq1tay_24cardano_blockchain_types5pointNtB5_5PointINtNtCs66KPHxksi63_4core3cmp10PartialOrdINtNtB17_6option6OptionBR_EE11partial_cmp
FN:498,_RNvXsa_NtCsaaQWVZq1tay_24cardano_blockchain_types5pointNtB5_5PointNtNtCs66KPHxksi63_4core7default7Default7default
FNDA:140,_RNvNtCsaaQWVZq1tay_24cardano_blockchain_types5point9cmp_point
FNDA:140,_RNvXs5_NtCsaaQWVZq1tay_24cardano_blockchain_types5pointNtB5_5PointNtNtCs66KPHxksi63_4core3cmp3Ord3cmp
FNDA:1,_RNvMNtCsaaQWVZq1tay_24cardano_blockchain_types5pointNtB2_5Point15hash_or_default
FNDA:0,_RNvMNtCsaaQWVZq1tay_24cardano_blockchain_types5pointNtB2_5Point15slot_or_default
FNDA:71,_RNvMNtCsaaQWVZq1tay_24cardano_blockchain_types5pointNtB2_5Point3new
FNDA:3,_RNvMNtCsaaQWVZq1tay_24cardano_blockchain_types5pointNtB2_5Point5fuzzy
FNDA:2,_RNvMNtCsaaQWVZq1tay_24cardano_blockchain_types5pointNtB2_5Point9strict_eq
FNDA:1,_RNvNtNtCsaaQWVZq1tay_24cardano_blockchain_types5point5testss_16test_comparisons
FNDA:1,_RNvNtNtCsaaQWVZq1tay_24cardano_blockchain_types5point5testss_20test_cmp_hash_simple
FNDA:1,_RNvNtNtCsaaQWVZq1tay_24cardano_blockchain_types5point5testss_20test_get_hash_simple
FNDA:1,_RNvNtNtCsaaQWVZq1tay_24cardano_blockchain_types5point5testss_22test_identical_compare
FNDA:1,_RNvNtNtCsaaQWVZq1tay_24cardano_blockchain_types5point5testss_37test_create_point_and_fuzzy_not_equal
FNDA:21,_RNvXs0_NtCsaaQWVZq1tay_24cardano_blockchain_types5pointNtB5_5PointINtNtCs66KPHxksi63_4core3cmp9PartialEqINtNtB17_6option6OptionINtNtNtCsla93c1KTxZB_13pallas_crypto4hash4hash4HashKj20_EEE2eq
FNDA:0,_RNvXs1_NtCsaaQWVZq1tay_24cardano_blockchain_types5pointNtB5_5PointNtNtCs66KPHxksi63_4core3fmt7Display3fmt
FNDA:22,_RNvXs4_NtCsaaQWVZq1tay_24cardano_blockchain_types5pointNtB5_5PointNtNtCs66KPHxksi63_4core3cmp10PartialOrd11partial_cmp
FNDA:24,_RNvXs_NtCsaaQWVZq1tay_24cardano_blockchain_types5pointNtB4_5PointINtNtCs66KPHxksi63_4core3cmp9PartialEqINtNtB16_6option6OptionINtNtB6_6hashes11Blake2bHashKj20_EEE2eq
FNDA:22,_RNvMNtCsaaQWVZq1tay_24cardano_blockchain_types5pointNtB2_5Point10is_unknown
FNDA:32,_RNvMNtCsaaQWVZq1tay_24cardano_blockchain_types5pointNtB2_5Point9is_origin
FNDA:27,_RNvXs7_NtCsaaQWVZq1tay_24cardano_blockchain_types5pointNtB5_5PointINtNtCs66KPHxksi63_4core3cmp10PartialOrdyE11partial_cmp
FNDA:0,_RNvMNtCsaaQWVZq1tay_24cardano_blockchain_types5pointNtB2_5Point6is_tip
FNDA:0,_RNvMNtCsaaQWVZq1tay_24cardano_blockchain_types5pointNtB2_5Point8as_fuzzy
FNDA:0,_RNvMNtCsaaQWVZq1tay_24cardano_blockchain_types5pointNtB2_5Point8is_fuzzy
FNDA:0,_RNvXs2_NtCsaaQWVZq1tay_24cardano_blockchain_types5pointNtB5_5PointINtNtCs66KPHxksi63_4core7convert4FromNtNtNtCsi5KJfd38ky1_17pallas_primitives5types5point5PointE4from
FNDA:0,_RNvXs3_NtCsaaQWVZq1tay_24cardano_blockchain_types5pointNtNtNtCsi5KJfd38ky1_17pallas_primitives5types5point5PointINtNtCs66KPHxksi63_4core7convert4FromNtB5_5PointE4from
FNDA:0,_RNvXs6_NtCsaaQWVZq1tay_24cardano_blockchain_types5pointNtB5_5PointINtNtCs66KPHxksi63_4core3cmp9PartialEqyE2eq
FNDA:0,_RNvXs8_NtCsaaQWVZq1tay_24cardano_blockchain_types5pointNtB5_5PointINtNtCs66KPHxksi63_4core3cmp9PartialEqINtNtB17_6option6OptionBR_EE2eq
FNDA:0,_RNvXs9_NtCsaaQWVZq1tay_24cardano_blockchain_types5pointNtB5_5PointINtNtCs66KPHxksi63_4core3cmp10PartialOrdINtNtB17_6option6OptionBR_EE11partial_cmp
FNDA:0,_RNvXsa_NtCsaaQWVZq1tay_24cardano_blockchain_types5pointNtB5_5PointNtNtCs66KPHxksi63_4core7default7Default7default
FNF:28
FNH:17
DA:100,71
DA:101,71
DA:102,71
DA:103,71
DA:104,71
DA:105,71
DA:106,71
DA:107,71
DA:108,71
DA:132,3
DA:133,3
DA:134,3
DA:135,3
DA:136,3
DA:137,3
DA:143,0
DA:144,0
DA:145,0
DA:147,0
DA:148,0
DA:149,0
DA:151,0
DA:154,0
DA:172,0
DA:173,0
DA:174,0
DA:176,0
DA:177,0
DA:178,0
DA:181,0
DA:199,32
DA:200,32
DA:201,27
DA:202,27
DA:204,5
DA:206,32
DA:220,22
DA:221,22
DA:222,22
DA:223,22
DA:225,0
DA:227,22
DA:241,0
DA:242,0
DA:243,0
DA:244,0
DA:246,0
DA:248,0
DA:270,0
DA:271,0
DA:272,0
DA:297,1
DA:298,1
DA:299,1
DA:300,1
DA:303,0
DA:305,1
DA:332,2
DA:333,2
DA:334,2
DA:335,2
DA:336,2
DA:337,2
DA:345,24
DA:346,24
DA:347,24
DA:348,24
DA:349,24
DA:350,22
DA:351,22
DA:352,21
DA:354,21
DA:356,1
DA:360,2
DA:361,1
DA:362,1
DA:364,1
DA:368,24
DA:376,21
DA:377,21
DA:378,21
DA:379,21
DA:380,21
DA:381,21
DA:385,0
DA:386,0
DA:387,0
DA:388,0
DA:389,0
DA:390,0
DA:391,0
DA:392,0
DA:393,0
DA:394,0
DA:395,0
DA:397,0
DA:398,0
DA:399,0
DA:400,0
DA:401,0
DA:402,0
DA:403,0
DA:404,0
DA:407,0
DA:409,0
DA:413,0
DA:414,0
DA:415,0
DA:419,0
DA:420,0
DA:421,0
DA:427,22
DA:428,22
DA:429,22
DA:430,22
DA:431,22
DA:432,22
DA:438,140
DA:439,140
DA:440,140
DA:441,140
DA:442,140
DA:443,140
DA:447,0
DA:448,0
DA:449,0
DA:450,0
DA:451,0
DA:452,0
DA:457,27
DA:458,27
DA:459,27
DA:460,27
DA:461,27
DA:462,27
DA:469,0
DA:470,0
DA:471,0
DA:472,0
DA:473,0
DA:474,0
DA:476,0
DA:478,0
DA:484,0
DA:485,0
DA:486,0
DA:487,0
DA:488,0
DA:489,0
DA:491,0
DA:493,0
DA:498,0
DA:499,0
DA:500,0
DA:504,140
DA:505,140
DA:506,140
DA:507,140
DA:508,140
DA:510,6
DA:511,0
DA:512,6
DA:515,134
DA:516,134
DA:517,6
DA:518,128
DA:519,128
DA:524,140
DA:531,1
DA:532,1
DA:533,1
DA:535,1
DA:536,1
DA:537,1
DA:538,1
DA:539,1
DA:542,1
DA:543,1
DA:545,1
DA:546,1
DA:549,1
DA:550,1
DA:551,1
DA:552,1
DA:554,1
DA:555,1
DA:556,1
DA:559,1
DA:560,1
DA:561,1
DA:562,1
DA:563,1
DA:564,1
DA:565,1
DA:566,1
DA:568,1
DA:569,1
DA:570,1
DA:571,1
DA:572,1
DA:573,1
DA:574,1
DA:575,1
DA:576,1
DA:577,1
DA:579,1
DA:580,1
DA:581,1
DA:582,1
DA:583,1
DA:584,1
DA:585,1
DA:587,1
DA:588,1
DA:589,1
DA:590,1
DA:591,1
DA:592,1
DA:593,1
DA:594,1
DA:595,1
DA:597,1
DA:598,1
DA:599,1
DA:600,1
DA:601,1
DA:602,1
DA:603,1
DA:604,1
DA:605,1
DA:606,1
DA:607,1
DA:610,1
DA:611,1
DA:612,1
DA:614,1
DA:615,1
BRF:0
BRH:0
LF:237
LH:158
end_of_record
SF:/root/build/cardano-blockchain-types/src/slot.rs
FN:112,_RNvNtNtCsaaQWVZq1tay_24cardano_blockchain_types4slot5testss_29test_from_slot_to_bigint_zero
FN:90,_RNvNtNtCsaaQWVZq1tay_24cardano_blockchain_types4slot5testss_33test_from_bigint_to_slot_negative
FN:82,_RNvNtNtCsaaQWVZq1tay_24cardano_blockchain_types4slot5testss_33test_from_bigint_to_slot_positive
FN:104,_RNvNtNtCsaaQWVZq1tay_24cardano_blockchain_types4slot5testss_33test_from_slot_to_bigint_positive
FN:97,_RNvNtNtCsaaQWVZq1tay_24cardano_blockchain_types4slot5testss_36test_from_bigint_to_slot_large_value
FN:120,_RNvNtNtCsaaQWVZq1tay_24cardano_blockchain_types4slot5testss_36test_from_slot_to_bigint_large_value
FN:59,_RNvXs3_NtCsaaQWVZq1tay_24cardano_blockchain_types4slotNtB5_4SlotINtNtCs66KPHxksi63_4core7convert4FromNtNtCs7TVHgquXff5_10num_bigint6bigint6BigIntE4from
FN:70,_RNvXs4_NtCsaaQWVZq1tay_24cardano_blockchain_types4slotNtNtCs7TVHgquXff5_10num_bigint6bigint6BigIntINtNtCs66KPHxksi63_4core7convert4FromNtB5_4SlotE4from
FN:39,_RNvXs1_NtCsaaQWVZq1tay_24cardano_blockchain_types4slotNtB5_4SlotINtNtNtCs66KPHxksi63_4core3ops5arith9MulAssignyE10mul_assign
FN:50,_RNvXs2_NtCsaaQWVZq1tay_24cardano_blockchain_types4slotNtB5_4SlotNtNtNtCs66KPHxksi63_4core3ops5arith3Sub3sub
FN:16,_RINvMNtCsaaQWVZq1tay_24cardano_blockchain_types4slotNtB3_4Slot15from_saturatingxEB5_
FN:16,_RINvMNtCsaaQWVZq1tay_24cardano_blockchain_types4slotNtB3_4Slot15from_saturatingyEB5_
FN:33,_RNvXs0_NtCsaaQWVZq1tay_24cardano_blockchain_types4slotyINtNtCs66KPHxksi63_4core7convert4FromNtB5_4SlotE4from
FN:27,_RNvXs_NtCsaaQWVZq1tay_24cardano_blockchain_types4slotNtB4_4SlotINtNtCs66KPHxksi63_4core7convert4FromyE4from
FNDA:1,_RNvNtNtCsaaQWVZq1tay_24cardano_blockchain_types4slot5testss_29test_from_slot_to_bigint_zero
FNDA:1,_RNvNtNtCsaaQWVZq1tay_24cardano_blockchain_types4slot5testss_33test_from_bigint_to_slot_negative
FNDA:1,_RNvNtNtCsaaQWVZq1tay_24cardano_blockchain_types4slot5testss_33test_from_bigint_to_slot_positive
FNDA:1,_RNvNtNtCsaaQWVZq1tay_24cardano_blockchain_types4slot5testss_33test_from_slot_to_bigint_positive
FNDA:1,_RNvNtNtCsaaQWVZq1tay_24cardano_blockchain_types4slot5testss_36test_from_bigint_to_slot_large_value
FNDA:1,_RNvNtNtCsaaQWVZq1tay_24cardano_blockchain_types4slot5testss_36test_from_slot_to_bigint_large_value
FNDA:3,_RNvXs3_NtCsaaQWVZq1tay_24cardano_blockchain_types4slotNtB5_4SlotINtNtCs66KPHxksi63_4core7convert4FromNtNtCs7TVHgquXff5_10num_bigint6bigint6BigIntE4from
FNDA:3,_RNvXs4_NtCsaaQWVZq1tay_24cardano_blockchain_types4slotNtNtCs7TVHgquXff5_10num_bigint6bigint6BigIntINtNtCs66KPHxksi63_4core7convert4FromNtB5_4SlotE4from
FNDA:0,_RNvXs1_NtCsaaQWVZq1tay_24cardano_blockchain_types4slotNtB5_4SlotINtNtNtCs66KPHxksi63_4core3ops5arith9MulAssignyE10mul_assign
FNDA:0,_RNvXs2_NtCsaaQWVZq1tay_24cardano_blockchain_types4slotNtB5_4SlotNtNtNtCs66KPHxksi63_4core3ops5arith3Sub3sub
FNDA:11,_RINvMNtCsaaQWVZq1tay_24cardano_blockchain_types4slotNtB3_4Slot15from_saturatingxEB5_
FNDA:9,_RINvMNtCsaaQWVZq1tay_24cardano_blockchain_types4slotNtB3_4Slot15from_saturatingyEB5_
FNDA:82,_RNvXs0_NtCsaaQWVZq1tay_24cardano_blockchain_types4slotyINtNtCs66KPHxksi63_4core7convert4FromNtB5_4SlotE4from
FNDA:86,_RNvXs_NtCsaaQWVZq1tay_24cardano_blockchain_types4slotNtB4_4SlotINtNtCs66KPHxksi63_4core7convert4FromyE4from
FNF:13
FNH:11
DA:16,20
DA:17,20
DA:18,20
DA:19,20
DA:20,20
DA:21,20
DA:22,20
DA:23,20
DA:27,86
DA:28,86
DA:29,86
DA:33,82
DA:34,82
DA:35,82
DA:39,0
DA:40,0
DA:41,0
DA:42,0
DA:43,0
DA:44,0
DA:50,0
DA:51,0
DA:52,0
DA:53,0
DA:54,0
DA:55,0
DA:59,3
DA:60,3
DA:61,1
DA:63,2
DA:64,2
DA:66,3
DA:70,3
DA:71,3
DA:72,3
DA:82,1
DA:84,1
DA:85,1
DA:86,1
DA:87,1
DA:90,1
DA:91,1
DA:92,1
DA:93,1
DA:94,1
DA:97,1
DA:98,1
DA:99,1
DA:100,1
DA:101,1
DA:104,1
DA:106,1
DA:107,1
DA:108,1
DA:109,1
DA:112,1
DA:114,1
DA:115,1
DA:116,1
DA:117,1
DA:120,1
DA:121,1
DA:122,1
DA:123,1
DA:124,1
BRF:0
BRH:0
LF:65
LH:53
end_of_record
SF:/root/build/cardano-blockchain-types/src/stake_address.rs
FN:138,_RNCNvXs3_NtCsaaQWVZq1tay_24cardano_blockchain_types13stake_addressNtB7_12StakeAddressNtNtCs66KPHxksi63_4core3fmt7Display3fmt0B9_
FN:23,_RNvMNtCsaaQWVZq1tay_24cardano_blockchain_types13stake_addressNtB2_12StakeAddress3new
FN:85,_RNvXs1_NtCsaaQWVZq1tay_24cardano_blockchain_types13stake_addressNtB5_12StakeAddressINtNtCs66KPHxksi63_4core7convert7TryFromRShE8try_from
FN:128,_RNvXs3_NtCsaaQWVZq1tay_24cardano_blockchain_types13stake_addressNtB5_12StakeAddressNtNtCs66KPHxksi63_4core3fmt7Display3fmt
FN:122,_RNvXs2_NtCsaaQWVZq1tay_24cardano_blockchain_types13stake_addressINtNtCs8Ty2CzGA6U3_5alloc3vec3VechEINtNtCs66KPHxksi63_4core7convert4FromNtB5_12StakeAddressE4from
FN:77,_RNCNvXs0_NtCsaaQWVZq1tay_24cardano_blockchain_types13stake_addressNtB7_12StakeAddressINtNtCs66KPHxksi63_4core7convert7TryFromNtCsgm3IeTu00LI_16pallas_addresses14ShelleyAddressE8try_from0B9_
FN:49,_RNvMNtCsaaQWVZq1tay_24cardano_blockchain_types13stake_addressNtB2_12StakeAddress15from_stake_cred
FN:75,_RNvXs0_NtCsaaQWVZq1tay_24cardano_blockchain_types13stake_addressNtB5_12StakeAddressINtNtCs66KPHxksi63_4core7convert7TryFromNtCsgm3IeTu00LI_16pallas_addresses14ShelleyAddressE8try_from
FN:67,_RNvXs_NtCsaaQWVZq1tay_24cardano_blockchain_types13stake_addressNtB4_12StakeAddressINtNtCs66KPHxksi63_4core7convert4FromNtCsgm3IeTu00LI_16pallas_addresses12StakeAddressE4from
FN:61,_RNvMNtCsaaQWVZq1tay_24cardano_blockchain_types13stake_addressNtB2_12StakeAddress9is_script
FN:188,_RNvNtNtCsaaQWVZq1tay_24cardano_blockchain_types13stake_address5testss_7display
FN:149,_RNvNtNtCsaaQWVZq1tay_24cardano_blockchain_types13stake_address5testss_9roundtrip
FNDA:0,_RNCNvXs3_NtCsaaQWVZq1tay_24cardano_blockchain_types13stake_addressNtB7_12StakeAddressNtNtCs66KPHxksi63_4core3fmt7Display3fmt0B9_
FNDA:18,_RNvMNtCsaaQWVZq1tay_24cardano_blockchain_types13stake_addressNtB2_12StakeAddress3new
FNDA:6,_RNvXs1_NtCsaaQWVZq1tay_24cardano_blockchain_types13stake_addressNtB5_12StakeAddressINtNtCs66KPHxksi63_4core7convert7TryFromRShE8try_from
FNDA:6,_RNvXs3_NtCsaaQWVZq1tay_24cardano_blockchain_types13stake_addressNtB5_12StakeAddressNtNtCs66KPHxksi63_4core3fmt7Display3fmt
FNDA:6,_RNvXs2_NtCsaaQWVZq1tay_24cardano_blockchain_types13stake_addressINtNtCs8Ty2CzGA6U3_5alloc3vec3VechEINtNtCs66KPHxksi63_4core7convert4FromNtB5_12StakeAddressE4from
FNDA:0,_RNCNvXs0_NtCsaaQWVZq1tay_24cardano_blockchain_types13stake_addressNtB7_12StakeAddressINtNtCs66KPHxksi63_4core7convert7TryFromNtCsgm3IeTu00LI_16pallas_addresses14ShelleyAddressE8try_from0B9_
FNDA:0,_RNvMNtCsaaQWVZq1tay_24cardano_blockchain_types13stake_addressNtB2_12StakeAddress15from_stake_cred
FNDA:0,_RNvXs0_NtCsaaQWVZq1tay_24cardano_blockchain_types13stake_addressNtB5_12StakeAddressINtNtCs66KPHxksi63_4core7convert7TryFromNtCsgm3IeTu00LI_16pallas_addresses14ShelleyAddressE8try_from
FNDA:0,_RNvXs_NtCsaaQWVZq1tay_24cardano_blockchain_types13stake_addressNtB4_12StakeAddressINtNtCs66KPHxksi63_4core7convert4FromNtCsgm3IeTu00LI_16pallas_addresses12StakeAddressE4from
FNDA:12,_RNvMNtCsaaQWVZq1tay_24cardano_blockchain_types13stake_addressNtB2_12StakeAddress9is_script
FNDA:1,_RNvNtNtCsaaQWVZq1tay_24cardano_blockchain_types13stake_address5testss_7display
FNDA:1,_RNvNtNtCsaaQWVZq1tay_24cardano_blockchain_types13stake_address5testss_9roundtrip
FNF:12
FNH:7
DA:23,18
DA:24,18
DA:25,18
DA:26,18
DA:27,18
DA:28,18
DA:29,18
DA:34,18
DA:35,18
DA:36,9
DA:38,9
DA:40,18
DA:43,18
DA:44,18
DA:45,18
DA:49,0
DA:50,0
DA:51,0
DA:52,0
DA:53,0
DA:54,0
DA:55,0
DA:57,0
DA:61,12
DA:62,12
DA:63,12
DA:67,0
DA:68,0
DA:69,0
DA:75,0
DA:76,0
DA:77,0
DA:78,0
DA:79,0
DA:85,6
DA:91,6
DA:92,6
DA:94,0
DA:95,0
DA:96,0
DA:97,0
DA:102,6
DA:103,4
DA:104,2
DA:105,0
DA:109,6
DA:110,6
DA:111,3
DA:112,3
DA:113,0
DA:116,6
DA:117,6
DA:122,6
DA:123,6
DA:124,6
DA:128,6
DA:129,6
DA:130,6
DA:131,6
DA:135,6
DA:136,6
DA:137,6
DA:138,6
DA:139,6
DA:140,6
DA:149,1
DA:150,1
DA:151,1
DA:152,1
DA:153,1
DA:154,1
DA:155,1
DA:156,1
DA:157,1
DA:158,1
DA:159,1
DA:160,1
DA:162,7
DA:163,6
DA:164,6
DA:167,6
DA:168,6
DA:169,6
DA:170,6
DA:171,6
DA:172,0
DA:174,6
DA:176,6
DA:177,0
DA:181,6
DA:182,6
DA:183,6
DA:185,1
DA:188,1
DA:189,1
DA:190,1
DA:191,1
DA:194,1
DA:195,1
DA:196,1
DA:197,1
DA:198,1
DA:199,1
DA:200,1
DA:201,1
DA:202,1
DA:203,1
DA:204,1
DA:205,1
DA:206,1
DA:207,1
DA:208,1
DA:209,1
DA:210,1
DA:211,1
DA:212,1
DA:213,1
DA:214,1
DA:215,1
DA:216,1
DA:217,1
DA:218,1
DA:219,1
DA:220,1
DA:221,1
DA:222,1
DA:223,1
DA:224,1
DA:225,1
DA:226,1
DA:227,1
DA:228,1
DA:229,1
DA:230,1
DA:231,1
DA:234,7
DA:235,6
DA:236,6
DA:238,1
BRF:0
BRH:0
LF:141
LH:115
end_of_record
SF:/root/build/cardano-blockchain-types/src/txn_index.rs
FN:17,_RNvXNtCsaaQWVZq1tay_24cardano_blockchain_types9txn_indexNtB2_8TxnIndexINtNtCs66KPHxksi63_4core7convert4FromjE4fromB4_
FN:46,_RNvNtNtCsaaQWVZq1tay_24cardano_blockchain_types9txn_index5testss_25test_from_u8_to_txn_index
FN:58,_RNvNtNtCsaaQWVZq1tay_24cardano_blockchain_types9txn_index5testss_26test_from_i32_to_txn_index
FN:52,_RNvNtNtCsaaQWVZq1tay_24cardano_blockchain_types9txn_index5testss_26test_from_u16_to_txn_index
FN:64,_RNvNtNtCsaaQWVZq1tay_24cardano_blockchain_types9txn_index5testss_26test_from_u32_to_txn_index
FN:91,_RNvNtNtCsaaQWVZq1tay_24cardano_blockchain_types9txn_index5testss_31test_txn_index_to_i16_with_zero
FN:70,_RNvNtNtCsaaQWVZq1tay_24cardano_blockchain_types9txn_index5testss_32test_from_large_i32_to_txn_index
FN:77,_RNvNtNtCsaaQWVZq1tay_24cardano_blockchain_types9txn_index5testss_34test_txn_index_to_i16_within_range
FN:84,_RNvNtNtCsaaQWVZq1tay_24cardano_blockchain_types9txn_index5testss_37test_txn_index_to_i16_with_saturation
FN:17,_RNvXNtCsaaQWVZq1tay_24cardano_blockchain_types9txn_indexNtB2_8TxnIndexINtNtCs66KPHxksi63_4core7convert4FromhE4fromB4_
FN:17,_RNvXNtCsaaQWVZq1tay_24cardano_blockchain_types9txn_indexNtB2_8TxnIndexINtNtCs66KPHxksi63_4core7convert4FromtE4fromB4_
FN:23,_RNvXs_NtCsaaQWVZq1tay_24cardano_blockchain_types9txn_indexsINtNtCs66KPHxksi63_4core7convert4FromNtB4_8TxnIndexE4from
FN:17,_RNvXNtCsaaQWVZq1tay_24cardano_blockchain_types9txn_indexNtB2_8TxnIndexINtNtCs66KPHxksi63_4core7convert4FrommE4fromB4_
FN:29,_RNvXs0_NtCsaaQWVZq1tay_24cardano_blockchain_types9txn_indexjINtNtCs66KPHxksi63_4core7convert4FromNtB5_8TxnIndexE4from
FN:35,_RNvXs1_NtCsaaQWVZq1tay_24cardano_blockchain_types9txn_indextINtNtCs66KPHxksi63_4core7convert4FromNtB5_8TxnIndexE4from
FN:17,_RNvXNtCsaaQWVZq1tay_24cardano_blockchain_types9txn_indexNtB2_8TxnIndexINtNtCs66KPHxksi63_4core7convert4FromlE4fromB4_
FNDA:238,_RNvXNtCsaaQWVZq1tay_24cardano_blockchain_types9txn_indexNtB2_8TxnIndexINtNtCs66KPHxksi63_4core7convert4FromjE4fromB4_
FNDA:1,_RNvNtNtCsaaQWVZq1tay_24cardano_blockchain_types9txn_index5testss_25test_from_u8_to_txn_index
FNDA:1,_RNvNtNtCsaaQWVZq1tay_24cardano_blockchain_types9txn_index5testss_26test_from_i32_to_txn_index
FNDA:1,_RNvNtNtCsaaQWVZq1tay_24cardano_blockchain_types9txn_index5testss_26test_from_u16_to_txn_index
FNDA:1,_RNvNtNtCsaaQWVZq1tay_24cardano_blockchain_types9txn_index5testss_26test_from_u32_to_txn_index
FNDA:1,_RNvNtNtCsaaQWVZq1tay_24cardano_blockchain_types9txn_index5testss_31test_txn_index_to_i16_with_zero
FNDA:1,_RNvNtNtCsaaQWVZq1tay_24cardano_blockchain_types9txn_index5testss_32test_from_large_i32_to_txn_index
FNDA:1,_RNvNtNtCsaaQWVZq1tay_24cardano_blockchain_types9txn_index5testss_34test_txn_index_to_i16_within_range
FNDA:1,_RNvNtNtCsaaQWVZq1tay_24cardano_blockchain_types9txn_index5testss_37test_txn_index_to_i16_with_saturation
FNDA:1,_RNvXNtCsaaQWVZq1tay_24cardano_blockchain_types9txn_indexNtB2_8TxnIndexINtNtCs66KPHxksi63_4core7convert4FromhE4fromB4_
FNDA:1,_RNvXNtCsaaQWVZq1tay_24cardano_blockchain_types9txn_indexNtB2_8TxnIndexINtNtCs66KPHxksi63_4core7convert4FromtE4fromB4_
FNDA:3,_RNvXs_NtCsaaQWVZq1tay_24cardano_blockchain_types9txn_indexsINtNtCs66KPHxksi63_4core7convert4FromNtB4_8TxnIndexE4from
FNDA:9,_RNvXNtCsaaQWVZq1tay_24cardano_blockchain_types9txn_indexNtB2_8TxnIndexINtNtCs66KPHxksi63_4core7convert4FrommE4fromB4_
FNDA:0,_RNvXs0_NtCsaaQWVZq1tay_24cardano_blockchain_types9txn_indexjINtNtCs66KPHxksi63_4core7convert4FromNtB5_8TxnIndexE4from
FNDA:0,_RNvXs1_NtCsaaQWVZq1tay_24cardano_blockchain_types9txn_indextINtNtCs66KPHxksi63_4core7convert4FromNtB5_8TxnIndexE4from
FNDA:11,_RNvXNtCsaaQWVZq1tay_24cardano_blockchain_types9txn_indexNtB2_8TxnIndexINtNtCs66KPHxksi63_4core7convert4FromlE4fromB4_
FNF:12
FNH:10
DA:17,260
DA:18,260
DA:19,260
DA:23,3
DA:24,3
DA:25,3
DA:29,0
DA:30,0
DA:31,0
DA:35,0
DA:36,0
DA:37,0
DA:46,1
DA:47,1
DA:48,1
DA:49,1
DA:52,1
DA:53,1
DA:54,1
DA:55,1
DA:58,1
DA:59,1
DA:60,1
DA:61,1
DA:64,1
DA:65,1
DA:66,1
DA:67,1
DA:70,1
DA:71,1
DA:72,1
DA:73,1
DA:77,1
DA:78,1
DA:79,1
DA:80,1
DA:81,1
DA:84,1
DA:85,1
DA:86,1
DA:87,1
DA:88,1
DA:91,1
DA:92,1
DA:93,1
DA:94,1
DA:95,1
BRF:0
BRH:0
LF:47
LH:41
end_of_record
SF:/root/build/cardano-blockchain-types/src/txn_output_offset.rs
FN:28,_RNvXs0_NtCsaaQWVZq1tay_24cardano_blockchain_types17txn_output_offsetjINtNtCs66KPHxksi63_4core7convert4FromNtB5_15TxnOutputOffsetE4from
FN:38,_RNvNtNtCsaaQWVZq1tay_24cardano_blockchain_types17txn_output_offset5testss_25test_from_u8_to_txn_index
FN:50,_RNvNtNtCsaaQWVZq1tay_24cardano_blockchain_types17txn_output_offset5testss_26test_from_i32_to_txn_index
FN:44,_RNvNtNtCsaaQWVZq1tay_24cardano_blockchain_types17txn_output_offset5testss_26test_from_u16_to_txn_index
FN:56,_RNvNtNtCsaaQWVZq1tay_24cardano_blockchain_types17txn_output_offset5testss_26test_from_u32_to_txn_index
FN:82,_RNvNtNtCsaaQWVZq1tay_24cardano_blockchain_types17txn_output_offset5testss_31test_txn_index_to_i16_with_zero
FN:62,_RNvNtNtCsaaQWVZq1tay_24cardano_blockchain_types17txn_output_offset5testss_32test_from_large_i32_to_txn_index
FN:68,_RNvNtNtCsaaQWVZq1tay_24cardano_blockchain_types17txn_output_offset5testss_34test_txn_index_to_i16_within_range
FN:75,_RNvNtNtCsaaQWVZq1tay_24cardano_blockchain_types17txn_output_offset5testss_37test_txn_index_to_i16_with_saturation
FN:16,_RNvXNtCsaaQWVZq1tay_24cardano_blockchain_types17txn_output_offsetNtB2_15TxnOutputOffsetINtNtCs66KPHxksi63_4core7convert4FromhE4fromB4_
FN:16,_RNvXNtCsaaQWVZq1tay_24cardano_blockchain_types17txn_output_offsetNtB2_15TxnOutputOffsetINtNtCs66KPHxksi63_4core7convert4FromlE4fromB4_
FN:16,_RNvXNtCsaaQWVZq1tay_24cardano_blockchain_types17txn_output_offsetNtB2_15TxnOutputOffsetINtNtCs66KPHxksi63_4core7convert4FrommE4fromB4_
FN:16,_RNvXNtCsaaQWVZq1tay_24cardano_blockchain_types17txn_output_offsetNtB2_15TxnOutputOffsetINtNtCs66KPHxksi63_4core7convert4FromtE4fromB4_
FN:22,_RNvXs_NtCsaaQWVZq1tay_24cardano_blockchain_types17txn_output_offsetsINtNtCs66KPHxksi63_4core7convert4FromNtB4_15TxnOutputOffsetE4from
FNDA:0,_RNvXs0_NtCsaaQWVZq1tay_24cardano_blockchain_types17txn_output_offsetjINtNtCs66KPHxksi63_4core7convert4FromNtB5_15TxnOutputOffsetE4from
FNDA:1,_RNvNtNtCsaaQWVZq1tay_24cardano_blockchain_types17txn_output_offset5testss_25test_from_u8_to_txn_index
FNDA:1,_RNvNtNtCsaaQWVZq1tay_24cardano_blockchain_types17txn_output_offset5testss_26test_from_i32_to_txn_index
FNDA:1,_RNvNtNtCsaaQWVZq1tay_24cardano_blockchain_types17txn_output_offset5testss_26test_from_u16_to_txn_index
FNDA:1,_RNvNtNtCsaaQWVZq1tay_24cardano_blockchain_types17txn_output_offset5testss_26test_from_u32_to_txn_index
FNDA:1,_RNvNtNtCsaaQWVZq1tay_24cardano_blockchain_types17txn_output_offset5testss_31test_txn_index_to_i16_with_zero
FNDA:1,_RNvNtNtCsaaQWVZq1tay_24cardano_blockchain_types17txn_output_offset5testss_32test_from_large_i32_to_txn_index
FNDA:1,_RNvNtNtCsaaQWVZq1tay_24cardano_blockchain_types17txn_output_offset5testss_34test_txn_index_to_i16_within_range
FNDA:1,_RNvNtNtCsaaQWVZq1tay_24cardano_blockchain_types17txn_output_offset5testss_37test_txn_index_to_i16_with_saturation
FNDA:1,_RNvXNtCsaaQWVZq1tay_24cardano_blockchain_types17txn_output_offsetNtB2_15TxnOutputOffsetINtNtCs66KPHxksi63_4core7convert4FromhE4fromB4_
FNDA:2,_RNvXNtCsaaQWVZq1tay_24cardano_blockchain_types17txn_output_offsetNtB2_15TxnOutputOffsetINtNtCs66KPHxksi63_4core7convert4FromlE4fromB4_
FNDA:1,_RNvXNtCsaaQWVZq1tay_24cardano_blockchain_types17txn_output_offsetNtB2_15TxnOutputOffsetINtNtCs66KPHxksi63_4core7convert4FrommE4fromB4_
FNDA:1,_RNvXNtCsaaQWVZq1tay_24cardano_blockchain_types17txn_output_offsetNtB2_15TxnOutputOffsetINtNtCs66KPHxksi63_4core7convert4FromtE4fromB4_
FNDA:3,_RNvXs_NtCsaaQWVZq1tay_24cardano_blockchain_types17txn_output_offsetsINtNtCs66KPHxksi63_4core7convert4FromNtB4_15TxnOutputOffsetE4from
FNF:11
FNH:10
DA:16,5
DA:17,5
DA:18,5
DA:22,3
DA:23,3
DA:24,3
DA:28,0
DA:29,0
DA:30,0
DA:38,1
DA:39,1
DA:40,1
DA:41,1
DA:44,1
DA:45,1
DA:46,1
DA:47,1
DA:50,1
DA:51,1
DA:52,1
DA:53,1
DA:56,1
DA:57,1
DA:58,1
DA:59,1
DA:62,1
DA:63,1
DA:64,1
DA:65,1
DA:68,1
DA:69,1
DA:70,1
DA:71,1
DA:72,1
DA:75,1
DA:76,1
DA:77,1
DA:78,1
DA:79,1
DA:82,1
DA:83,1
DA:84,1
DA:85,1
DA:86,1
BRF:0
BRH:0
LF:44
LH:41
end_of_record
SF:/root/build/cardano-blockchain-types/src/txn_witness.rs
FN:97,_RNCNvMNtCsaaQWVZq1tay_24cardano_blockchain_types11txn_witnessNtB4_10TxnWitness16get_witness_vkey0B6_
FN:88,_RNCNvMNtCsaaQWVZq1tay_24cardano_blockchain_types11txn_witnessNtB4_10TxnWitness19check_witness_in_tx0B6_
FN:93,_RNvMNtCsaaQWVZq1tay_24cardano_blockchain_types11txn_witnessNtB2_10TxnWitness16get_witness_vkey
FN:81,_RNvMNtCsaaQWVZq1tay_24cardano_blockchain_types11txn_witnessNtB2_10TxnWitness19check_witness_in_tx
FN:30,_RNvMNtCsaaQWVZq1tay_24cardano_blockchain_types11txn_witnessNtB2_10TxnWitness3new
FN:32,_RNvNvMNtCsaaQWVZq1tay_24cardano_blockchain_types11txn_witnessNtB4_10TxnWitness3new10update_map
FN:102,_RNvXs_NtCsaaQWVZq1tay_24cardano_blockchain_types11txn_witnessNtB4_10TxnWitnessNtNtCs66KPHxksi63_4core3fmt7Display3fmt
FN:128,_RNvNtNtCsaaQWVZq1tay_24cardano_blockchain_types11txn_witness5testss_10tx_witness
FNDA:2,_RNCNvMNtCsaaQWVZq1tay_24cardano_blockchain_types11txn_witnessNtB4_10TxnWitness16get_witness_vkey0B6_
FNDA:2,_RNCNvMNtCsaaQWVZq1tay_24cardano_blockchain_types11txn_witnessNtB4_10TxnWitness19check_witness_in_tx0B6_
FNDA:2,_RNvMNtCsaaQWVZq1tay_24cardano_blockchain_types11txn_witnessNtB2_10TxnWitness16get_witness_vkey
FNDA:2,_RNvMNtCsaaQWVZq1tay_24cardano_blockchain_types11txn_witnessNtB2_10TxnWitness19check_witness_in_tx
FNDA:34,_RNvMNtCsaaQWVZq1tay_24cardano_blockchain_types11txn_witnessNtB2_10TxnWitness3new
FNDA:155,_RNvNvMNtCsaaQWVZq1tay_24cardano_blockchain_types11txn_witnessNtB4_10TxnWitness3new10update_map
FNDA:2,_RNvXs_NtCsaaQWVZq1tay_24cardano_blockchain_types11txn_witnessNtB4_10TxnWitnessNtNtCs66KPHxksi63_4core3fmt7Display3fmt
FNDA:1,_RNvNtNtCsaaQWVZq1tay_24cardano_blockchain_types11txn_witness5testss_10tx_witness
FNF:8
FNH:8
DA:30,34
DA:32,155
DA:33,155
DA:34,155
DA:35,155
DA:36,155
DA:37,155
DA:38,366
DA:39,236
DA:40,236
DA:41,236
DA:42,236
DA:43,24
DA:44,212
DA:45,212
DA:46,212
DA:47,212
DA:48,212
DA:50,25
DA:51,155
DA:52,155
DA:54,34
DA:55,161
DA:56,161
DA:57,147
DA:58,147
DA:59,147
DA:61,8
DA:62,8
DA:63,8
DA:65,0
DA:66,0
DA:67,0
DA:68,0
DA:69,0
DA:72,6
DA:76,28
DA:77,34
DA:81,2
DA:82,2
DA:83,2
DA:84,2
DA:85,2
DA:86,2
DA:87,2
DA:88,2
DA:89,2
DA:93,2
DA:94,2
DA:95,2
DA:96,2
DA:97,2
DA:98,2
DA:102,2
DA:103,2
DA:104,2
DA:105,2
DA:106,10
DA:107,8
DA:108,8
DA:109,8
DA:110,8
DA:111,8
DA:112,8
DA:113,0
DA:115,2
DA:116,2
DA:128,1
DA:129,1
DA:130,1
DA:131,1
DA:132,1
DA:133,1
DA:134,1
DA:135,1
DA:136,1
DA:137,1
DA:138,1
DA:139,1
DA:141,1
DA:142,1
DA:143,1
DA:144,1
DA:145,1
DA:146,1
DA:147,1
DA:148,1
DA:149,1
DA:151,1
DA:152,1
DA:153,1
DA:154,1
BRF:0
BRH:0
LF:94
LH:88
end_of_record
SF:/root/build/cardano-chain-follower/src/chain_sync.rs
FN:564,_RNCNCNvNtCsdrmigHwrVIj_22cardano_chain_follower10chain_sync10chain_sync00B7_
FN:406,_RNCNCNvNtCsdrmigHwrVIj_22cardano_chain_follower10chain_sync18live_sync_backfill0s_0B7_
FN:551,_RNCNvNtCsdrmigHwrVIj_22cardano_chain_follower10chain_sync10chain_sync0B5_
FN:285,_RNCNvNtCsdrmigHwrVIj_22cardano_chain_follower10chain_sync12follow_chain0B5_
FN:611,_RNCNvNtCsdrmigHwrVIj_22cardano_chain_follower10chain_sync12point_at_tip0B5_
FN:54,_RNCNvNtCsdrmigHwrVIj_22cardano_chain_follower10chain_sync13retry_connect0B5_
FN:110,_RNCNvNtCsdrmigHwrVIj_22cardano_chain_follower10chain_sync15resync_live_tip0B5_
FN:208,_RNCNvNtCsdrmigHwrVIj_22cardano_chain_follower10chain_sync16process_rollback0B5_
FN:379,_RNCNvNtCsdrmigHwrVIj_22cardano_chain_follower10chain_sync18live_sync_backfill0B5_
FN:240,_RNCNvNtCsdrmigHwrVIj_22cardano_chain_follower10chain_sync18process_next_block0B5_
FN:345,_RNCNvNtCsdrmigHwrVIj_22cardano_chain_follower10chain_sync20persistent_reconnect0B5_
FN:135,_RNCNvNtCsdrmigHwrVIj_22cardano_chain_follower10chain_sync21fetch_block_from_peer0B5_
FN:159,_RNCNvNtCsdrmigHwrVIj_22cardano_chain_follower10chain_sync23process_rollback_actual0B5_
FN:92,_RNCNvNtCsdrmigHwrVIj_22cardano_chain_follower10chain_sync23purge_and_intersect_tip0B5_
FN:451,_RNCNvNtCsdrmigHwrVIj_22cardano_chain_follower10chain_sync28live_sync_backfill_and_purge0B5_
FN:548,_RNvNtCsdrmigHwrVIj_22cardano_chain_follower10chain_sync10chain_sync
FN:281,_RNvNtCsdrmigHwrVIj_22cardano_chain_follower10chain_sync12follow_chain
FN:608,_RNvNtCsdrmigHwrVIj_22cardano_chain_follower10chain_sync12point_at_tip
FN:51,_RNvNtCsdrmigHwrVIj_22cardano_chain_follower10chain_sync13retry_connect
FN:107,_RNvNtCsdrmigHwrVIj_22cardano_chain_follower10chain_sync15resync_live_tip
FN:201,_RNvNtCsdrmigHwrVIj_22cardano_chain_follower10chain_sync16process_rollback
FN:376,_RNvNtCsdrmigHwrVIj_22cardano_chain_follower10chain_sync18live_sync_backfill
FN:233,_RNvNtCsdrmigHwrVIj_22cardano_chain_follower10chain_sync18process_next_block
FN:342,_RNvNtCsdrmigHwrVIj_22cardano_chain_follower10chain_sync20persistent_reconnect
FN:129,_RNvNtCsdrmigHwrVIj_22cardano_chain_follower10chain_sync21fetch_block_from_peer
FN:153,_RNvNtCsdrmigHwrVIj_22cardano_chain_follower10chain_sync23process_rollback_actual
FN:89,_RNvNtCsdrmigHwrVIj_22cardano_chain_follower10chain_sync23purge_and_intersect_tip
FN:447,_RNvNtCsdrmigHwrVIj_22cardano_chain_follower10chain_sync28live_sync_backfill_and_purge
FNDA:0,_RNCNCNvNtCsdrmigHwrVIj_22cardano_chain_follower10chain_sync10chain_sync00B7_
FNDA:0,_RNCNCNvNtCsdrmigHwrVIj_22cardano_chain_follower10chain_sync18live_sync_backfill0s_0B7_
FNDA:0,_RNCNvNtCsdrmigHwrVIj_22cardano_chain_follower10chain_sync10chain_sync0B5_
FNDA:0,_RNCNvNtCsdrmigHwrVIj_22cardano_chain_follower10chain_sync12follow_chain0B5_
FNDA:0,_RNCNvNtCsdrmigHwrVIj_22cardano_chain_follower10chain_sync12point_at_tip0B5_
FNDA:0,_RNCNvNtCsdrmigHwrVIj_22cardano_chain_follower10chain_sync13retry_connect0B5_
FNDA:0,_RNCNvNtCsdrmigHwrVIj_22cardano_chain_follower10chain_sync15resync_live_tip0B5_
FNDA:0,_RNCNvNtCsdrmigHwrVIj_22cardano_chain_follower10chain_sync16process_rollback0B5_
FNDA:0,_RNCNvNtCsdrmigHwrVIj_22cardano_chain_follower10chain_sync18live_sync_backfill0B5_
FNDA:0,_RNCNvNtCsdrmigHwrVIj_22cardano_chain_follower10chain_sync18process_next_block0B5_
FNDA:0,_RNCNvNtCsdrmigHwrVIj_22cardano_chain_follower10chain_sync20persistent_reconnect0B5_
FNDA:0,_RNCNvNtCsdrmigHwrVIj_22cardano_chain_follower10chain_sync21fetch_block_from_peer0B5_
FNDA:0,_RNCNvNtCsdrmigHwrVIj_22cardano_chain_follower10chain_sync23process_rollback_actual0B5_
FNDA:0,_RNCNvNtCsdrmigHwrVIj_22cardano_chain_follower10chain_sync23purge_and_intersect_tip0B5_
FNDA:0,_RNCNvNtCsdrmigHwrVIj_22cardano_chain_follower10chain_sync28live_sync_backfill_and_purge0B5_
FNDA:0,_RNvNtCsdrmigHwrVIj_22cardano_chain_follower10chain_sync10chain_sync
FNDA:0,_RNvNtCsdrmigHwrVIj_22cardano_chain_follower10chain_sync12follow_chain
FNDA:0,_RNvNtCsdrmigHwrVIj_22cardano_chain_follower10chain_sync12point_at_tip
FNDA:0,_RNvNtCsdrmigHwrVIj_22cardano_chain_follower10chain_sync13retry_connect
FNDA:0,_RNvNtCsdrmigHwrVIj_22cardano_chain_follower10chain_sync15resync_live_tip
FNDA:0,_RNvNtCsdrmigHwrVIj_22cardano_chain_follower10chain_sync16process_rollback
FNDA:0,_RNvNtCsdrmigHwrVIj_22cardano_chain_follower10chain_sync18live_sync_backfill
FNDA:0,_RNvNtCsdrmigHwrVIj_22cardano_chain_follower10chain_sync18process_next_block
FNDA:0,_RNvNtCsdrmigHwrVIj_22cardano_chain_follower10chain_sync20persistent_reconnect
FNDA:0,_RNvNtCsdrmigHwrVIj_22cardano_chain_follower10chain_sync21fetch_block_from_peer
FNDA:0,_RNvNtCsdrmigHwrVIj_22cardano_chain_follower10chain_sync23process_rollback_actual
FNDA:0,_RNvNtCsdrmigHwrVIj_22cardano_chain_follower10chain_sync23purge_and_intersect_tip
FNDA:0,_RNvNtCsdrmigHwrVIj_22cardano_chain_follower10chain_sync28live_sync_backfill_and_purge
FNF:28
FNH:0
DA:51,0
DA:52,0
DA:53,0
DA:54,0
DA:55,0
DA:57,0
DA:58,0
DA:59,0
DA:61,0
DA:63,0
DA:64,0
DA:65,0
DA:66,0
DA:67,0
DA:68,0
DA:69,0
DA:70,0
DA:71,0
DA:75,0
DA:76,0
DA:77,0
DA:78,0
DA:79,0
DA:80,0
DA:81,0
DA:82,0
DA:86,0
DA:89,0
DA:90,0
DA:91,0
DA:92,0
DA:93,0
DA:95,0
DA:96,0
DA:98,0
DA:99,0
DA:100,0
DA:101,0
DA:102,0
DA:103,0
DA:104,0
DA:107,0
DA:108,0
DA:109,0
DA:110,0
DA:111,0
DA:112,0
DA:113,0
DA:114,0
DA:116,0
DA:117,0
DA:120,0
DA:122,0
DA:125,0
DA:126,0
DA:129,0
DA:130,0
DA:131,0
DA:132,0
DA:133,0
DA:134,0
DA:135,0
DA:136,0
DA:137,0
DA:138,0
DA:139,0
DA:140,0
DA:142,0
DA:143,0
DA:144,0
DA:146,0
DA:147,0
DA:153,0
DA:154,0
DA:155,0
DA:156,0
DA:157,0
DA:158,0
DA:159,0
DA:160,0
DA:164,0
DA:166,0
DA:167,0
DA:168,0
DA:169,0
DA:178,0
DA:179,0
DA:180,0
DA:181,0
DA:182,0
DA:183,0
DA:185,0
DA:188,0
DA:189,0
DA:191,0
DA:192,0
DA:193,0
DA:194,0
DA:197,0
DA:198,0
DA:201,0
DA:202,0
DA:203,0
DA:204,0
DA:205,0
DA:206,0
DA:207,0
DA:208,0
DA:209,0
DA:210,0
DA:211,0
DA:212,0
DA:215,0
DA:218,0
DA:223,0
DA:224,0
DA:225,0
DA:226,0
DA:229,0
DA:230,0
DA:233,0
DA:234,0
DA:235,0
DA:236,0
DA:237,0
DA:238,0
DA:239,0
DA:240,0
DA:242,0
DA:243,0
DA:244,0
DA:245,0
DA:247,0
DA:249,0
DA:251,0
DA:253,0
DA:254,0
DA:255,0
DA:256,0
DA:257,0
DA:258,0
DA:259,0
DA:260,0
DA:262,0
DA:266,0
DA:269,0
DA:271,0
DA:274,0
DA:275,0
DA:281,0
DA:282,0
DA:283,0
DA:284,0
DA:285,0
DA:286,0
DA:287,0
DA:293,0
DA:294,0
DA:295,0
DA:298,0
DA:299,0
DA:300,0
DA:301,0
DA:303,0
DA:305,0
DA:306,0
DA:314,0
DA:315,0
DA:316,0
DA:320,0
DA:322,0
DA:323,0
DA:324,0
DA:325,0
DA:328,0
DA:330,0
DA:331,0
DA:332,0
DA:335,0
DA:342,0
DA:343,0
DA:344,0
DA:345,0
DA:347,0
DA:351,0
DA:352,0
DA:354,0
DA:356,0
DA:358,0
DA:359,0
DA:360,0
DA:365,0
DA:369,0
DA:376,0
DA:377,0
DA:378,0
DA:379,0
DA:380,0
DA:382,0
DA:383,0
DA:384,0
DA:386,0
DA:388,0
DA:391,0
DA:392,0
DA:393,0
DA:394,0
DA:396,0
DA:398,0
DA:400,0
DA:401,0
DA:402,0
DA:403,0
DA:406,0
DA:407,0
DA:408,0
DA:411,0
DA:412,0
DA:413,0
DA:414,0
DA:415,0
DA:416,0
DA:417,0
DA:418,0
DA:420,0
DA:422,0
DA:426,0
DA:427,0
DA:428,0
DA:429,0
DA:430,0
DA:431,0
DA:434,0
DA:437,0
DA:439,0
DA:441,0
DA:443,0
DA:444,0
DA:447,0
DA:448,0
DA:449,0
DA:450,0
DA:451,0
DA:453,0
DA:454,0
DA:455,0
DA:458,0
DA:460,0
DA:461,0
DA:462,0
DA:468,0
DA:469,0
DA:470,0
DA:471,0
DA:474,0
DA:475,0
DA:476,0
DA:479,0
DA:480,0
DA:482,0
DA:485,0
DA:487,0
DA:490,0
DA:491,0
DA:492,0
DA:496,0
DA:497,0
DA:498,0
DA:500,0
DA:502,0
DA:504,0
DA:506,0
DA:508,0
DA:509,0
DA:511,0
DA:512,0
DA:514,0
DA:515,0
DA:519,0
DA:520,0
DA:521,0
DA:522,0
DA:531,0
DA:548,0
DA:549,0
DA:550,0
DA:551,0
DA:552,0
DA:553,0
DA:558,0
DA:560,0
DA:563,0
DA:564,0
DA:565,0
DA:566,0
DA:567,0
DA:570,0
DA:571,0
DA:572,0
DA:577,0
DA:581,0
DA:582,0
DA:583,0
DA:584,0
DA:585,0
DA:586,0
DA:589,0
DA:594,0
DA:595,0
DA:596,0
DA:599,0
DA:600,0
DA:603,0
DA:608,0
DA:609,0
DA:610,0
DA:611,0
DA:612,0
DA:615,0
DA:616,0
BRF:0
BRH:0
LF:336
LH:0
end_of_record
SF:/root/build/cardano-chain-follower/src/chain_sync_config.rs
FN:143,_RNCNCNvMNtCsdrmigHwrVIj_22cardano_chain_follower17chain_sync_configNtB6_15ChainSyncConfig3run00B8_
FN:156,_RNCNCNvMNtCsdrmigHwrVIj_22cardano_chain_follower17chain_sync_configNtB6_15ChainSyncConfig3run0s_0B8_
FN:132,_RNCNvMNtCsdrmigHwrVIj_22cardano_chain_follower17chain_sync_configNtB4_15ChainSyncConfig3run0B6_
FN:55,_RNvMNtCsdrmigHwrVIj_22cardano_chain_follower17chain_sync_configNtB2_15ChainSyncConfig11default_for
FN:113,_RNvMNtCsdrmigHwrVIj_22cardano_chain_follower17chain_sync_configNtB2_15ChainSyncConfig11mithril_cfg
FN:99,_RNvMNtCsdrmigHwrVIj_22cardano_chain_follower17chain_sync_configNtB2_15ChainSyncConfig21immutable_slot_window
FN:85,_RNvMNtCsdrmigHwrVIj_22cardano_chain_follower17chain_sync_configNtB2_15ChainSyncConfig24chain_update_buffer_size
FN:132,_RNvMNtCsdrmigHwrVIj_22cardano_chain_follower17chain_sync_configNtB2_15ChainSyncConfig3run
FN:71,_RNvMNtCsdrmigHwrVIj_22cardano_chain_follower17chain_sync_configNtB2_15ChainSyncConfig5relay
FNDA:0,_RNCNCNvMNtCsdrmigHwrVIj_22cardano_chain_follower17chain_sync_configNtB6_15ChainSyncConfig3run00B8_
FNDA:0,_RNCNCNvMNtCsdrmigHwrVIj_22cardano_chain_follower17chain_sync_configNtB6_15ChainSyncConfig3run0s_0B8_
FNDA:0,_RNCNvMNtCsdrmigHwrVIj_22cardano_chain_follower17chain_sync_configNtB4_15ChainSyncConfig3run0B6_
FNDA:0,_RNvMNtCsdrmigHwrVIj_22cardano_chain_follower17chain_sync_configNtB2_15ChainSyncConfig11default_for
FNDA:0,_RNvMNtCsdrmigHwrVIj_22cardano_chain_follower17chain_sync_configNtB2_15ChainSyncConfig11mithril_cfg
FNDA:0,_RNvMNtCsdrmigHwrVIj_22cardano_chain_follower17chain_sync_configNtB2_15ChainSyncConfig21immutable_slot_window
FNDA:0,_RNvMNtCsdrmigHwrVIj_22cardano_chain_follower17chain_sync_configNtB2_15ChainSyncConfig24chain_update_buffer_size
FNDA:0,_RNvMNtCsdrmigHwrVIj_22cardano_chain_follower17chain_sync_configNtB2_15ChainSyncConfig3run
FNDA:0,_RNvMNtCsdrmigHwrVIj_22cardano_chain_follower17chain_sync_configNtB2_15ChainSyncConfig5relay
FNF:9
FNH:0
DA:55,0
DA:56,0
DA:57,0
DA:58,0
DA:59,0
DA:60,0
DA:61,0
DA:62,0
DA:63,0
DA:71,0
DA:72,0
DA:73,0
DA:74,0
DA:75,0
DA:76,0
DA:77,0
DA:85,0
DA:86,0
DA:87,0
DA:88,0
DA:89,0
DA:90,0
DA:91,0
DA:99,0
DA:100,0
DA:101,0
DA:102,0
DA:103,0
DA:104,0
DA:105,0
DA:113,0
DA:114,0
DA:115,0
DA:116,0
DA:117,0
DA:118,0
DA:119,0
DA:132,0
DA:133,0
DA:134,0
DA:135,0
DA:138,0
DA:141,0
DA:142,0
DA:143,0
DA:144,0
DA:146,0
DA:147,0
DA:148,0
DA:149,0
DA:152,0
DA:154,0
DA:156,0
DA:157,0
DA:158,0
DA:159,0
DA:160,0
DA:163,0
DA:165,0
DA:166,0
BRF:0
BRH:0
LF:63
LH:0
end_of_record
SF:/root/build/cardano-chain-follower/src/chain_sync_live_chains.rs
FN:194,_RNCNvMNtCsdrmigHwrVIj_22cardano_chain_follower22chain_sync_live_chainsNtB4_27ProtectedLiveChainBlockList8backfills_0B6_
FN:482,_RNCNvNtCsdrmigHwrVIj_22cardano_chain_follower22chain_sync_live_chains17get_fill_to_point0B5_
FN:219,_RNvMNtCsdrmigHwrVIj_22cardano_chain_follower22chain_sync_live_chainsNtB2_27ProtectedLiveChainBlockList16add_block_to_tip
FN:121,_RNvMNtCsdrmigHwrVIj_22cardano_chain_follower22chain_sync_live_chainsNtB2_27ProtectedLiveChainBlockList18get_earliest_block
FN:139,_RNvMNtCsdrmigHwrVIj_22cardano_chain_follower22chain_sync_live_chainsNtB2_27ProtectedLiveChainBlockList19get_last_live_point
FN:438,_RNvMNtCsdrmigHwrVIj_22cardano_chain_follower22chain_sync_live_chainsNtB2_27ProtectedLiveChainBlockList19get_live_head_point
FN:206,_RNvMNtCsdrmigHwrVIj_22cardano_chain_follower22chain_sync_live_chainsNtB2_27ProtectedLiveChainBlockList19strict_block_lookup
FN:404,_RNvMNtCsdrmigHwrVIj_22cardano_chain_follower22chain_sync_live_chainsNtB2_27ProtectedLiveChainBlockList20find_best_fork_block
FN:128,_RNvMNtCsdrmigHwrVIj_22cardano_chain_follower22chain_sync_live_chainsNtB2_27ProtectedLiveChainBlockList20get_first_live_point
FN:358,_RNvMNtCsdrmigHwrVIj_22cardano_chain_follower22chain_sync_live_chainsNtB2_27ProtectedLiveChainBlockList20get_intersect_points
FN:349,_RNvMNtCsdrmigHwrVIj_22cardano_chain_follower22chain_sync_live_chainsNtB2_27ProtectedLiveChainBlockList3len
FN:61,_RNvMNtCsdrmigHwrVIj_22cardano_chain_follower22chain_sync_live_chainsNtB2_27ProtectedLiveChainBlockList3new
FN:296,_RNvMNtCsdrmigHwrVIj_22cardano_chain_follower22chain_sync_live_chainsNtB2_27ProtectedLiveChainBlockList5purge
FN:156,_RNvMNtCsdrmigHwrVIj_22cardano_chain_follower22chain_sync_live_chainsNtB2_27ProtectedLiveChainBlockList8backfill
FN:70,_RNvMNtCsdrmigHwrVIj_22cardano_chain_follower22chain_sync_live_chainsNtB2_27ProtectedLiveChainBlockList9get_block
FN:49,_RNvNtCsdrmigHwrVIj_22cardano_chain_follower22chain_sync_live_chains12get_peer_tip
FN:466,_RNvNtCsdrmigHwrVIj_22cardano_chain_follower22chain_sync_live_chains14get_live_block
FN:451,_RNvNtCsdrmigHwrVIj_22cardano_chain_follower22chain_sync_live_chains14get_live_chain
FN:40,_RNvNtCsdrmigHwrVIj_22cardano_chain_follower22chain_sync_live_chains15update_peer_tip
FN:526,_RNvNtCsdrmigHwrVIj_22cardano_chain_follower22chain_sync_live_chains16purge_live_chain
FN:482,_RNvNtCsdrmigHwrVIj_22cardano_chain_follower22chain_sync_live_chains17get_fill_to_point
FN:519,_RNvNtCsdrmigHwrVIj_22cardano_chain_follower22chain_sync_live_chains17live_chain_length
FN:459,_RNvNtCsdrmigHwrVIj_22cardano_chain_follower22chain_sync_live_chains19get_live_head_point
FN:509,_RNvNtCsdrmigHwrVIj_22cardano_chain_follower22chain_sync_live_chains19live_chain_backfill
FN:542,_RNvNtCsdrmigHwrVIj_22cardano_chain_follower22chain_sync_live_chains20find_best_fork_block
FN:536,_RNvNtCsdrmigHwrVIj_22cardano_chain_follower22chain_sync_live_chains20get_intersect_points
FN:498,_RNvNtCsdrmigHwrVIj_22cardano_chain_follower22chain_sync_live_chains27live_chain_add_block_to_tip
FNDA:0,_RNCNvMNtCsdrmigHwrVIj_22cardano_chain_follower22chain_sync_live_chainsNtB4_27ProtectedLiveChainBlockList8backfills_0B6_
FNDA:0,_RNCNvNtCsdrmigHwrVIj_22cardano_chain_follower22chain_sync_live_chains17get_fill_to_point0B5_
FNDA:0,_RNvMNtCsdrmigHwrVIj_22cardano_chain_follower22chain_sync_live_chainsNtB2_27ProtectedLiveChainBlockList16add_block_to_tip
FNDA:0,_RNvMNtCsdrmigHwrVIj_22cardano_chain_follower22chain_sync_live_chainsNtB2_27ProtectedLiveChainBlockList18get_earliest_block
FNDA:0,_RNvMNtCsdrmigHwrVIj_22cardano_chain_follower22chain_sync_live_chainsNtB2_27ProtectedLiveChainBlockList19get_last_live_point
FNDA:0,_RNvMNtCsdrmigHwrVIj_22cardano_chain_follower22chain_sync_live_chainsNtB2_27ProtectedLiveChainBlockList19get_live_head_point
FNDA:0,_RNvMNtCsdrmigHwrVIj_22cardano_chain_follower22chain_sync_live_chainsNtB2_27ProtectedLiveChainBlockList19strict_block_lookup
FNDA:0,_RNvMNtCsdrmigHwrVIj_22cardano_chain_follower22chain_sync_live_chainsNtB2_27ProtectedLiveChainBlockList20find_best_fork_block
FNDA:0,_RNvMNtCsdrmigHwrVIj_22cardano_chain_follower22chain_sync_live_chainsNtB2_27ProtectedLiveChainBlockList20get_first_live_point
FNDA:0,_RNvMNtCsdrmigHwrVIj_22cardano_chain_follower22chain_sync_live_chainsNtB2_27ProtectedLiveChainBlockList20get_intersect_points
FNDA:0,_RNvMNtCsdrmigHwrVIj_22cardano_chain_follower22chain_sync_live_chainsNtB2_27ProtectedLiveChainBlockList3len
FNDA:0,_RNvMNtCsdrmigHwrVIj_22cardano_chain_follower22chain_sync_live_chainsNtB2_27ProtectedLiveChainBlockList3new
FNDA:0,_RNvMNtCsdrmigHwrVIj_22cardano_chain_follower22chain_sync_live_chainsNtB2_27ProtectedLiveChainBlockList5purge
FNDA:0,_RNvMNtCsdrmigHwrVIj_22cardano_chain_follower22chain_sync_live_chainsNtB2_27ProtectedLiveChainBlockList8backfill
FNDA:0,_RNvMNtCsdrmigHwrVIj_22cardano_chain_follower22chain_sync_live_chainsNtB2_27ProtectedLiveChainBlockList9get_block
FNDA:0,_RNvNtCsdrmigHwrVIj_22cardano_chain_follower22chain_sync_live_chains12get_peer_tip
FNDA:0,_RNvNtCsdrmigHwrVIj_22cardano_chain_follower22chain_sync_live_chains14get_live_block
FNDA:0,_RNvNtCsdrmigHwrVIj_22cardano_chain_follower22chain_sync_live_chains14get_live_chain
FNDA:0,_RNvNtCsdrmigHwrVIj_22cardano_chain_follower22chain_sync_live_chains15update_peer_tip
FNDA:0,_RNvNtCsdrmigHwrVIj_22cardano_chain_follower22chain_sync_live_chains16purge_live_chain
FNDA:0,_RNvNtCsdrmigHwrVIj_22cardano_chain_follower22chain_sync_live_chains17get_fill_to_point
FNDA:0,_RNvNtCsdrmigHwrVIj_22cardano_chain_follower22chain_sync_live_chains17live_chain_length
FNDA:0,_RNvNtCsdrmigHwrVIj_22cardano_chain_follower22chain_sync_live_chains19get_live_head_point
FNDA:0,_RNvNtCsdrmigHwrVIj_22cardano_chain_follower22chain_sync_live_chains19live_chain_backfill
FNDA:0,_RNvNtCsdrmigHwrVIj_22cardano_chain_follower22chain_sync_live_chains20find_best_fork_block
FNDA:0,_RNvNtCsdrmigHwrVIj_22cardano_chain_follower22chain_sync_live_chains20get_intersect_points
FNDA:0,_RNvNtCsdrmigHwrVIj_22cardano_chain_follower22chain_sync_live_chains27live_chain_add_block_to_tip
FNF:27
FNH:0
DA:40,0
DA:41,0
DA:42,0
DA:43,0
DA:44,0
DA:45,0
DA:49,0
DA:50,0
DA:51,0
DA:52,0
DA:53,0
DA:54,0
DA:61,0
DA:62,0
DA:63,0
DA:70,0
DA:71,0
DA:72,0
DA:73,0
DA:74,0
DA:75,0
DA:76,0
DA:78,0
DA:83,0
DA:84,0
DA:89,0
DA:91,0
DA:92,0
DA:93,0
DA:94,0
DA:95,0
DA:97,0
DA:98,0
DA:101,0
DA:105,0
DA:106,0
DA:107,0
DA:111,0
DA:112,0
DA:113,0
DA:117,0
DA:118,0
DA:121,0
DA:122,0
DA:123,0
DA:124,0
DA:125,0
DA:128,0
DA:129,0
DA:130,0
DA:131,0
DA:132,0
DA:134,0
DA:135,0
DA:136,0
DA:139,0
DA:140,0
DA:143,0
DA:145,0
DA:146,0
DA:147,0
DA:156,0
DA:157,0
DA:158,0
DA:159,0
DA:160,0
DA:161,0
DA:165,0
DA:166,0
DA:167,0
DA:168,0
DA:169,0
DA:170,0
DA:171,0
DA:172,0
DA:173,0
DA:174,0
DA:177,0
DA:179,0
DA:180,0
DA:181,0
DA:182,0
DA:183,0
DA:187,0
DA:188,0
DA:189,0
DA:190,0
DA:191,0
DA:194,0
DA:195,0
DA:196,0
DA:199,0
DA:201,0
DA:202,0
DA:206,0
DA:207,0
DA:208,0
DA:209,0
DA:210,0
DA:211,0
DA:212,0
DA:213,0
DA:214,0
DA:219,0
DA:220,0
DA:221,0
DA:222,0
DA:223,0
DA:224,0
DA:225,0
DA:226,0
DA:230,0
DA:231,0
DA:232,0
DA:234,0
DA:235,0
DA:238,0
DA:246,0
DA:247,0
DA:248,0
DA:250,0
DA:253,0
DA:254,0
DA:261,0
DA:262,0
DA:263,0
DA:265,0
DA:266,0
DA:272,0
DA:273,0
DA:274,0
DA:275,0
DA:277,0
DA:279,0
DA:282,0
DA:284,0
DA:285,0
DA:288,0
DA:290,0
DA:291,0
DA:296,0
DA:297,0
DA:298,0
DA:299,0
DA:300,0
DA:305,0
DA:306,0
DA:307,0
DA:308,0
DA:309,0
DA:310,0
DA:311,0
DA:312,0
DA:314,0
DA:318,0
DA:319,0
DA:320,0
DA:322,0
DA:323,0
DA:324,0
DA:325,0
DA:329,0
DA:330,0
DA:331,0
DA:332,0
DA:333,0
DA:336,0
DA:337,0
DA:338,0
DA:341,0
DA:342,0
DA:345,0
DA:346,0
DA:349,0
DA:350,0
DA:351,0
DA:353,0
DA:355,0
DA:358,0
DA:359,0
DA:361,0
DA:362,0
DA:366,0
DA:367,0
DA:369,0
DA:370,0
DA:371,0
DA:372,0
DA:373,0
DA:374,0
DA:379,0
DA:380,0
DA:381,0
DA:386,0
DA:387,0
DA:388,0
DA:389,0
DA:391,0
DA:392,0
DA:393,0
DA:394,0
DA:395,0
DA:396,0
DA:399,0
DA:400,0
DA:404,0
DA:405,0
DA:406,0
DA:407,0
DA:408,0
DA:409,0
DA:410,0
DA:411,0
DA:412,0
DA:416,0
DA:417,0
DA:419,0
DA:422,0
DA:423,0
DA:424,0
DA:427,0
DA:428,0
DA:429,0
DA:431,0
DA:434,0
DA:435,0
DA:438,0
DA:439,0
DA:441,0
DA:442,0
DA:443,0
DA:444,0
DA:446,0
DA:447,0
DA:451,0
DA:452,0
DA:454,0
DA:455,0
DA:456,0
DA:459,0
DA:460,0
DA:461,0
DA:462,0
DA:466,0
DA:467,0
DA:468,0
DA:469,0
DA:470,0
DA:471,0
DA:472,0
DA:473,0
DA:474,0
DA:482,0
DA:483,0
DA:486,0
DA:487,0
DA:488,0
DA:490,0
DA:492,0
DA:498,0
DA:499,0
DA:500,0
DA:501,0
DA:502,0
DA:503,0
DA:504,0
DA:505,0
DA:506,0
DA:509,0
DA:510,0
DA:511,0
DA:512,0
DA:513,0
DA:514,0
DA:515,0
DA:519,0
DA:520,0
DA:521,0
DA:522,0
DA:526,0
DA:527,0
DA:528,0
DA:529,0
DA:530,0
DA:531,0
DA:532,0
DA:536,0
DA:537,0
DA:538,0
DA:539,0
DA:542,0
DA:543,0
DA:544,0
DA:545,0
DA:546,0
DA:547,0
DA:548,0
DA:549,0
DA:550,0
BRF:0
BRH:0
LF:301
LH:0
end_of_record
SF:/root/build/cardano-chain-follower/src/chain_sync_ready.rs
FN:28,_RNvMNtCsdrmigHwrVIj_22cardano_chain_follower16chain_sync_readyNtB2_9SyncReady3new
FN:81,_RNvNtCsdrmigHwrVIj_22cardano_chain_follower16chain_sync_ready14get_sync_ready
FN:145,_RNCNvNtCsdrmigHwrVIj_22cardano_chain_follower16chain_sync_ready25get_chain_update_rx_queue0B5_
FN:143,_RNvNtCsdrmigHwrVIj_22cardano_chain_follower16chain_sync_ready25get_chain_update_rx_queue
FN:118,_RNCNvNtCsdrmigHwrVIj_22cardano_chain_follower16chain_sync_ready16check_sync_ready0B5_
FN:98,_RNCNvNtCsdrmigHwrVIj_22cardano_chain_follower16chain_sync_ready19wait_for_sync_ready0B5_
FN:134,_RNCNvNtCsdrmigHwrVIj_22cardano_chain_follower16chain_sync_ready22block_until_sync_ready0B5_
FN:158,_RNCNvNtCsdrmigHwrVIj_22cardano_chain_follower16chain_sync_ready25get_chain_update_tx_queue0B5_
FN:63,_RNvMs_NtCsdrmigHwrVIj_22cardano_chain_follower16chain_sync_readyNtB4_15SyncReadyWaiter6signal
FN:40,_RNvNtCsdrmigHwrVIj_22cardano_chain_follower16chain_sync_ready15notify_follower
FN:118,_RNvNtCsdrmigHwrVIj_22cardano_chain_follower16chain_sync_ready16check_sync_ready
FN:95,_RNvNtCsdrmigHwrVIj_22cardano_chain_follower16chain_sync_ready19wait_for_sync_ready
FN:134,_RNvNtCsdrmigHwrVIj_22cardano_chain_follower16chain_sync_ready22block_until_sync_ready
FN:156,_RNvNtCsdrmigHwrVIj_22cardano_chain_follower16chain_sync_ready25get_chain_update_tx_queue
FNDA:3,_RNvMNtCsdrmigHwrVIj_22cardano_chain_follower16chain_sync_readyNtB2_9SyncReady3new
FNDA:3,_RNvNtCsdrmigHwrVIj_22cardano_chain_follower16chain_sync_ready14get_sync_ready
FNDA:3,_RNCNvNtCsdrmigHwrVIj_22cardano_chain_follower16chain_sync_ready25get_chain_update_rx_queue0B5_
FNDA:3,_RNvNtCsdrmigHwrVIj_22cardano_chain_follower16chain_sync_ready25get_chain_update_rx_queue
FNDA:0,_RNCNvNtCsdrmigHwrVIj_22cardano_chain_follower16chain_sync_ready16check_sync_ready0B5_
FNDA:0,_RNCNvNtCsdrmigHwrVIj_22cardano_chain_follower16chain_sync_ready19wait_for_sync_ready0B5_
FNDA:0,_RNCNvNtCsdrmigHwrVIj_22cardano_chain_follower16chain_sync_ready22block_until_sync_ready0B5_
FNDA:0,_RNCNvNtCsdrmigHwrVIj_22cardano_chain_follower16chain_sync_ready25get_chain_update_tx_queue0B5_
FNDA:0,_RNvMs_NtCsdrmigHwrVIj_22cardano_chain_follower16chain_sync_readyNtB4_15SyncReadyWaiter6signal
FNDA:0,_RNvNtCsdrmigHwrVIj_22cardano_chain_follower16chain_sync_ready15notify_follower
FNDA:0,_RNvNtCsdrmigHwrVIj_22cardano_chain_follower16chain_sync_ready16check_sync_ready
FNDA:0,_RNvNtCsdrmigHwrVIj_22cardano_chain_follower16chain_sync_ready19wait_for_sync_ready
FNDA:0,_RNvNtCsdrmigHwrVIj_22cardano_chain_follower16chain_sync_ready22block_until_sync_ready
FNDA:0,_RNvNtCsdrmigHwrVIj_22cardano_chain_follower16chain_sync_ready25get_chain_update_tx_queue
FNF:14
FNH:4
DA:28,3
DA:30,3
DA:31,3
DA:32,3
DA:33,3
DA:34,3
DA:35,3
DA:36,3
DA:40,0
DA:41,0
DA:42,0
DA:43,0
DA:44,0
DA:45,0
DA:46,0
DA:47,0
DA:48,0
DA:49,0
DA:51,0
DA:52,0
DA:53,0
DA:63,0
DA:64,0
DA:65,0
DA:66,0
DA:67,0
DA:69,0
DA:71,0
DA:81,3
DA:82,3
DA:83,0
DA:85,3
DA:87,3
DA:88,3
DA:89,3
DA:91,3
DA:95,0
DA:96,0
DA:98,0
DA:99,0
DA:100,0
DA:102,0
DA:104,0
DA:107,0
DA:108,0
DA:109,0
DA:110,0
DA:112,0
DA:114,0
DA:115,0
DA:118,0
DA:119,0
DA:120,0
DA:122,0
DA:125,0
DA:126,0
DA:134,0
DA:137,0
DA:138,0
DA:140,0
DA:143,3
DA:144,3
DA:145,3
DA:146,3
DA:148,3
DA:150,3
DA:152,3
DA:153,3
DA:156,0
DA:157,0
DA:158,0
DA:159,0
DA:161,0
DA:163,0
DA:164,0
DA:165,0
DA:167,0
DA:168,0
BRF:0
BRH:0
LF:83
LH:24
end_of_record
SF:/root/build/cardano-chain-follower/src/chain_update.rs
FN:43,_RNvMNtCsdrmigHwrVIj_22cardano_chain_follower12chain_updateNtB2_11ChainUpdate10block_data
FN:33,_RNvMNtCsdrmigHwrVIj_22cardano_chain_follower12chain_updateNtB2_11ChainUpdate3new
FN:49,_RNvMNtCsdrmigHwrVIj_22cardano_chain_follower12chain_updateNtB2_11ChainUpdate9immutable
FN:55,_RNvXs_NtCsdrmigHwrVIj_22cardano_chain_follower12chain_updateNtB4_11ChainUpdateNtNtCs66KPHxksi63_4core3fmt7Display3fmt
FNDA:4,_RNvMNtCsdrmigHwrVIj_22cardano_chain_follower12chain_updateNtB2_11ChainUpdate10block_data
FNDA:2,_RNvMNtCsdrmigHwrVIj_22cardano_chain_follower12chain_updateNtB2_11ChainUpdate3new
FNDA:0,_RNvMNtCsdrmigHwrVIj_22cardano_chain_follower12chain_updateNtB2_11ChainUpdate9immutable
FNDA:0,_RNvXs_NtCsdrmigHwrVIj_22cardano_chain_follower12chain_updateNtB4_11ChainUpdateNtNtCs66KPHxksi63_4core3fmt7Display3fmt
FNF:4
FNH:2
DA:33,2
DA:34,2
DA:35,2
DA:36,2
DA:37,2
DA:38,2
DA:39,2
DA:43,4
DA:44,4
DA:45,4
DA:49,0
DA:50,0
DA:51,0
DA:55,0
DA:56,0
DA:57,0
DA:58,0
DA:59,0
DA:60,0
DA:61,0
DA:62,0
DA:63,0
DA:65,0
DA:67,0
DA:68,0
BRF:0
BRH:0
LF:25
LH:10
end_of_record
SF:/root/build/cardano-chain-follower/src/follow.rs
FN:76,_RNCNvMNtCsdrmigHwrVIj_22cardano_chain_follower6followNtB4_13ChainFollower3new0B6_
FN:444,_RNCNvNtNtCsdrmigHwrVIj_22cardano_chain_follower6follow5testss_23test_chain_follower_new0B7_
FN:461,_RNCNvNtNtCsdrmigHwrVIj_22cardano_chain_follower6follow5testss_34test_chain_follower_update_current0B7_
FN:480,_RNCNvNtNtCsdrmigHwrVIj_22cardano_chain_follower6follow5testss_57test_chain_follower_update_current_immutable_roll_forward0B7_
FN:72,_RNvMNtCsdrmigHwrVIj_22cardano_chain_follower6followNtB2_13ChainFollower3new
FN:418,_RNvNtNtCsdrmigHwrVIj_22cardano_chain_follower6follow5tests10mock_block
FN:444,_RNvNtNtCsdrmigHwrVIj_22cardano_chain_follower6follow5testss_23test_chain_follower_new
FN:461,_RNvNtNtCsdrmigHwrVIj_22cardano_chain_follower6follow5testss_34test_chain_follower_update_current
FN:480,_RNvNtNtCsdrmigHwrVIj_22cardano_chain_follower6follow5testss_57test_chain_follower_update_current_immutable_roll_forward
FN:246,_RNvMNtCsdrmigHwrVIj_22cardano_chain_follower6followNtB2_13ChainFollower14update_current
FN:100,_RNCNCNvMNtCsdrmigHwrVIj_22cardano_chain_follower6followNtB6_13ChainFollower17next_from_mithril00B8_
FN:274,_RNCNvMNtCsdrmigHwrVIj_22cardano_chain_follower6followNtB4_13ChainFollower16unprotected_next0B6_
FN:93,_RNCNvMNtCsdrmigHwrVIj_22cardano_chain_follower6followNtB4_13ChainFollower17next_from_mithril0B6_
FN:173,_RNCNvMNtCsdrmigHwrVIj_22cardano_chain_follower6followNtB4_13ChainFollower20next_from_live_chain0B6_
FN:321,_RNCNvMNtCsdrmigHwrVIj_22cardano_chain_follower6followNtB4_13ChainFollower4next0B6_
FN:355,_RNCNvMNtCsdrmigHwrVIj_22cardano_chain_follower6followNtB4_13ChainFollower8get_tips0B6_
FN:381,_RNCNvMNtCsdrmigHwrVIj_22cardano_chain_follower6followNtB4_13ChainFollower8post_txn0B6_
FN:399,_RNCNvMNtCsdrmigHwrVIj_22cardano_chain_follower6followNtB4_13ChainFollower8txn_sent0B6_
FN:344,_RNCNvMNtCsdrmigHwrVIj_22cardano_chain_follower6followNtB4_13ChainFollower9get_block0B6_
FN:274,_RNvMNtCsdrmigHwrVIj_22cardano_chain_follower6followNtB2_13ChainFollower16unprotected_next
FN:93,_RNvMNtCsdrmigHwrVIj_22cardano_chain_follower6followNtB2_13ChainFollower17next_from_mithril
FN:173,_RNvMNtCsdrmigHwrVIj_22cardano_chain_follower6followNtB2_13ChainFollower20next_from_live_chain
FN:321,_RNvMNtCsdrmigHwrVIj_22cardano_chain_follower6followNtB2_13ChainFollower4next
FN:355,_RNvMNtCsdrmigHwrVIj_22cardano_chain_follower6followNtB2_13ChainFollower8get_tips
FN:378,_RNvMNtCsdrmigHwrVIj_22cardano_chain_follower6followNtB2_13ChainFollower8post_txn
FN:396,_RNvMNtCsdrmigHwrVIj_22cardano_chain_follower6followNtB2_13ChainFollower8txn_sent
FN:341,_RNvMNtCsdrmigHwrVIj_22cardano_chain_follower6followNtB2_13ChainFollower9get_block
FNDA:3,_RNCNvMNtCsdrmigHwrVIj_22cardano_chain_follower6followNtB4_13ChainFollower3new0B6_
FNDA:1,_RNCNvNtNtCsdrmigHwrVIj_22cardano_chain_follower6follow5testss_23test_chain_follower_new0B7_
FNDA:1,_RNCNvNtNtCsdrmigHwrVIj_22cardano_chain_follower6follow5testss_34test_chain_follower_update_current0B7_
FNDA:1,_RNCNvNtNtCsdrmigHwrVIj_22cardano_chain_follower6follow5testss_57test_chain_follower_update_current_immutable_roll_forward0B7_
FNDA:3,_RNvMNtCsdrmigHwrVIj_22cardano_chain_follower6followNtB2_13ChainFollower3new
FNDA:2,_RNvNtNtCsdrmigHwrVIj_22cardano_chain_follower6follow5tests10mock_block
FNDA:1,_RNvNtNtCsdrmigHwrVIj_22cardano_chain_follower6follow5testss_23test_chain_follower_new
FNDA:1,_RNvNtNtCsdrmigHwrVIj_22cardano_chain_follower6follow5testss_34test_chain_follower_update_current
FNDA:1,_RNvNtNtCsdrmigHwrVIj_22cardano_chain_follower6follow5testss_57test_chain_follower_update_current_immutable_roll_forward
FNDA:2,_RNvMNtCsdrmigHwrVIj_22cardano_chain_follower6followNtB2_13ChainFollower14update_current
FNDA:0,_RNCNCNvMNtCsdrmigHwrVIj_22cardano_chain_follower6followNtB6_13ChainFollower17next_from_mithril00B8_
FNDA:0,_RNCNvMNtCsdrmigHwrVIj_22cardano_chain_follower6followNtB4_13ChainFollower16unprotected_next0B6_
FNDA:0,_RNCNvMNtCsdrmigHwrVIj_22cardano_chain_follower6followNtB4_13ChainFollower17next_from_mithril0B6_
FNDA:0,_RNCNvMNtCsdrmigHwrVIj_22cardano_chain_follower6followNtB4_13ChainFollower20next_from_live_chain0B6_
FNDA:0,_RNCNvMNtCsdrmigHwrVIj_22cardano_chain_follower6followNtB4_13ChainFollower4next0B6_
FNDA:0,_RNCNvMNtCsdrmigHwrVIj_22cardano_chain_follower6followNtB4_13ChainFollower8get_tips0B6_
FNDA:0,_RNCNvMNtCsdrmigHwrVIj_22cardano_chain_follower6followNtB4_13ChainFollower8post_txn0B6_
FNDA:0,_RNCNvMNtCsdrmigHwrVIj_22cardano_chain_follower6followNtB4_13ChainFollower8txn_sent0B6_
FNDA:0,_RNCNvMNtCsdrmigHwrVIj_22cardano_chain_follower6followNtB4_13ChainFollower9get_block0B6_
FNDA:0,_RNvMNtCsdrmigHwrVIj_22cardano_chain_follower6followNtB2_13ChainFollower16unprotected_next
FNDA:0,_RNvMNtCsdrmigHwrVIj_22cardano_chain_follower6followNtB2_13ChainFollower17next_from_mithril
FNDA:0,_RNvMNtCsdrmigHwrVIj_22cardano_chain_follower6followNtB2_13ChainFollower20next_from_live_chain
FNDA:0,_RNvMNtCsdrmigHwrVIj_22cardano_chain_follower6followNtB2_13ChainFollower4next
FNDA:0,_RNvMNtCsdrmigHwrVIj_22cardano_chain_follower6followNtB2_13ChainFollower8get_tips
FNDA:0,_RNvMNtCsdrmigHwrVIj_22cardano_chain_follower6followNtB2_13ChainFollower8post_txn
FNDA:0,_RNvMNtCsdrmigHwrVIj_22cardano_chain_follower6followNtB2_13ChainFollower8txn_sent
FNDA:0,_RNvMNtCsdrmigHwrVIj_22cardano_chain_follower6followNtB2_13ChainFollower9get_block
FNF:27
FNH:10
DA:72,3
DA:73,3
DA:74,3
DA:75,3
DA:76,3
DA:77,3
DA:79,3
DA:80,3
DA:81,3
DA:82,3
DA:83,3
DA:84,3
DA:85,3
DA:86,3
DA:87,3
DA:88,3
DA:89,3
DA:90,3
DA:93,0
DA:97,0
DA:100,0
DA:101,0
DA:103,0
DA:105,0
DA:106,0
DA:112,0
DA:113,0
DA:116,0
DA:119,0
DA:121,0
DA:122,0
DA:124,0
DA:126,0
DA:127,0
DA:133,0
DA:136,0
DA:138,0
DA:140,0
DA:141,0
DA:142,0
DA:144,0
DA:145,0
DA:146,0
DA:147,0
DA:148,0
DA:149,0
DA:151,0
DA:152,0
DA:153,0
DA:154,0
DA:155,0
DA:159,0
DA:160,0
DA:161,0
DA:163,0
DA:164,0
DA:166,0
DA:169,0
DA:170,0
DA:173,0
DA:174,0
DA:175,0
DA:176,0
DA:179,0
DA:180,0
DA:181,0
DA:182,0
DA:184,0
DA:187,0
DA:188,0
DA:189,0
DA:190,0
DA:191,0
DA:195,0
DA:196,0
DA:199,0
DA:200,0
DA:201,0
DA:203,0
DA:206,0
DA:207,0
DA:209,0
DA:210,0
DA:213,0
DA:214,0
DA:215,0
DA:216,0
DA:217,0
DA:219,0
DA:220,0
DA:222,0
DA:225,0
DA:227,0
DA:229,0
DA:230,0
DA:231,0
DA:232,0
DA:233,0
DA:234,0
DA:235,0
DA:237,0
DA:238,0
DA:239,0
DA:240,0
DA:242,0
DA:243,0
DA:246,2
DA:247,2
DA:248,2
DA:249,2
DA:250,2
DA:253,1
DA:254,1
DA:256,1
DA:259,1
DA:260,1
DA:262,1
DA:263,1
DA:264,1
DA:265,2
DA:274,0
DA:279,0
DA:280,0
DA:281,0
DA:282,0
DA:285,0
DA:286,0
DA:287,0
DA:288,0
DA:294,0
DA:295,0
DA:296,0
DA:299,0
DA:301,0
DA:307,0
DA:313,0
DA:317,0
DA:321,0
DA:323,0
DA:324,0
DA:325,0
DA:328,0
DA:331,0
DA:332,0
DA:341,0
DA:342,0
DA:343,0
DA:344,0
DA:348,0
DA:349,0
DA:350,0
DA:355,0
DA:357,0
DA:359,0
DA:361,0
DA:362,0
DA:364,0
DA:365,0
DA:378,0
DA:379,0
DA:380,0
DA:381,0
DA:383,0
DA:385,0
DA:387,0
DA:388,0
DA:396,0
DA:397,0
DA:398,0
DA:399,0
DA:401,0
DA:403,0
DA:405,0
DA:406,0
DA:418,2
DA:419,2
DA:420,2
DA:422,2
DA:423,2
DA:425,2
DA:426,2
DA:427,2
DA:428,2
DA:429,2
DA:430,2
DA:431,2
DA:434,2
DA:435,2
DA:436,2
DA:437,2
DA:438,2
DA:440,2
DA:441,2
DA:444,1
DA:445,1
DA:446,1
DA:447,1
DA:449,1
DA:451,1
DA:452,1
DA:453,1
DA:454,1
DA:455,1
DA:456,1
DA:458,1
DA:461,1
DA:462,1
DA:463,1
DA:464,1
DA:466,1
DA:468,1
DA:469,1
DA:471,1
DA:472,1
DA:474,1
DA:475,1
DA:476,1
DA:477,1
DA:480,1
DA:481,1
DA:482,1
DA:483,1
DA:485,1
DA:487,1
DA:488,1
DA:489,1
DA:491,1
DA:494,1
DA:495,1
DA:497,1
DA:498,1
BRF:0
BRH:0
LF:247
LH:96
end_of_record
SF:/root/build/cardano-chain-follower/src/mithril_query.rs
FN:47,_RNCNvNtCsdrmigHwrVIj_22cardano_chain_follower13mithril_query21get_mithril_tip_point0B5_
FN:25,_RNCNvNtCsdrmigHwrVIj_22cardano_chain_follower13mithril_query21make_mithril_iterator0B5_
FN:47,_RNvNtCsdrmigHwrVIj_22cardano_chain_follower13mithril_query21get_mithril_tip_point
FN:21,_RNvNtCsdrmigHwrVIj_22cardano_chain_follower13mithril_query21make_mithril_iterator
FN:34,_RNCNCNCNvNtCsdrmigHwrVIj_22cardano_chain_follower13mithril_query21make_mithril_iterator000B9_
FN:50,_RNCNCNvNtCsdrmigHwrVIj_22cardano_chain_follower13mithril_query21get_mithril_tip_point00B7_
FN:30,_RNCNCNvNtCsdrmigHwrVIj_22cardano_chain_follower13mithril_query21make_mithril_iterator00B7_
FNDA:1,_RNCNvNtCsdrmigHwrVIj_22cardano_chain_follower13mithril_query21get_mithril_tip_point0B5_
FNDA:0,_RNCNvNtCsdrmigHwrVIj_22cardano_chain_follower13mithril_query21make_mithril_iterator0B5_
FNDA:1,_RNvNtCsdrmigHwrVIj_22cardano_chain_follower13mithril_query21get_mithril_tip_point
FNDA:0,_RNvNtCsdrmigHwrVIj_22cardano_chain_follower13mithril_query21make_mithril_iterator
FNDA:0,_RNCNCNCNvNtCsdrmigHwrVIj_22cardano_chain_follower13mithril_query21make_mithril_iterator000B9_
FNDA:1,_RNCNCNvNtCsdrmigHwrVIj_22cardano_chain_follower13mithril_query21get_mithril_tip_point00B7_
FNDA:0,_RNCNCNvNtCsdrmigHwrVIj_22cardano_chain_follower13mithril_query21make_mithril_iterator00B7_
FNF:7
FNH:3
DA:21,0
DA:22,0
DA:23,0
DA:24,0
DA:25,0
DA:26,0
DA:27,0
DA:28,0
DA:30,0
DA:31,0
DA:32,0
DA:33,0
DA:34,0
DA:35,0
DA:36,0
DA:37,0
DA:38,0
DA:40,0
DA:41,0
DA:42,0
DA:44,0
DA:47,1
DA:48,1
DA:49,1
DA:50,1
DA:52,1
DA:53,0
DA:54,1
DA:55,0
DA:56,0
DA:58,1
BRF:0
BRH:0
LF:36
LH:9
end_of_record
SF:/root/build/cardano-chain-follower/src/mithril_snapshot.rs
FN:29,_RNvMNtCsdrmigHwrVIj_22cardano_chain_follower16mithril_snapshotNtB2_15MithrilSnapshot3new
FN:67,_RNCNCNvMNtCsdrmigHwrVIj_22cardano_chain_follower16mithril_snapshotNtB6_15MithrilSnapshot26try_read_blocks_from_point00B8_
FN:88,_RNCNvMNtCsdrmigHwrVIj_22cardano_chain_follower16mithril_snapshotNtB4_15MithrilSnapshot13read_block_at0B6_
FN:85,_RNvMNtCsdrmigHwrVIj_22cardano_chain_follower16mithril_snapshotNtB2_15MithrilSnapshot13read_block_at
FN:42,_RNvMNtCsdrmigHwrVIj_22cardano_chain_follower16mithril_snapshotNtB2_15MithrilSnapshot14contains_point
FNDA:3,_RNvMNtCsdrmigHwrVIj_22cardano_chain_follower16mithril_snapshotNtB2_15MithrilSnapshot3new
FNDA:0,_RNCNCNvMNtCsdrmigHwrVIj_22cardano_chain_follower16mithril_snapshotNtB6_15MithrilSnapshot26try_read_blocks_from_point00B8_
FNDA:0,_RNCNvMNtCsdrmigHwrVIj_22cardano_chain_follower16mithril_snapshotNtB4_15MithrilSnapshot13read_block_at0B6_
FNDA:0,_RNvMNtCsdrmigHwrVIj_22cardano_chain_follower16mithril_snapshotNtB2_15MithrilSnapshot13read_block_at
FNDA:0,_RNvMNtCsdrmigHwrVIj_22cardano_chain_follower16mithril_snapshotNtB2_15MithrilSnapshot14contains_point
FNF:5
FNH:1
DA:29,3
DA:30,3
DA:31,3
DA:42,0
DA:43,0
DA:44,0
DA:45,0
DA:46,0
DA:48,0
DA:49,0
DA:67,0
DA:68,0
DA:69,0
DA:72,0
DA:73,0
DA:74,0
DA:77,0
DA:78,0
DA:79,0
DA:80,0
DA:85,0
DA:86,0
DA:87,0
DA:88,0
DA:89,0
DA:90,0
DA:91,0
DA:92,0
DA:93,0
DA:94,0
BRF:0
BRH:0
LF:31
LH:3
end_of_record
SF:/root/build/cardano-chain-follower/src/mithril_snapshot_config.rs
FN:513,_RNCNvNtNtCsdrmigHwrVIj_22cardano_chain_follower23mithril_snapshot_config5testss_16test_default_for0B7_
FN:524,_RNCNvNtNtCsdrmigHwrVIj_22cardano_chain_follower23mithril_snapshot_config5testss_26test_validate_genesis_vkey0B7_
FN:513,_RNvNtNtCsdrmigHwrVIj_22cardano_chain_follower23mithril_snapshot_config5testss_16test_default_for
FN:524,_RNvNtNtCsdrmigHwrVIj_22cardano_chain_follower23mithril_snapshot_config5testss_26test_validate_genesis_vkey
FN:499,_RNCNvNtCsdrmigHwrVIj_22cardano_chain_follower23mithril_snapshot_config17remove_whitespace0B5_
FN:505,_RNCNvNtCsdrmigHwrVIj_22cardano_chain_follower23mithril_snapshot_config6is_hex0B5_
FN:72,_RNvMNtCsdrmigHwrVIj_22cardano_chain_follower23mithril_snapshot_configNtB2_21MithrilSnapshotConfig11default_for
FN:335,_RNvMNtCsdrmigHwrVIj_22cardano_chain_follower23mithril_snapshot_configNtB2_21MithrilSnapshotConfig21validate_genesis_vkey
FN:497,_RNvNtCsdrmigHwrVIj_22cardano_chain_follower23mithril_snapshot_config17remove_whitespace
FN:504,_RNvNtCsdrmigHwrVIj_22cardano_chain_follower23mithril_snapshot_config6is_hex
FN:316,_RNCNCNvMNtCsdrmigHwrVIj_22cardano_chain_follower23mithril_snapshot_configNtB6_21MithrilSnapshotConfig13validate_path00B8_
FN:359,_RNCNCNvMNtCsdrmigHwrVIj_22cardano_chain_follower23mithril_snapshot_configNtB6_21MithrilSnapshotConfig23validate_aggregator_url00B8_
FN:365,_RNCNCNvMNtCsdrmigHwrVIj_22cardano_chain_follower23mithril_snapshot_configNtB6_21MithrilSnapshotConfig23validate_aggregator_url0s_0B8_
FN:410,_RNCNCNvMNtCsdrmigHwrVIj_22cardano_chain_follower23mithril_snapshot_configNtB6_21MithrilSnapshotConfig3run00B8_
FN:431,_RNCNCNvMNtCsdrmigHwrVIj_22cardano_chain_follower23mithril_snapshot_configNtB6_21MithrilSnapshotConfig3run0s_0B8_
FN:304,_RNCNvMNtCsdrmigHwrVIj_22cardano_chain_follower23mithril_snapshot_configNtB4_21MithrilSnapshotConfig13validate_path0B6_
FN:349,_RNCNvMNtCsdrmigHwrVIj_22cardano_chain_follower23mithril_snapshot_configNtB4_21MithrilSnapshotConfig23validate_aggregator_url0B6_
FN:93,_RNCNvMNtCsdrmigHwrVIj_22cardano_chain_follower23mithril_snapshot_configNtB4_21MithrilSnapshotConfig26recover_latest_snapshot_id0B6_
FN:401,_RNCNvMNtCsdrmigHwrVIj_22cardano_chain_follower23mithril_snapshot_configNtB4_21MithrilSnapshotConfig3run0B6_
FN:171,_RNCNvMNtCsdrmigHwrVIj_22cardano_chain_follower23mithril_snapshot_configNtB4_21MithrilSnapshotConfig7cleanup0B6_
FN:136,_RNCNvMNtCsdrmigHwrVIj_22cardano_chain_follower23mithril_snapshot_configNtB4_21MithrilSnapshotConfig8activate0B6_
FN:389,_RNCNvMNtCsdrmigHwrVIj_22cardano_chain_follower23mithril_snapshot_configNtB4_21MithrilSnapshotConfig8validate0B6_
FN:294,_RNvMNtCsdrmigHwrVIj_22cardano_chain_follower23mithril_snapshot_configNtB2_21MithrilSnapshotConfig12mithril_path
FN:304,_RNvMNtCsdrmigHwrVIj_22cardano_chain_follower23mithril_snapshot_configNtB2_21MithrilSnapshotConfig13validate_path
FN:83,_RNvMNtCsdrmigHwrVIj_22cardano_chain_follower23mithril_snapshot_configNtB2_21MithrilSnapshotConfig14with_dl_config
FN:349,_RNvMNtCsdrmigHwrVIj_22cardano_chain_follower23mithril_snapshot_configNtB2_21MithrilSnapshotConfig23validate_aggregator_url
FN:93,_RNvMNtCsdrmigHwrVIj_22cardano_chain_follower23mithril_snapshot_configNtB2_21MithrilSnapshotConfig26recover_latest_snapshot_id
FN:401,_RNvMNtCsdrmigHwrVIj_22cardano_chain_follower23mithril_snapshot_configNtB2_21MithrilSnapshotConfig3run
FN:171,_RNvMNtCsdrmigHwrVIj_22cardano_chain_follower23mithril_snapshot_configNtB2_21MithrilSnapshotConfig7cleanup
FN:133,_RNvMNtCsdrmigHwrVIj_22cardano_chain_follower23mithril_snapshot_configNtB2_21MithrilSnapshotConfig8activate
FN:285,_RNvMNtCsdrmigHwrVIj_22cardano_chain_follower23mithril_snapshot_configNtB2_21MithrilSnapshotConfig8tmp_path
FN:389,_RNvMNtCsdrmigHwrVIj_22cardano_chain_follower23mithril_snapshot_configNtB2_21MithrilSnapshotConfig8validate
FN:231,_RNvMNtCsdrmigHwrVIj_22cardano_chain_follower23mithril_snapshot_configNtB2_21MithrilSnapshotConfig9dedup_tmp
FN:454,_RNvNtCsdrmigHwrVIj_22cardano_chain_follower23mithril_snapshot_config14check_writable
FNDA:1,_RNCNvNtNtCsdrmigHwrVIj_22cardano_chain_follower23mithril_snapshot_config5testss_16test_default_for0B7_
FNDA:1,_RNCNvNtNtCsdrmigHwrVIj_22cardano_chain_follower23mithril_snapshot_config5testss_26test_validate_genesis_vkey0B7_
FNDA:1,_RNvNtNtCsdrmigHwrVIj_22cardano_chain_follower23mithril_snapshot_config5testss_16test_default_for
FNDA:1,_RNvNtNtCsdrmigHwrVIj_22cardano_chain_follower23mithril_snapshot_config5testss_26test_validate_genesis_vkey
FNDA:16,_RNCNvNtCsdrmigHwrVIj_22cardano_chain_follower23mithril_snapshot_config17remove_whitespace0B5_
FNDA:16,_RNCNvNtCsdrmigHwrVIj_22cardano_chain_follower23mithril_snapshot_config6is_hex0B5_
FNDA:1,_RNvMNtCsdrmigHwrVIj_22cardano_chain_follower23mithril_snapshot_configNtB2_21MithrilSnapshotConfig11default_for
FNDA:2,_RNvMNtCsdrmigHwrVIj_22cardano_chain_follower23mithril_snapshot_configNtB2_21MithrilSnapshotConfig21validate_genesis_vkey
FNDA:2,_RNvNtCsdrmigHwrVIj_22cardano_chain_follower23mithril_snapshot_config17remove_whitespace
FNDA:2,_RNvNtCsdrmigHwrVIj_22cardano_chain_follower23mithril_snapshot_config6is_hex
FNDA:0,_RNCNCNvMNtCsdrmigHwrVIj_22cardano_chain_follower23mithril_snapshot_configNtB6_21MithrilSnapshotConfig13validate_path00B8_
FNDA:0,_RNCNCNvMNtCsdrmigHwrVIj_22cardano_chain_follower23mithril_snapshot_configNtB6_21MithrilSnapshotConfig23validate_aggregator_url00B8_
FNDA:0,_RNCNCNvMNtCsdrmigHwrVIj_22cardano_chain_follower23mithril_snapshot_configNtB6_21MithrilSnapshotConfig23validate_aggregator_url0s_0B8_
FNDA:0,_RNCNCNvMNtCsdrmigHwrVIj_22cardano_chain_follower23mithril_snapshot_configNtB6_21MithrilSnapshotConfig3run00B8_
FNDA:0,_RNCNCNvMNtCsdrmigHwrVIj_22cardano_chain_follower23mithril_snapshot_configNtB6_21MithrilSnapshotConfig3run0s_0B8_
FNDA:0,_RNCNvMNtCsdrmigHwrVIj_22cardano_chain_follower23mithril_snapshot_configNtB4_21MithrilSnapshotConfig13validate_path0B6_
FNDA:0,_RNCNvMNtCsdrmigHwrVIj_22cardano_chain_follower23mithril_snapshot_configNtB4_21MithrilSnapshotConfig23validate_aggregator_url0B6_
FNDA:0,_RNCNvMNtCsdrmigHwrVIj_22cardano_chain_follower23mithril_snapshot_configNtB4_21MithrilSnapshotConfig26recover_latest_snapshot_id0B6_
FNDA:0,_RNCNvMNtCsdrmigHwrVIj_22cardano_chain_follower23mithril_snapshot_configNtB4_21MithrilSnapshotConfig3run0B6_
FNDA:0,_RNCNvMNtCsdrmigHwrVIj_22cardano_chain_follower23mithril_snapshot_configNtB4_21MithrilSnapshotConfig7cleanup0B6_
FNDA:0,_RNCNvMNtCsdrmigHwrVIj_22cardano_chain_follower23mithril_snapshot_configNtB4_21MithrilSnapshotConfig8activate0B6_
FNDA:0,_RNCNvMNtCsdrmigHwrVIj_22cardano_chain_follower23mithril_snapshot_configNtB4_21MithrilSnapshotConfig8validate0B6_
FNDA:0,_RNvMNtCsdrmigHwrVIj_22cardano_chain_follower23mithril_snapshot_configNtB2_21MithrilSnapshotConfig12mithril_path
FNDA:0,_RNvMNtCsdrmigHwrVIj_22cardano_chain_follower23mithril_snapshot_configNtB2_21MithrilSnapshotConfig13validate_path
FNDA:0,_RNvMNtCsdrmigHwrVIj_22cardano_chain_follower23mithril_snapshot_configNtB2_21MithrilSnapshotConfig14with_dl_config
FNDA:0,_RNvMNtCsdrmigHwrVIj_22cardano_chain_follower23mithril_snapshot_configNtB2_21MithrilSnapshotConfig23validate_aggregator_url
FNDA:0,_RNvMNtCsdrmigHwrVIj_22cardano_chain_follower23mithril_snapshot_configNtB2_21MithrilSnapshotConfig26recover_latest_snapshot_id
FNDA:0,_RNvMNtCsdrmigHwrVIj_22cardano_chain_follower23mithril_snapshot_configNtB2_21MithrilSnapshotConfig3run
FNDA:0,_RNvMNtCsdrmigHwrVIj_22cardano_chain_follower23mithril_snapshot_configNtB2_21MithrilSnapshotConfig7cleanup
FNDA:0,_RNvMNtCsdrmigHwrVIj_22cardano_chain_follower23mithril_snapshot_configNtB2_21MithrilSnapshotConfig8activate
FNDA:0,_RNvMNtCsdrmigHwrVIj_22cardano_chain_follower23mithril_snapshot_configNtB2_21MithrilSnapshotConfig8tmp_path
FNDA:0,_RNvMNtCsdrmigHwrVIj_22cardano_chain_follower23mithril_snapshot_configNtB2_21MithrilSnapshotConfig8validate
FNDA:0,_RNvMNtCsdrmigHwrVIj_22cardano_chain_follower23mithril_snapshot_configNtB2_21MithrilSnapshotConfig9dedup_tmp
FNDA:0,_RNvNtCsdrmigHwrVIj_22cardano_chain_follower23mithril_snapshot_config14check_writable
FNF:34
FNH:10
DA:72,1
DA:73,1
DA:74,1
DA:75,1
DA:76,1
DA:77,1
DA:78,1
DA:79,1
DA:80,1
DA:83,0
DA:84,0
DA:85,0
DA:86,0
DA:87,0
DA:88,0
DA:89,0
DA:93,0
DA:96,0
DA:97,0
DA:99,0
DA:100,0
DA:101,0
DA:102,0
DA:104,0
DA:107,0
DA:108,0
DA:112,0
DA:113,0
DA:116,0
DA:117,0
DA:118,0
DA:119,0
DA:120,0
DA:121,0
DA:124,0
DA:125,0
DA:126,0
DA:128,0
DA:129,0
DA:133,0
DA:134,0
DA:135,0
DA:136,0
DA:137,0
DA:138,0
DA:140,0
DA:141,0
DA:143,0
DA:148,0
DA:149,0
DA:150,0
DA:151,0
DA:155,0
DA:156,0
DA:157,0
DA:158,0
DA:159,0
DA:160,0
DA:161,0
DA:164,0
DA:166,0
DA:167,0
DA:171,0
DA:172,0
DA:175,0
DA:176,0
DA:177,0
DA:178,0
DA:179,0
DA:182,0
DA:183,0
DA:184,0
DA:185,0
DA:186,0
DA:190,0
DA:192,0
DA:196,0
DA:197,0
DA:201,0
DA:204,0
DA:205,0
DA:206,0
DA:207,0
DA:209,0
DA:210,0
DA:211,0
DA:216,0
DA:217,0
DA:218,0
DA:219,0
DA:220,0
DA:225,0
DA:226,0
DA:231,0
DA:232,0
DA:233,0
DA:234,0
DA:235,0
DA:237,0
DA:238,0
DA:240,0
DA:241,0
DA:242,0
DA:247,0
DA:248,0
DA:249,0
DA:250,0
DA:251,0
DA:253,0
DA:254,0
DA:255,0
DA:257,0
DA:258,0
DA:260,0
DA:261,0
DA:262,0
DA:263,0
DA:264,0
DA:266,0
DA:267,0
DA:268,0
DA:269,0
DA:270,0
DA:271,0
DA:272,0
DA:274,0
DA:275,0
DA:278,0
DA:279,0
DA:280,0
DA:285,0
DA:286,0
DA:287,0
DA:288,0
DA:289,0
DA:294,0
DA:295,0
DA:296,0
DA:297,0
DA:298,0
DA:299,0
DA:300,0
DA:301,0
DA:304,0
DA:305,0
DA:306,0
DA:307,0
DA:308,0
DA:312,0
DA:314,0
DA:315,0
DA:316,0
DA:317,0
DA:320,0
DA:321,0
DA:322,0
DA:323,0
DA:324,0
DA:327,0
DA:328,0
DA:329,0
DA:331,0
DA:332,0
DA:335,2
DA:338,2
DA:339,2
DA:340,1
DA:341,1
DA:342,1
DA:343,1
DA:345,1
DA:346,2
DA:349,0
DA:350,0
DA:351,0
DA:353,0
DA:357,0
DA:358,0
DA:359,0
DA:361,0
DA:362,0
DA:363,0
DA:364,0
DA:365,0
DA:368,0
DA:369,0
DA:370,0
DA:371,0
DA:372,0
DA:373,0
DA:374,0
DA:375,0
DA:378,0
DA:379,0
DA:380,0
DA:381,0
DA:385,0
DA:386,0
DA:389,0
DA:391,0
DA:393,0
DA:395,0
DA:397,0
DA:398,0
DA:401,0
DA:402,0
DA:403,0
DA:404,0
DA:408,0
DA:409,0
DA:410,0
DA:412,0
DA:414,0
DA:415,0
DA:416,0
DA:417,0
DA:418,0
DA:419,0
DA:421,0
DA:427,0
DA:430,0
DA:431,0
DA:432,0
DA:433,0
DA:434,0
DA:437,0
DA:438,0
DA:439,0
DA:442,0
DA:443,0
DA:444,0
DA:447,0
DA:448,0
DA:454,0
DA:456,0
DA:457,0
DA:458,0
DA:459,0
DA:460,0
DA:463,0
DA:464,0
DA:468,0
DA:469,0
DA:473,0
DA:474,0
DA:478,0
DA:479,0
DA:480,0
DA:483,0
DA:484,0
DA:485,0
DA:489,0
DA:493,0
DA:494,0
DA:497,2
DA:498,2
DA:499,16
DA:500,2
DA:501,2
DA:504,2
DA:505,16
DA:506,2
DA:513,1
DA:514,1
DA:515,1
DA:517,1
DA:518,1
DA:519,1
DA:520,1
DA:521,1
DA:524,1
DA:525,1
DA:526,1
DA:527,1
DA:528,1
DA:529,1
DA:530,1
DA:531,1
DA:533,1
DA:535,1
DA:536,1
DA:537,1
DA:538,1
DA:539,1
DA:540,1
DA:541,1
DA:543,1
DA:544,1
BRF:0
BRH:0
LF:306
LH:58
end_of_record
SF:/root/build/cardano-chain-follower/src/mithril_snapshot_data.rs
FN:23,_RNvMNtCsdrmigHwrVIj_22cardano_chain_follower21mithril_snapshot_dataNtB2_12SnapshotData2id
FN:18,_RNvMNtCsdrmigHwrVIj_22cardano_chain_follower21mithril_snapshot_dataNtB2_12SnapshotData3new
FN:51,_RNvNtCsdrmigHwrVIj_22cardano_chain_follower21mithril_snapshot_data26latest_mithril_snapshot_id
FN:42,_RNvNtCsdrmigHwrVIj_22cardano_chain_follower21mithril_snapshot_data28latest_mithril_snapshot_data
FN:57,_RNvNtCsdrmigHwrVIj_22cardano_chain_follower21mithril_snapshot_data30update_latest_mithril_snapshot
FN:30,_RNvXs_NtCsdrmigHwrVIj_22cardano_chain_follower21mithril_snapshot_dataNtB4_12SnapshotDataNtNtCs66KPHxksi63_4core7default7Default7default
FNDA:0,_RNvMNtCsdrmigHwrVIj_22cardano_chain_follower21mithril_snapshot_dataNtB2_12SnapshotData2id
FNDA:0,_RNvMNtCsdrmigHwrVIj_22cardano_chain_follower21mithril_snapshot_dataNtB2_12SnapshotData3new
FNDA:0,_RNvNtCsdrmigHwrVIj_22cardano_chain_follower21mithril_snapshot_data26latest_mithril_snapshot_id
FNDA:0,_RNvNtCsdrmigHwrVIj_22cardano_chain_follower21mithril_snapshot_data28latest_mithril_snapshot_data
FNDA:0,_RNvNtCsdrmigHwrVIj_22cardano_chain_follower21mithril_snapshot_data30update_latest_mithril_snapshot
FNDA:0,_RNvXs_NtCsdrmigHwrVIj_22cardano_chain_follower21mithril_snapshot_dataNtB4_12SnapshotDataNtNtCs66KPHxksi63_4core7default7Default7default
FNF:6
FNH:0
DA:18,0
DA:19,0
DA:20,0
DA:23,0
DA:24,0
DA:25,0
DA:30,0
DA:31,0
DA:32,0
DA:33,0
DA:34,0
DA:42,0
DA:44,0
DA:45,0
DA:46,0
DA:48,0
DA:51,0
DA:53,0
DA:54,0
DA:57,0
DA:58,0
DA:59,0
DA:60,0
DA:61,0
DA:64,0
DA:65,0
BRF:0
BRH:0
LF:26
LH:0
end_of_record
SF:/root/build/cardano-chain-follower/src/mithril_snapshot_iterator.rs
FN:160,_RNCNCNvMs_NtCsdrmigHwrVIj_22cardano_chain_follower25mithril_snapshot_iteratorNtB8_23MithrilSnapshotIterator14fuzzy_iterator00Ba_
FN:189,_RNCNCNvMs_NtCsdrmigHwrVIj_22cardano_chain_follower25mithril_snapshot_iteratorNtB8_23MithrilSnapshotIterator3new00Ba_
FN:93,_RNCNvMs_NtCsdrmigHwrVIj_22cardano_chain_follower25mithril_snapshot_iteratorNtB6_23MithrilSnapshotIterator18try_fuzzy_iterator0B8_
FN:220,_RNCNvMs_NtCsdrmigHwrVIj_22cardano_chain_follower25mithril_snapshot_iteratorNtB6_23MithrilSnapshotIterator4next0B8_
FN:88,_RNvMs_NtCsdrmigHwrVIj_22cardano_chain_follower25mithril_snapshot_iteratorNtB4_23MithrilSnapshotIterator18try_fuzzy_iterator
FN:220,_RNvMs_NtCsdrmigHwrVIj_22cardano_chain_follower25mithril_snapshot_iteratorNtB4_23MithrilSnapshotIterator4next
FN:223,_RNCNCNvMs_NtCsdrmigHwrVIj_22cardano_chain_follower25mithril_snapshot_iteratorNtB8_23MithrilSnapshotIterator4next00Ba_
FN:59,_RNvNtCsdrmigHwrVIj_22cardano_chain_follower25mithril_snapshot_iterator11probe_point
FN:37,_RNvXNtCsdrmigHwrVIj_22cardano_chain_follower25mithril_snapshot_iteratorNtB2_28MithrilSnapshotIteratorInnerNtNtCs66KPHxksi63_4core3fmt5Debug3fmt
FN:239,_RNvXs0_NtCsdrmigHwrVIj_22cardano_chain_follower25mithril_snapshot_iteratorNtB5_28MithrilSnapshotIteratorInnerNtNtNtNtCs66KPHxksi63_4core4iter6traits8iterator8Iterator4next
FN:83,_RNvMs_NtCsdrmigHwrVIj_22cardano_chain_follower25mithril_snapshot_iteratorNtB4_23MithrilSnapshotIterator8is_valid
FNDA:0,_RNCNCNvMs_NtCsdrmigHwrVIj_22cardano_chain_follower25mithril_snapshot_iteratorNtB8_23MithrilSnapshotIterator14fuzzy_iterator00Ba_
FNDA:0,_RNCNCNvMs_NtCsdrmigHwrVIj_22cardano_chain_follower25mithril_snapshot_iteratorNtB8_23MithrilSnapshotIterator3new00Ba_
FNDA:0,_RNCNvMs_NtCsdrmigHwrVIj_22cardano_chain_follower25mithril_snapshot_iteratorNtB6_23MithrilSnapshotIterator18try_fuzzy_iterator0B8_
FNDA:0,_RNCNvMs_NtCsdrmigHwrVIj_22cardano_chain_follower25mithril_snapshot_iteratorNtB6_23MithrilSnapshotIterator4next0B8_
FNDA:0,_RNvMs_NtCsdrmigHwrVIj_22cardano_chain_follower25mithril_snapshot_iteratorNtB4_23MithrilSnapshotIterator18try_fuzzy_iterator
FNDA:0,_RNvMs_NtCsdrmigHwrVIj_22cardano_chain_follower25mithril_snapshot_iteratorNtB4_23MithrilSnapshotIterator4next
FNDA:0,_RNCNCNvMs_NtCsdrmigHwrVIj_22cardano_chain_follower25mithril_snapshot_iteratorNtB8_23MithrilSnapshotIterator4next00Ba_
FNDA:0,_RNvNtCsdrmigHwrVIj_22cardano_chain_follower25mithril_snapshot_iterator11probe_point
FNDA:0,_RNvXNtCsdrmigHwrVIj_22cardano_chain_follower25mithril_snapshot_iteratorNtB2_28MithrilSnapshotIteratorInnerNtNtCs66KPHxksi63_4core3fmt5Debug3fmt
FNDA:0,_RNvXs0_NtCsdrmigHwrVIj_22cardano_chain_follower25mithril_snapshot_iteratorNtB5_28MithrilSnapshotIteratorInnerNtNtNtNtCs66KPHxksi63_4core4iter6traits8iterator8Iterator4next
FNDA:0,_RNvMs_NtCsdrmigHwrVIj_22cardano_chain_follower25mithril_snapshot_iteratorNtB4_23MithrilSnapshotIterator8is_valid
FNF:11
FNH:0
DA:37,0
DA:38,0
DA:39,0
DA:40,0
DA:41,0
DA:42,0
DA:43,0
DA:46,0
DA:59,0
DA:60,0
DA:61,0
DA:62,0
DA:69,0
DA:72,0
DA:73,0
DA:74,0
DA:77,0
DA:78,0
DA:83,0
DA:84,0
DA:85,0
DA:88,0
DA:89,0
DA:90,0
DA:91,0
DA:92,0
DA:93,0
DA:94,0
DA:95,0
DA:96,0
DA:99,0
DA:100,0
DA:103,0
DA:105,0
DA:106,0
DA:107,0
DA:108,0
DA:111,0
DA:112,0
DA:113,0
DA:115,0
DA:118,0
DA:119,0
DA:120,0
DA:122,0
DA:123,0
DA:124,0
DA:126,0
DA:130,0
DA:133,0
DA:134,0
DA:137,0
DA:138,0
DA:142,0
DA:143,0
DA:144,0
DA:145,0
DA:146,0
DA:147,0
DA:150,0
DA:160,0
DA:161,0
DA:163,0
DA:164,0
DA:166,0
DA:167,0
DA:169,0
DA:171,0
DA:189,0
DA:190,0
DA:191,0
DA:192,0
DA:194,0
DA:195,0
DA:197,0
DA:198,0
DA:200,0
DA:203,0
DA:205,0
DA:207,0
DA:208,0
DA:209,0
DA:210,0
DA:211,0
DA:212,0
DA:213,0
DA:214,0
DA:215,0
DA:216,0
DA:220,0
DA:221,0
DA:223,0
DA:225,0
DA:226,0
DA:227,0
DA:228,0
DA:229,0
DA:230,0
DA:232,0
DA:233,0
DA:239,0
DA:240,0
DA:241,0
DA:242,0
DA:244,0
DA:245,0
DA:246,0
DA:247,0
DA:248,0
DA:249,0
DA:250,0
DA:253,0
DA:259,0
DA:260,0
DA:261,0
DA:263,0
DA:265,0
DA:266,0
DA:267,0
DA:270,0
DA:274,0
DA:276,0
DA:277,0
DA:278,0
DA:281,0
DA:282,0
DA:283,0
DA:284,0
DA:285,0
DA:287,0
DA:288,0
DA:291,0
DA:292,0
BRF:0
BRH:0
LF:136
LH:0
end_of_record
SF:/root/build/cardano-chain-follower/src/mithril_snapshot_sync.rs
FN:264,_RNCNvNtCsdrmigHwrVIj_22cardano_chain_follower21mithril_snapshot_sync15get_mithril_tip0B5_
FN:261,_RNvNtCsdrmigHwrVIj_22cardano_chain_follower21mithril_snapshot_sync15get_mithril_tip
FN:323,_RNCNCNvNtCsdrmigHwrVIj_22cardano_chain_follower21mithril_snapshot_sync25validate_mithril_snapshot00B7_
FN:370,_RNCNvNCNvNtCsdrmigHwrVIj_22cardano_chain_follower21mithril_snapshot_sync37get_latest_validated_mithril_snapshot026purge_bad_mithril_snapshot0B9_
FN:172,_RNCNvNtCsdrmigHwrVIj_22cardano_chain_follower21mithril_snapshot_sync12get_snapshot0B5_
FN:231,_RNCNvNtCsdrmigHwrVIj_22cardano_chain_follower21mithril_snapshot_sync14connect_client0B5_
FN:603,_RNCNvNtCsdrmigHwrVIj_22cardano_chain_follower21mithril_snapshot_sync15trim_chunk_list0B5_
FN:80,_RNCNvNtCsdrmigHwrVIj_22cardano_chain_follower21mithril_snapshot_sync18get_snapshot_by_id0B5_
FN:54,_RNCNvNtCsdrmigHwrVIj_22cardano_chain_follower21mithril_snapshot_sync20get_latest_snapshots0B5_
FN:149,_RNCNvNtCsdrmigHwrVIj_22cardano_chain_follower21mithril_snapshot_sync24calculate_sleep_duration0B5_
FN:732,_RNCNvNtCsdrmigHwrVIj_22cardano_chain_follower21mithril_snapshot_sync25background_mithril_update0B5_
FN:429,_RNCNvNtCsdrmigHwrVIj_22cardano_chain_follower21mithril_snapshot_sync25recover_existing_snapshot0B5_
FN:319,_RNCNvNtCsdrmigHwrVIj_22cardano_chain_follower21mithril_snapshot_sync25validate_mithril_snapshot0B5_
FN:511,_RNCNvNtCsdrmigHwrVIj_22cardano_chain_follower21mithril_snapshot_sync26check_snapshot_to_download0B5_
FN:589,_RNCNvNtCsdrmigHwrVIj_22cardano_chain_follower21mithril_snapshot_sync30chunk_filename_to_chunk_number0B5_
FN:626,_RNCNvNtCsdrmigHwrVIj_22cardano_chain_follower21mithril_snapshot_sync30download_and_validate_snapshot0B5_
FN:693,_RNCNvNtCsdrmigHwrVIj_22cardano_chain_follower21mithril_snapshot_sync32sleep_until_next_probable_update0B5_
FN:556,_RNCNvNtCsdrmigHwrVIj_22cardano_chain_follower21mithril_snapshot_sync36background_validate_mithril_snapshot0B5_
FN:296,_RNCNvNtCsdrmigHwrVIj_22cardano_chain_follower21mithril_snapshot_sync36get_mithril_snapshot_and_certificate0B5_
FN:365,_RNCNvNtCsdrmigHwrVIj_22cardano_chain_follower21mithril_snapshot_sync37get_latest_validated_mithril_snapshot0B5_
FN:202,_RNCNvNtCsdrmigHwrVIj_22cardano_chain_follower21mithril_snapshot_sync40download_and_verify_snapshot_certificate0B5_
FN:680,_RNCNvNtCsdrmigHwrVIj_22cardano_chain_follower21mithril_snapshot_sync7cleanup0B5_
FN:367,_RNvNCNvNtCsdrmigHwrVIj_22cardano_chain_follower21mithril_snapshot_sync37get_latest_validated_mithril_snapshot026purge_bad_mithril_snapshot
FN:168,_RNvNtCsdrmigHwrVIj_22cardano_chain_follower21mithril_snapshot_sync12get_snapshot
FN:102,_RNvNtCsdrmigHwrVIj_22cardano_chain_follower21mithril_snapshot_sync13create_client
FN:231,_RNvNtCsdrmigHwrVIj_22cardano_chain_follower21mithril_snapshot_sync14connect_client
FN:599,_RNvNtCsdrmigHwrVIj_22cardano_chain_follower21mithril_snapshot_sync15trim_chunk_list
FN:76,_RNvNtCsdrmigHwrVIj_22cardano_chain_follower21mithril_snapshot_sync18get_snapshot_by_id
FN:51,_RNvNtCsdrmigHwrVIj_22cardano_chain_follower21mithril_snapshot_sync20get_latest_snapshots
FN:125,_RNvNtCsdrmigHwrVIj_22cardano_chain_follower21mithril_snapshot_sync24calculate_sleep_duration
FN:729,_RNvNtCsdrmigHwrVIj_22cardano_chain_follower21mithril_snapshot_sync25background_mithril_update
FN:426,_RNvNtCsdrmigHwrVIj_22cardano_chain_follower21mithril_snapshot_sync25recover_existing_snapshot
FN:315,_RNvNtCsdrmigHwrVIj_22cardano_chain_follower21mithril_snapshot_sync25validate_mithril_snapshot
FN:507,_RNvNtCsdrmigHwrVIj_22cardano_chain_follower21mithril_snapshot_sync26check_snapshot_to_download
FN:587,_RNvNtCsdrmigHwrVIj_22cardano_chain_follower21mithril_snapshot_sync30chunk_filename_to_chunk_number
FN:620,_RNvNtCsdrmigHwrVIj_22cardano_chain_follower21mithril_snapshot_sync30download_and_validate_snapshot
FN:690,_RNvNtCsdrmigHwrVIj_22cardano_chain_follower21mithril_snapshot_sync32sleep_until_next_probable_update
FN:551,_RNvNtCsdrmigHwrVIj_22cardano_chain_follower21mithril_snapshot_sync36background_validate_mithril_snapshot
FN:292,_RNvNtCsdrmigHwrVIj_22cardano_chain_follower21mithril_snapshot_sync36get_mithril_snapshot_and_certificate
FN:361,_RNvNtCsdrmigHwrVIj_22cardano_chain_follower21mithril_snapshot_sync37get_latest_validated_mithril_snapshot
FN:198,_RNvNtCsdrmigHwrVIj_22cardano_chain_follower21mithril_snapshot_sync40download_and_verify_snapshot_certificate
FN:680,_RNvNtCsdrmigHwrVIj_22cardano_chain_follower21mithril_snapshot_sync7cleanup
FNDA:1,_RNCNvNtCsdrmigHwrVIj_22cardano_chain_follower21mithril_snapshot_sync15get_mithril_tip0B5_
FNDA:1,_RNvNtCsdrmigHwrVIj_22cardano_chain_follower21mithril_snapshot_sync15get_mithril_tip
FNDA:0,_RNCNCNvNtCsdrmigHwrVIj_22cardano_chain_follower21mithril_snapshot_sync25validate_mithril_snapshot00B7_
FNDA:0,_RNCNvNCNvNtCsdrmigHwrVIj_22cardano_chain_follower21mithril_snapshot_sync37get_latest_validated_mithril_snapshot026purge_bad_mithril_snapshot0B9_
FNDA:0,_RNCNvNtCsdrmigHwrVIj_22cardano_chain_follower21mithril_snapshot_sync12get_snapshot0B5_
FNDA:0,_RNCNvNtCsdrmigHwrVIj_22cardano_chain_follower21mithril_snapshot_sync14connect_client0B5_
FNDA:0,_RNCNvNtCsdrmigHwrVIj_22cardano_chain_follower21mithril_snapshot_sync15trim_chunk_list0B5_
FNDA:0,_RNCNvNtCsdrmigHwrVIj_22cardano_chain_follower21mithril_snapshot_sync18get_snapshot_by_id0B5_
FNDA:0,_RNCNvNtCsdrmigHwrVIj_22cardano_chain_follower21mithril_snapshot_sync20get_latest_snapshots0B5_
FNDA:0,_RNCNvNtCsdrmigHwrVIj_22cardano_chain_follower21mithril_snapshot_sync24calculate_sleep_duration0B5_
FNDA:0,_RNCNvNtCsdrmigHwrVIj_22cardano_chain_follower21mithril_snapshot_sync25background_mithril_update0B5_
FNDA:0,_RNCNvNtCsdrmigHwrVIj_22cardano_chain_follower21mithril_snapshot_sync25recover_existing_snapshot0B5_
FNDA:0,_RNCNvNtCsdrmigHwrVIj_22cardano_chain_follower21mithril_snapshot_sync25validate_mithril_snapshot0B5_
FNDA:0,_RNCNvNtCsdrmigHwrVIj_22cardano_chain_follower21mithril_snapshot_sync26check_snapshot_to_download0B5_
FNDA:0,_RNCNvNtCsdrmigHwrVIj_22cardano_chain_follower21mithril_snapshot_sync30chunk_filename_to_chunk_number0B5_
FNDA:0,_RNCNvNtCsdrmigHwrVIj_22cardano_chain_follower21mithril_snapshot_sync30download_and_validate_snapshot0B5_
FNDA:0,_RNCNvNtCsdrmigHwrVIj_22cardano_chain_follower21mithril_snapshot_sync32sleep_until_next_probable_update0B5_
FNDA:0,_RNCNvNtCsdrmigHwrVIj_22cardano_chain_follower21mithril_snapshot_sync36background_validate_mithril_snapshot0B5_
FNDA:0,_RNCNvNtCsdrmigHwrVIj_22cardano_chain_follower21mithril_snapshot_sync36get_mithril_snapshot_and_certificate0B5_
FNDA:0,_RNCNvNtCsdrmigHwrVIj_22cardano_chain_follower21mithril_snapshot_sync37get_latest_validated_mithril_snapshot0B5_
FNDA:0,_RNCNvNtCsdrmigHwrVIj_22cardano_chain_follower21mithril_snapshot_sync40download_and_verify_snapshot_certificate0B5_
FNDA:0,_RNCNvNtCsdrmigHwrVIj_22cardano_chain_follower21mithril_snapshot_sync7cleanup0B5_
FNDA:0,_RNvNCNvNtCsdrmigHwrVIj_22cardano_chain_follower21mithril_snapshot_sync37get_latest_validated_mithril_snapshot026purge_bad_mithril_snapshot
FNDA:0,_RNvNtCsdrmigHwrVIj_22cardano_chain_follower21mithril_snapshot_sync12get_snapshot
FNDA:0,_RNvNtCsdrmigHwrVIj_22cardano_chain_follower21mithril_snapshot_sync13create_client
FNDA:0,_RNvNtCsdrmigHwrVIj_22cardano_chain_follower21mithril_snapshot_sync14connect_client
FNDA:0,_RNvNtCsdrmigHwrVIj_22cardano_chain_follower21mithril_snapshot_sync15trim_chunk_list
FNDA:0,_RNvNtCsdrmigHwrVIj_22cardano_chain_follower21mithril_snapshot_sync18get_snapshot_by_id
FNDA:0,_RNvNtCsdrmigHwrVIj_22cardano_chain_follower21mithril_snapshot_sync20get_latest_snapshots
FNDA:0,_RNvNtCsdrmigHwrVIj_22cardano_chain_follower21mithril_snapshot_sync24calculate_sleep_duration
FNDA:0,_RNvNtCsdrmigHwrVIj_22cardano_chain_follower21mithril_snapshot_sync25background_mithril_update
FNDA:0,_RNvNtCsdrmigHwrVIj_22cardano_chain_follower21mithril_snapshot_sync25recover_existing_snapshot
FNDA:0,_RNvNtCsdrmigHwrVIj_22cardano_chain_follower21mithril_snapshot_sync25validate_mithril_snapshot
FNDA:0,_RNvNtCsdrmigHwrVIj_22cardano_chain_follower21mithril_snapshot_sync26check_snapshot_to_download
FNDA:0,_RNvNtCsdrmigHwrVIj_22cardano_chain_follower21mithril_snapshot_sync30chunk_filename_to_chunk_number
FNDA:0,_RNvNtCsdrmigHwrVIj_22cardano_chain_follower21mithril_snapshot_sync30download_and_validate_snapshot
FNDA:0,_RNvNtCsdrmigHwrVIj_22cardano_chain_follower21mithril_snapshot_sync32sleep_until_next_probable_update
FNDA:0,_RNvNtCsdrmigHwrVIj_22cardano_chain_follower21mithril_snapshot_sync36background_validate_mithril_snapshot
FNDA:0,_RNvNtCsdrmigHwrVIj_22cardano_chain_follower21mithril_snapshot_sync36get_mithril_snapshot_and_certificate
FNDA:0,_RNvNtCsdrmigHwrVIj_22cardano_chain_follower21mithril_snapshot_sync37get_latest_validated_mithril_snapshot
FNDA:0,_RNvNtCsdrmigHwrVIj_22cardano_chain_follower21mithril_snapshot_sync40download_and_verify_snapshot_certificate
FNDA:0,_RNvNtCsdrmigHwrVIj_22cardano_chain_follower21mithril_snapshot_sync7cleanup
FNF:42
FNH:2
DA:51,0
DA:52,0
DA:53,0
DA:54,0
DA:56,0
DA:57,0
DA:58,0
DA:59,0
DA:60,0
DA:65,0
DA:66,0
DA:67,0
DA:70,0
DA:72,0
DA:73,0
DA:76,0
DA:77,0
DA:78,0
DA:79,0
DA:80,0
DA:81,0
DA:82,0
DA:83,0
DA:84,0
DA:85,0
DA:90,0
DA:92,0
DA:93,0
DA:94,0
DA:97,0
DA:98,0
DA:102,0
DA:103,0
DA:106,0
DA:107,0
DA:108,0
DA:109,0
DA:110,0
DA:111,0
DA:112,0
DA:114,0
DA:115,0
DA:116,0
DA:117,0
DA:121,0
DA:122,0
DA:125,0
DA:126,0
DA:127,0
DA:128,0
DA:130,0
DA:131,0
DA:134,0
DA:135,0
DA:136,0
DA:137,0
DA:142,0
DA:143,0
DA:144,0
DA:146,0
DA:147,0
DA:148,0
DA:149,0
DA:151,0
DA:152,0
DA:153,0
DA:155,0
DA:156,0
DA:157,0
DA:158,0
DA:160,0
DA:161,0
DA:162,0
DA:163,0
DA:168,0
DA:169,0
DA:170,0
DA:171,0
DA:172,0
DA:173,0
DA:174,0
DA:175,0
DA:176,0
DA:177,0
DA:180,0
DA:181,0
DA:184,0
DA:186,0
DA:187,0
DA:190,0
DA:194,0
DA:195,0
DA:198,0
DA:199,0
DA:200,0
DA:201,0
DA:202,0
DA:203,0
DA:204,0
DA:205,0
DA:206,0
DA:208,0
DA:209,0
DA:211,0
DA:212,0
DA:216,0
DA:217,0
DA:231,0
DA:235,0
DA:236,0
DA:237,0
DA:241,0
DA:243,0
DA:261,1
DA:262,1
DA:263,1
DA:264,1
DA:265,1
DA:266,1
DA:268,1
DA:269,0
DA:270,0
DA:276,1
DA:277,0
DA:280,0
DA:281,0
DA:282,0
DA:284,0
DA:288,0
DA:289,1
DA:292,0
DA:293,0
DA:294,0
DA:295,0
DA:296,0
DA:297,0
DA:300,0
DA:303,0
DA:306,0
DA:309,0
DA:311,0
DA:312,0
DA:315,0
DA:316,0
DA:317,0
DA:318,0
DA:319,0
DA:320,0
DA:321,0
DA:322,0
DA:323,0
DA:326,0
DA:327,0
DA:328,0
DA:329,0
DA:330,0
DA:331,0
DA:332,0
DA:333,0
DA:335,0
DA:336,0
DA:337,0
DA:340,0
DA:341,0
DA:344,0
DA:346,0
DA:347,0
DA:349,0
DA:350,0
DA:351,0
DA:354,0
DA:361,0
DA:362,0
DA:363,0
DA:364,0
DA:365,0
DA:367,0
DA:368,0
DA:369,0
DA:370,0
DA:371,0
DA:372,0
DA:374,0
DA:375,0
DA:376,0
DA:380,0
DA:382,0
DA:386,0
DA:390,0
DA:391,0
DA:392,0
DA:394,0
DA:396,0
DA:397,0
DA:398,0
DA:402,0
DA:403,0
DA:405,0
DA:410,0
DA:413,0
DA:414,0
DA:416,0
DA:417,0
DA:418,0
DA:419,0
DA:420,0
DA:422,0
DA:423,0
DA:426,0
DA:427,0
DA:428,0
DA:429,0
DA:431,0
DA:435,0
DA:437,0
DA:438,0
DA:442,0
DA:446,0
DA:447,0
DA:450,0
DA:451,0
DA:453,0
DA:454,0
DA:455,0
DA:458,0
DA:459,0
DA:460,0
DA:461,0
DA:462,0
DA:463,0
DA:464,0
DA:467,0
DA:469,0
DA:470,0
DA:471,0
DA:472,0
DA:476,0
DA:477,0
DA:481,0
DA:484,0
DA:485,0
DA:486,0
DA:487,0
DA:488,0
DA:491,0
DA:492,0
DA:494,0
DA:495,0
DA:507,0
DA:508,0
DA:509,0
DA:510,0
DA:511,0
DA:512,0
DA:516,0
DA:517,0
DA:519,0
DA:522,0
DA:525,0
DA:526,0
DA:527,0
DA:528,0
DA:529,0
DA:530,0
DA:531,0
DA:532,0
DA:533,0
DA:534,0
DA:537,0
DA:538,0
DA:542,0
DA:543,0
DA:546,0
DA:547,0
DA:551,0
DA:552,0
DA:553,0
DA:554,0
DA:555,0
DA:556,0
DA:557,0
DA:558,0
DA:559,0
DA:563,0
DA:565,0
DA:566,0
DA:568,0
DA:570,0
DA:572,0
DA:573,0
DA:574,0
DA:576,0
DA:577,0
DA:581,0
DA:582,0
DA:583,0
DA:584,0
DA:587,0
DA:588,0
DA:589,0
DA:590,0
DA:591,0
DA:592,0
DA:593,0
DA:594,0
DA:595,0
DA:596,0
DA:599,0
DA:600,0
DA:601,0
DA:602,0
DA:603,0
DA:604,0
DA:605,0
DA:606,0
DA:607,0
DA:609,0
DA:613,0
DA:614,0
DA:616,0
DA:617,0
DA:620,0
DA:621,0
DA:622,0
DA:623,0
DA:624,0
DA:625,0
DA:626,0
DA:627,0
DA:628,0
DA:633,0
DA:634,0
DA:635,0
DA:636,0
DA:639,0
DA:640,0
DA:641,0
DA:643,0
DA:644,0
DA:648,0
DA:650,0
DA:651,0
DA:655,0
DA:657,0
DA:658,0
DA:662,0
DA:664,0
DA:665,0
DA:667,0
DA:668,0
DA:670,0
DA:671,0
DA:672,0
DA:673,0
DA:675,0
DA:676,0
DA:680,0
DA:681,0
DA:682,0
DA:683,0
DA:686,0
DA:687,0
DA:690,0
DA:691,0
DA:692,0
DA:693,0
DA:694,0
DA:695,0
DA:697,0
DA:700,0
DA:703,0
DA:704,0
DA:729,0
DA:730,0
DA:731,0
DA:732,0
DA:733,0
DA:734,0
DA:737,0
DA:739,0
DA:741,0
DA:744,0
DA:746,0
DA:748,0
DA:750,0
DA:752,0
DA:753,0
DA:754,0
DA:755,0
DA:757,0
DA:759,0
DA:760,0
DA:761,0
DA:763,0
DA:766,0
DA:767,0
DA:768,0
DA:769,0
DA:770,0
DA:771,0
DA:772,0
DA:773,0
DA:775,0
DA:776,0
DA:778,0
DA:779,0
DA:782,0
DA:783,0
DA:784,0
DA:786,0
DA:787,0
DA:790,0
DA:792,0
DA:796,0
DA:799,0
DA:800,0
DA:801,0
DA:802,0
DA:805,0
DA:806,0
DA:807,0
DA:808,0
DA:811,0
DA:812,0
DA:813,0
DA:814,0
DA:817,0
DA:819,0
DA:821,0
DA:824,0
DA:825,0
DA:826,0
DA:827,0
DA:828,0
DA:829,0
DA:831,0
DA:832,0
DA:835,0
DA:836,0
DA:837,0
DA:839,0
DA:840,0
DA:841,0
DA:843,0
DA:844,0
DA:845,0
DA:846,0
DA:848,0
DA:849,0
DA:850,0
DA:852,0
DA:855,0
BRF:0
BRH:0
LF:473
LH:10
end_of_record
SF:/root/build/cardano-chain-follower/src/mithril_turbo_downloader.rs
FN:348,_RNCNCNvMs_NtCsdrmigHwrVIj_22cardano_chain_follower24mithril_turbo_downloaderNtB8_22MithrilTurboDownloader12dl_and_dedup00Ba_
FN:176,_RNCNvMNtCsdrmigHwrVIj_22cardano_chain_follower24mithril_turbo_downloaderNtB4_5Inner12dl_and_dedup0B6_
FN:440,_RNCNvMs0_NtCsdrmigHwrVIj_22cardano_chain_follower24mithril_turbo_downloaderNtB7_22MithrilTurboDownloader5probe0B9_
FN:341,_RNCNvMs_NtCsdrmigHwrVIj_22cardano_chain_follower24mithril_turbo_downloaderNtB6_22MithrilTurboDownloader12dl_and_dedup0B8_
FN:323,_RNCNvMs_NtCsdrmigHwrVIj_22cardano_chain_follower24mithril_turbo_downloaderNtB6_22MithrilTurboDownloader18create_directories0B8_
FN:93,_RNvMNtCsdrmigHwrVIj_22cardano_chain_follower24mithril_turbo_downloaderNtB2_5Inner12dl_and_dedup
FN:275,_RNvMNtCsdrmigHwrVIj_22cardano_chain_follower24mithril_turbo_downloaderNtB2_5Inner14mmap_open_sync
FN:249,_RNvMNtCsdrmigHwrVIj_22cardano_chain_follower24mithril_turbo_downloaderNtB2_5Inner15can_deduplicate
FN:225,_RNvMNtCsdrmigHwrVIj_22cardano_chain_follower24mithril_turbo_downloaderNtB2_5Inner17check_for_extract
FN:209,_RNvMNtCsdrmigHwrVIj_22cardano_chain_follower24mithril_turbo_downloaderNtB2_5Inner24create_archive_extractor
FN:437,_RNvMs0_NtCsdrmigHwrVIj_22cardano_chain_follower24mithril_turbo_downloaderNtB5_22MithrilTurboDownloader5probe
FN:337,_RNvMs_NtCsdrmigHwrVIj_22cardano_chain_follower24mithril_turbo_downloaderNtB4_22MithrilTurboDownloader12dl_and_dedup
FN:315,_RNvMs_NtCsdrmigHwrVIj_22cardano_chain_follower24mithril_turbo_downloaderNtB4_22MithrilTurboDownloader14get_new_chunks
FN:320,_RNvMs_NtCsdrmigHwrVIj_22cardano_chain_follower24mithril_turbo_downloaderNtB4_22MithrilTurboDownloader18create_directories
FN:294,_RNvMs_NtCsdrmigHwrVIj_22cardano_chain_follower24mithril_turbo_downloaderNtB4_22MithrilTurboDownloader3new
FN:372,_RNvNtCsdrmigHwrVIj_22cardano_chain_follower24mithril_turbo_downloader18get_file_size_sync
FN:388,_RNvXs1_NtCsdrmigHwrVIj_22cardano_chain_follower24mithril_turbo_downloaderNtB5_22MithrilTurboDownloaderNtNtNtCsepTgPWtTZh8_14mithril_client15file_downloader9interface14FileDownloader15download_unpack
FNDA:0,_RNCNCNvMs_NtCsdrmigHwrVIj_22cardano_chain_follower24mithril_turbo_downloaderNtB8_22MithrilTurboDownloader12dl_and_dedup00Ba_
FNDA:0,_RNCNvMNtCsdrmigHwrVIj_22cardano_chain_follower24mithril_turbo_downloaderNtB4_5Inner12dl_and_dedup0B6_
FNDA:0,_RNCNvMs0_NtCsdrmigHwrVIj_22cardano_chain_follower24mithril_turbo_downloaderNtB7_22MithrilTurboDownloader5probe0B9_
FNDA:0,_RNCNvMs_NtCsdrmigHwrVIj_22cardano_chain_follower24mithril_turbo_downloaderNtB6_22MithrilTurboDownloader12dl_and_dedup0B8_
FNDA:0,_RNCNvMs_NtCsdrmigHwrVIj_22cardano_chain_follower24mithril_turbo_downloaderNtB6_22MithrilTurboDownloader18create_directories0B8_
FNDA:0,_RNvMNtCsdrmigHwrVIj_22cardano_chain_follower24mithril_turbo_downloaderNtB2_5Inner12dl_and_dedup
FNDA:0,_RNvMNtCsdrmigHwrVIj_22cardano_chain_follower24mithril_turbo_downloaderNtB2_5Inner14mmap_open_sync
FNDA:0,_RNvMNtCsdrmigHwrVIj_22cardano_chain_follower24mithril_turbo_downloaderNtB2_5Inner15can_deduplicate
FNDA:0,_RNvMNtCsdrmigHwrVIj_22cardano_chain_follower24mithril_turbo_downloaderNtB2_5Inner17check_for_extract
FNDA:0,_RNvMNtCsdrmigHwrVIj_22cardano_chain_follower24mithril_turbo_downloaderNtB2_5Inner24create_archive_extractor
FNDA:0,_RNvMs0_NtCsdrmigHwrVIj_22cardano_chain_follower24mithril_turbo_downloaderNtB5_22MithrilTurboDownloader5probe
FNDA:0,_RNvMs_NtCsdrmigHwrVIj_22cardano_chain_follower24mithril_turbo_downloaderNtB4_22MithrilTurboDownloader12dl_and_dedup
FNDA:0,_RNvMs_NtCsdrmigHwrVIj_22cardano_chain_follower24mithril_turbo_downloaderNtB4_22MithrilTurboDownloader14get_new_chunks
FNDA:0,_RNvMs_NtCsdrmigHwrVIj_22cardano_chain_follower24mithril_turbo_downloaderNtB4_22MithrilTurboDownloader18create_directories
FNDA:0,_RNvMs_NtCsdrmigHwrVIj_22cardano_chain_follower24mithril_turbo_downloaderNtB4_22MithrilTurboDownloader3new
FNDA:0,_RNvNtCsdrmigHwrVIj_22cardano_chain_follower24mithril_turbo_downloader18get_file_size_sync
FNDA:0,_RNvXs1_NtCsdrmigHwrVIj_22cardano_chain_follower24mithril_turbo_downloaderNtB5_22MithrilTurboDownloaderNtNtNtCsepTgPWtTZh8_14mithril_client15file_downloader9interface14FileDownloader15download_unpack
FNF:17
FNH:0
DA:93,0
DA:94,0
DA:95,0
DA:96,0
DA:97,0
DA:98,0
DA:101,0
DA:102,0
DA:103,0
DA:106,0
DA:107,0
DA:109,0
DA:110,0
DA:111,0
DA:112,0
DA:114,0
DA:115,0
DA:121,0
DA:122,0
DA:123,0
DA:126,0
DA:128,0
DA:129,0
DA:131,0
DA:132,0
DA:133,0
DA:134,0
DA:139,0
DA:142,0
DA:144,0
DA:145,0
DA:146,0
DA:147,0
DA:148,0
DA:149,0
DA:151,0
DA:153,0
DA:155,0
DA:159,0
DA:162,0
DA:163,0
DA:164,0
DA:165,0
DA:166,0
DA:167,0
DA:168,0
DA:170,0
DA:171,0
DA:172,0
DA:173,0
DA:176,0
DA:179,0
DA:180,0
DA:183,0
DA:186,0
DA:189,0
DA:191,0
DA:192,0
DA:194,0
DA:197,0
DA:198,0
DA:201,0
DA:203,0
DA:205,0
DA:206,0
DA:209,0
DA:210,0
DA:211,0
DA:213,0
DA:214,0
DA:216,0
DA:217,0
DA:218,0
DA:219,0
DA:221,0
DA:222,0
DA:225,0
DA:226,0
DA:227,0
DA:228,0
DA:229,0
DA:230,0
DA:231,0
DA:232,0
DA:233,0
DA:235,0
DA:237,0
DA:238,0
DA:240,0
DA:241,0
DA:242,0
DA:243,0
DA:245,0
DA:246,0
DA:249,0
DA:250,0
DA:251,0
DA:252,0
DA:253,0
DA:255,0
DA:257,0
DA:258,0
DA:261,0
DA:262,0
DA:263,0
DA:264,0
DA:265,0
DA:266,0
DA:267,0
DA:268,0
DA:269,0
DA:270,0
DA:271,0
DA:272,0
DA:275,0
DA:276,0
DA:277,0
DA:278,0
DA:279,0
DA:280,0
DA:283,0
DA:294,0
DA:296,0
DA:298,0
DA:300,0
DA:301,0
DA:302,0
DA:303,0
DA:304,0
DA:305,0
DA:306,0
DA:307,0
DA:308,0
DA:309,0
DA:310,0
DA:311,0
DA:312,0
DA:315,0
DA:316,0
DA:317,0
DA:320,0
DA:321,0
DA:322,0
DA:323,0
DA:324,0
DA:325,0
DA:326,0
DA:327,0
DA:330,0
DA:331,0
DA:333,0
DA:334,0
DA:337,0
DA:338,0
DA:339,0
DA:340,0
DA:341,0
DA:343,0
DA:344,0
DA:345,0
DA:348,0
DA:349,0
DA:350,0
DA:351,0
DA:354,0
DA:355,0
DA:356,0
DA:357,0
DA:358,0
DA:361,0
DA:363,0
DA:364,0
DA:365,0
DA:367,0
DA:368,0
DA:372,0
DA:373,0
DA:374,0
DA:376,0
DA:377,0
DA:388,0
DA:431,0
DA:437,0
DA:438,0
DA:439,0
DA:440,0
DA:441,0
DA:442,0
DA:443,0
DA:444,0
DA:447,0
DA:450,0
DA:453,0
DA:454,0
DA:455,0
DA:457,0
DA:458,0
BRF:0
BRH:0
LF:203
LH:0
end_of_record
SF:/root/build/cardano-chain-follower/src/snapshot_id.rs
FN:61,_RNCNvMNtCsdrmigHwrVIj_22cardano_chain_follower11snapshot_idNtB4_10SnapshotId7try_new0B6_
FN:250,_RNCNvNtNtCsdrmigHwrVIj_22cardano_chain_follower11snapshot_id5testss_12test_try_new0B7_
FN:58,_RNvMNtCsdrmigHwrVIj_22cardano_chain_follower11snapshot_idNtB2_10SnapshotId7try_new
FN:278,_RNvNtNtCsdrmigHwrVIj_22cardano_chain_follower11snapshot_id5testss_12test_compare
FN:250,_RNvNtNtCsdrmigHwrVIj_22cardano_chain_follower11snapshot_id5testss_12test_try_new
FN:211,_RNvNtNtCsdrmigHwrVIj_22cardano_chain_follower11snapshot_id5testss_15test_parse_path
FN:263,_RNvNtNtCsdrmigHwrVIj_22cardano_chain_follower11snapshot_id5testss_19test_immutable_path
FN:235,_RNvNtNtCsdrmigHwrVIj_22cardano_chain_follower11snapshot_id5testss_8test_new
FN:133,_RNvXs2_NtCsdrmigHwrVIj_22cardano_chain_follower11snapshot_idNtB5_10SnapshotIdNtNtCs66KPHxksi63_4core3cmp9PartialEq2eq
FN:144,_RNvXs3_NtCsdrmigHwrVIj_22cardano_chain_follower11snapshot_idNtB5_10SnapshotIdNtNtCs66KPHxksi63_4core3cmp10PartialOrd11partial_cmp
FN:27,_RNvMNtCsdrmigHwrVIj_22cardano_chain_follower11snapshot_idNtB2_10SnapshotId10parse_path
FN:70,_RNvMNtCsdrmigHwrVIj_22cardano_chain_follower11snapshot_idNtB2_10SnapshotId14immutable_path
FN:41,_RNvMNtCsdrmigHwrVIj_22cardano_chain_follower11snapshot_idNtB2_10SnapshotId3new
FN:83,_RNvMNtCsdrmigHwrVIj_22cardano_chain_follower11snapshot_idNtB2_10SnapshotId14path_if_exists
FN:91,_RNvMNtCsdrmigHwrVIj_22cardano_chain_follower11snapshot_idNtB2_10SnapshotId3tip
FN:78,_RNvMNtCsdrmigHwrVIj_22cardano_chain_follower11snapshot_idNtB2_10SnapshotId4path
FN:108,_RNvXs0_NtCsdrmigHwrVIj_22cardano_chain_follower11snapshot_idNtB5_10SnapshotIdINtNtCs66KPHxksi63_4core7convert5AsRefNtNtCsiKSG5X70Gj7_3std4path4PathE6as_ref
FN:115,_RNvXs1_NtCsdrmigHwrVIj_22cardano_chain_follower11snapshot_idNtB5_10SnapshotIdNtNtCs66KPHxksi63_4core3fmt7Display3fmt
FN:156,_RNvXs4_NtCsdrmigHwrVIj_22cardano_chain_follower11snapshot_idNtB5_10SnapshotIdINtNtCs66KPHxksi63_4core3cmp9PartialEqINtNtB1i_6option6OptionBW_EE2eq
FN:170,_RNvXs5_NtCsdrmigHwrVIj_22cardano_chain_follower11snapshot_idNtB5_10SnapshotIdINtNtCs66KPHxksi63_4core3cmp10PartialOrdINtNtB1i_6option6OptionBW_EE11partial_cmp
FN:185,_RNvXs6_NtCsdrmigHwrVIj_22cardano_chain_follower11snapshot_idNtB5_10SnapshotIdINtNtCs66KPHxksi63_4core3cmp9PartialEqyE2eq
FN:196,_RNvXs7_NtCsdrmigHwrVIj_22cardano_chain_follower11snapshot_idNtB5_10SnapshotIdINtNtCs66KPHxksi63_4core3cmp10PartialOrdyE11partial_cmp
FN:98,_RNvXs_NtCsdrmigHwrVIj_22cardano_chain_follower11snapshot_idNtB4_10SnapshotIdNtNtCs66KPHxksi63_4core7default7Default7default
FNDA:1,_RNCNvMNtCsdrmigHwrVIj_22cardano_chain_follower11snapshot_idNtB4_10SnapshotId7try_new0B6_
FNDA:1,_RNCNvNtNtCsdrmigHwrVIj_22cardano_chain_follower11snapshot_id5testss_12test_try_new0B7_
FNDA:1,_RNvMNtCsdrmigHwrVIj_22cardano_chain_follower11snapshot_idNtB2_10SnapshotId7try_new
FNDA:1,_RNvNtNtCsdrmigHwrVIj_22cardano_chain_follower11snapshot_id5testss_12test_compare
FNDA:1,_RNvNtNtCsdrmigHwrVIj_22cardano_chain_follower11snapshot_id5testss_12test_try_new
FNDA:1,_RNvNtNtCsdrmigHwrVIj_22cardano_chain_follower11snapshot_id5testss_15test_parse_path
FNDA:1,_RNvNtNtCsdrmigHwrVIj_22cardano_chain_follower11snapshot_id5testss_19test_immutable_path
FNDA:1,_RNvNtNtCsdrmigHwrVIj_22cardano_chain_follower11snapshot_id5testss_8test_new
FNDA:10,_RNvXs2_NtCsdrmigHwrVIj_22cardano_chain_follower11snapshot_idNtB5_10SnapshotIdNtNtCs66KPHxksi63_4core3cmp9PartialEq2eq
FNDA:7,_RNvXs3_NtCsdrmigHwrVIj_22cardano_chain_follower11snapshot_idNtB5_10SnapshotIdNtNtCs66KPHxksi63_4core3cmp10PartialOrd11partial_cmp
FNDA:13,_RNvMNtCsdrmigHwrVIj_22cardano_chain_follower11snapshot_idNtB2_10SnapshotId10parse_path
FNDA:1,_RNvMNtCsdrmigHwrVIj_22cardano_chain_follower11snapshot_idNtB2_10SnapshotId14immutable_path
FNDA:8,_RNvMNtCsdrmigHwrVIj_22cardano_chain_follower11snapshot_idNtB2_10SnapshotId3new
FNDA:0,_RNvMNtCsdrmigHwrVIj_22cardano_chain_follower11snapshot_idNtB2_10SnapshotId14path_if_exists
FNDA:0,_RNvMNtCsdrmigHwrVIj_22cardano_chain_follower11snapshot_idNtB2_10SnapshotId3tip
FNDA:0,_RNvMNtCsdrmigHwrVIj_22cardano_chain_follower11snapshot_idNtB2_10SnapshotId4path
FNDA:0,_RNvXs0_NtCsdrmigHwrVIj_22cardano_chain_follower11snapshot_idNtB5_10SnapshotIdINtNtCs66KPHxksi63_4core7convert5AsRefNtNtCsiKSG5X70Gj7_3std4path4PathE6as_ref
FNDA:0,_RNvXs1_NtCsdrmigHwrVIj_22cardano_chain_follower11snapshot_idNtB5_10SnapshotIdNtNtCs66KPHxksi63_4core3fmt7Display3fmt
FNDA:0,_RNvXs4_NtCsdrmigHwrVIj_22cardano_chain_follower11snapshot_idNtB5_10SnapshotIdINtNtCs66KPHxksi63_4core3cmp9PartialEqINtNtB1i_6option6OptionBW_EE2eq
FNDA:0,_RNvXs5_NtCsdrmigHwrVIj_22cardano_chain_follower11snapshot_idNtB5_10SnapshotIdINtNtCs66KPHxksi63_4core3cmp10PartialOrdINtNtB1i_6option6OptionBW_EE11partial_cmp
FNDA:0,_RNvXs6_NtCsdrmigHwrVIj_22cardano_chain_follower11snapshot_idNtB5_10SnapshotIdINtNtCs66KPHxksi63_4core3cmp9PartialEqyE2eq
FNDA:0,_RNvXs7_NtCsdrmigHwrVIj_22cardano_chain_follower11snapshot_idNtB5_10SnapshotIdINtNtCs66KPHxksi63_4core3cmp10PartialOrdyE11partial_cmp
FNDA:0,_RNvXs_NtCsdrmigHwrVIj_22cardano_chain_follower11snapshot_idNtB4_10SnapshotIdNtNtCs66KPHxksi63_4core7default7Default7default
FNF:23
FNH:13
DA:27,13
DA:28,13
DA:29,1
DA:30,12
DA:32,12
DA:33,12
DA:34,12
DA:35,12
DA:36,12
DA:37,13
DA:41,8
DA:42,8
DA:43,8
DA:44,8
DA:45,8
DA:46,8
DA:47,8
DA:49,8
DA:50,8
DA:51,8
DA:52,8
DA:53,8
DA:54,8
DA:58,1
DA:59,1
DA:60,1
DA:61,1
DA:62,1
DA:63,1
DA:66,0
DA:67,1
DA:70,1
DA:71,1
DA:72,1
DA:74,1
DA:75,1
DA:78,0
DA:79,0
DA:80,0
DA:83,0
DA:84,0
DA:85,0
DA:86,0
DA:87,0
DA:88,0
DA:91,0
DA:92,0
DA:93,0
DA:98,0
DA:99,0
DA:100,0
DA:101,0
DA:102,0
DA:103,0
DA:104,0
DA:108,0
DA:109,0
DA:110,0
DA:115,0
DA:116,0
DA:117,0
DA:118,0
DA:119,0
DA:120,0
DA:121,0
DA:122,0
DA:126,0
DA:133,10
DA:134,10
DA:135,10
DA:136,10
DA:137,10
DA:138,10
DA:144,7
DA:145,7
DA:146,7
DA:147,7
DA:148,7
DA:149,7
DA:156,0
DA:157,0
DA:158,0
DA:159,0
DA:160,0
DA:161,0
DA:162,0
DA:164,0
DA:170,0
DA:171,0
DA:172,0
DA:173,0
DA:174,0
DA:175,0
DA:176,0
DA:178,0
DA:185,0
DA:186,0
DA:187,0
DA:188,0
DA:189,0
DA:190,0
DA:196,0
DA:197,0
DA:198,0
DA:199,0
DA:200,0
DA:201,0
DA:211,1
DA:212,1
DA:213,1
DA:214,1
DA:215,1
DA:216,1
DA:218,1
DA:219,1
DA:222,1
DA:223,1
DA:226,1
DA:227,1
DA:230,1
DA:231,1
DA:232,1
DA:235,1
DA:236,1
DA:237,1
DA:238,1
DA:240,1
DA:241,1
DA:242,1
DA:244,1
DA:245,1
DA:246,1
DA:247,1
DA:250,1
DA:251,1
DA:252,1
DA:253,1
DA:254,1
DA:256,1
DA:257,1
DA:258,1
DA:259,1
DA:260,1
DA:263,1
DA:264,1
DA:266,1
DA:268,1
DA:269,1
DA:271,1
DA:272,1
DA:273,1
DA:275,1
DA:278,1
DA:279,1
DA:280,1
DA:281,1
DA:282,1
DA:284,1
DA:285,1
DA:286,1
DA:288,1
DA:289,1
DA:290,1
DA:291,1
DA:293,1
DA:294,1
DA:295,1
DA:296,1
DA:297,1
DA:298,1
DA:300,1
DA:301,1
DA:302,1
DA:303,1
DA:304,1
DA:306,1
DA:307,1
DA:308,1
DA:309,1
DA:310,1
DA:311,1
DA:312,1
BRF:0
BRH:0
LF:186
LH:126
end_of_record
SF:/root/build/cardano-chain-follower/src/stats/live_chain.rs
FN:57,_RNvMNtNtCsdrmigHwrVIj_22cardano_chain_follower5stats10live_chainNtB2_4Live5reset
FNDA:2,_RNvMNtNtCsdrmigHwrVIj_22cardano_chain_follower5stats10live_chainNtB2_4Live5reset
FNF:1
FNH:1
DA:57,2
DA:58,2
DA:59,2
DA:60,2
DA:61,2
BRF:0
BRH:0
LF:5
LH:5
end_of_record
SF:/root/build/cardano-chain-follower/src/stats/mithril.rs
FN:68,_RNvMNtNtCsdrmigHwrVIj_22cardano_chain_follower5stats7mithrilNtB2_7Mithril5reset
FNDA:2,_RNvMNtNtCsdrmigHwrVIj_22cardano_chain_follower5stats7mithrilNtB2_7Mithril5reset
FNF:1
FNH:1
DA:68,2
DA:69,2
DA:70,2
DA:71,2
DA:72,2
DA:73,2
DA:74,2
BRF:0
BRH:0
LF:7
LH:7
end_of_record
SF:/root/build/cardano-chain-follower/src/stats/mod.rs
FN:70,_RNvMNtCsdrmigHwrVIj_22cardano_chain_follower5statsNtB2_10Statistics11reset_stats
FN:609,_RNvNtNtCsdrmigHwrVIj_22cardano_chain_follower5stats5testss_15test_live_reset
FN:591,_RNvNtNtCsdrmigHwrVIj_22cardano_chain_follower5stats5testss_18test_mithril_reset
FN:641,_RNvNtNtCsdrmigHwrVIj_22cardano_chain_follower5stats5testss_19test_new_live_block
FN:652,_RNvNtNtCsdrmigHwrVIj_22cardano_chain_follower5stats5testss_23test_mithril_dl_started
FN:633,_RNvNtNtCsdrmigHwrVIj_22cardano_chain_follower5stats5testss_23test_statistics_as_json
FN:623,_RNvNtNtCsdrmigHwrVIj_22cardano_chain_follower5stats5testss_27test_statistics_reset_stats
FN:109,_RNvMNtCsdrmigHwrVIj_22cardano_chain_follower5statsNtB2_10Statistics7as_json
FN:496,_RNvNtCsdrmigHwrVIj_22cardano_chain_follower5stats11stop_thread
FN:40,_RNvNtCsdrmigHwrVIj_22cardano_chain_follower5stats12lookup_stats
FN:477,_RNvNtCsdrmigHwrVIj_22cardano_chain_follower5stats12start_thread
FN:150,_RNvNtCsdrmigHwrVIj_22cardano_chain_follower5stats14new_live_block
FN:296,_RNvNtCsdrmigHwrVIj_22cardano_chain_follower5stats18mithril_dl_started
FN:563,_RNCNvNtCsdrmigHwrVIj_22cardano_chain_follower5stats11thread_stat0B5_
FN:579,_RNCNvNtCsdrmigHwrVIj_22cardano_chain_follower5stats17thread_stat_names0B5_
FN:53,_RNvMNtCsdrmigHwrVIj_22cardano_chain_follower5statsNtB2_10Statistics3new
FN:76,_RNvMNtCsdrmigHwrVIj_22cardano_chain_follower5statsNtB2_10Statistics4tips
FN:89,_RNvMNtCsdrmigHwrVIj_22cardano_chain_follower5statsNtB2_10Statistics5reset
FN:551,_RNvNtCsdrmigHwrVIj_22cardano_chain_follower5stats11thread_stat
FN:281,_RNvNtCsdrmigHwrVIj_22cardano_chain_follower5stats11tip_reached
FN:532,_RNvNtCsdrmigHwrVIj_22cardano_chain_follower5stats12pause_thread
FN:267,_RNvNtCsdrmigHwrVIj_22cardano_chain_follower5stats12sync_started
FN:514,_RNvNtCsdrmigHwrVIj_22cardano_chain_follower5stats13resume_thread
FN:224,_RNvNtCsdrmigHwrVIj_22cardano_chain_follower5stats14backfill_ended
FN:241,_RNvNtCsdrmigHwrVIj_22cardano_chain_follower5stats14peer_connected
FN:204,_RNvNtCsdrmigHwrVIj_22cardano_chain_follower5stats16backfill_started
FN:568,_RNvNtCsdrmigHwrVIj_22cardano_chain_follower5stats17thread_stat_names
FN:171,_RNvNtCsdrmigHwrVIj_22cardano_chain_follower5stats18new_mithril_update
FN:310,_RNvNtCsdrmigHwrVIj_22cardano_chain_follower5stats19mithril_dl_finished
FN:130,_RNvNtCsdrmigHwrVIj_22cardano_chain_follower5stats19stats_invalid_block
FN:431,_RNvNtCsdrmigHwrVIj_22cardano_chain_follower5stats20mithril_sync_failure
FN:188,_RNvNtCsdrmigHwrVIj_22cardano_chain_follower5stats21new_live_total_blocks
FN:338,_RNvNtCsdrmigHwrVIj_22cardano_chain_follower5stats23mithril_extract_started
FN:352,_RNvNtCsdrmigHwrVIj_22cardano_chain_follower5stats24mithril_extract_finished
FN:393,_RNvNtCsdrmigHwrVIj_22cardano_chain_follower5stats24mithril_validation_state
FNDA:1,_RNvMNtCsdrmigHwrVIj_22cardano_chain_follower5statsNtB2_10Statistics11reset_stats
FNDA:1,_RNvNtNtCsdrmigHwrVIj_22cardano_chain_follower5stats5testss_15test_live_reset
FNDA:1,_RNvNtNtCsdrmigHwrVIj_22cardano_chain_follower5stats5testss_18test_mithril_reset
FNDA:1,_RNvNtNtCsdrmigHwrVIj_22cardano_chain_follower5stats5testss_19test_new_live_block
FNDA:1,_RNvNtNtCsdrmigHwrVIj_22cardano_chain_follower5stats5testss_23test_mithril_dl_started
FNDA:1,_RNvNtNtCsdrmigHwrVIj_22cardano_chain_follower5stats5testss_23test_statistics_as_json
FNDA:1,_RNvNtNtCsdrmigHwrVIj_22cardano_chain_follower5stats5testss_27test_statistics_reset_stats
FNDA:1,_RNvMNtCsdrmigHwrVIj_22cardano_chain_follower5statsNtB2_10Statistics7as_json
FNDA:0,_RNvNtCsdrmigHwrVIj_22cardano_chain_follower5stats11stop_thread
FNDA:4,_RNvNtCsdrmigHwrVIj_22cardano_chain_follower5stats12lookup_stats
FNDA:0,_RNvNtCsdrmigHwrVIj_22cardano_chain_follower5stats12start_thread
FNDA:1,_RNvNtCsdrmigHwrVIj_22cardano_chain_follower5stats14new_live_block
FNDA:1,_RNvNtCsdrmigHwrVIj_22cardano_chain_follower5stats18mithril_dl_started
FNDA:0,_RNCNvNtCsdrmigHwrVIj_22cardano_chain_follower5stats11thread_stat0B5_
FNDA:0,_RNCNvNtCsdrmigHwrVIj_22cardano_chain_follower5stats17thread_stat_names0B5_
FNDA:0,_RNvMNtCsdrmigHwrVIj_22cardano_chain_follower5statsNtB2_10Statistics3new
FNDA:0,_RNvMNtCsdrmigHwrVIj_22cardano_chain_follower5statsNtB2_10Statistics4tips
FNDA:0,_RNvMNtCsdrmigHwrVIj_22cardano_chain_follower5statsNtB2_10Statistics5reset
FNDA:0,_RNvNtCsdrmigHwrVIj_22cardano_chain_follower5stats11thread_stat
FNDA:0,_RNvNtCsdrmigHwrVIj_22cardano_chain_follower5stats11tip_reached
FNDA:0,_RNvNtCsdrmigHwrVIj_22cardano_chain_follower5stats12pause_thread
FNDA:0,_RNvNtCsdrmigHwrVIj_22cardano_chain_follower5stats12sync_started
FNDA:0,_RNvNtCsdrmigHwrVIj_22cardano_chain_follower5stats13resume_thread
FNDA:0,_RNvNtCsdrmigHwrVIj_22cardano_chain_follower5stats14backfill_ended
FNDA:0,_RNvNtCsdrmigHwrVIj_22cardano_chain_follower5stats14peer_connected
FNDA:0,_RNvNtCsdrmigHwrVIj_22cardano_chain_follower5stats16backfill_started
FNDA:0,_RNvNtCsdrmigHwrVIj_22cardano_chain_follower5stats17thread_stat_names
FNDA:0,_RNvNtCsdrmigHwrVIj_22cardano_chain_follower5stats18new_mithril_update
FNDA:0,_RNvNtCsdrmigHwrVIj_22cardano_chain_follower5stats19mithril_dl_finished
FNDA:0,_RNvNtCsdrmigHwrVIj_22cardano_chain_follower5stats19stats_invalid_block
FNDA:0,_RNvNtCsdrmigHwrVIj_22cardano_chain_follower5stats20mithril_sync_failure
FNDA:0,_RNvNtCsdrmigHwrVIj_22cardano_chain_follower5stats21new_live_total_blocks
FNDA:0,_RNvNtCsdrmigHwrVIj_22cardano_chain_follower5stats23mithril_extract_started
FNDA:0,_RNvNtCsdrmigHwrVIj_22cardano_chain_follower5stats24mithril_extract_finished
FNDA:0,_RNvNtCsdrmigHwrVIj_22cardano_chain_follower5stats24mithril_validation_state
FNF:35
FNH:11
DA:40,4
DA:41,4
DA:42,2
DA:44,2
DA:45,2
DA:46,2
DA:48,4
DA:53,0
DA:54,0
DA:56,0
DA:57,0
DA:60,0
DA:62,0
DA:63,0
DA:64,0
DA:66,0
DA:67,0
DA:70,1
DA:71,1
DA:72,1
DA:73,1
DA:76,0
DA:77,0
DA:78,0
DA:80,0
DA:81,0
DA:84,0
DA:85,0
DA:89,0
DA:90,0
DA:92,0
DA:93,0
DA:96,0
DA:98,0
DA:100,0
DA:101,0
DA:102,0
DA:104,0
DA:105,0
DA:109,1
DA:110,1
DA:111,1
DA:112,1
DA:113,1
DA:114,1
DA:116,0
DA:118,1
DA:119,1
DA:120,0
DA:121,0
DA:122,0
DA:125,1
DA:130,0
DA:131,0
DA:132,0
DA:133,0
DA:134,0
DA:136,0
DA:138,0
DA:139,0
DA:142,0
DA:143,0
DA:144,0
DA:145,0
DA:146,0
DA:147,0
DA:150,1
DA:151,1
DA:152,1
DA:153,1
DA:154,1
DA:155,1
DA:156,1
DA:158,1
DA:160,0
DA:161,0
DA:164,1
DA:165,1
DA:166,1
DA:167,1
DA:168,1
DA:171,0
DA:172,0
DA:173,0
DA:174,0
DA:175,0
DA:177,0
DA:179,0
DA:180,0
DA:183,0
DA:184,0
DA:185,0
DA:188,0
DA:189,0
DA:190,0
DA:191,0
DA:192,0
DA:194,0
DA:196,0
DA:197,0
DA:200,0
DA:201,0
DA:204,0
DA:205,0
DA:207,0
DA:209,0
DA:210,0
DA:215,0
DA:216,0
DA:217,0
DA:218,0
DA:220,0
DA:221,0
DA:224,0
DA:225,0
DA:226,0
DA:227,0
DA:228,0
DA:230,0
DA:232,0
DA:233,0
DA:236,0
DA:237,0
DA:238,0
DA:241,0
DA:242,0
DA:243,0
DA:244,0
DA:245,0
DA:246,0
DA:248,0
DA:250,0
DA:251,0
DA:254,0
DA:255,0
DA:256,0
DA:257,0
DA:258,0
DA:259,0
DA:260,0
DA:261,0
DA:263,0
DA:264,0
DA:267,0
DA:268,0
DA:270,0
DA:272,0
DA:273,0
DA:276,0
DA:277,0
DA:281,0
DA:282,0
DA:284,0
DA:286,0
DA:287,0
DA:290,0
DA:291,0
DA:292,0
DA:293,0
DA:296,1
DA:297,1
DA:299,1
DA:301,0
DA:302,0
DA:305,1
DA:306,1
DA:310,0
DA:311,0
DA:312,0
DA:313,0
DA:314,0
DA:316,0
DA:318,0
DA:319,0
DA:323,0
DA:324,0
DA:325,0
DA:326,0
DA:327,0
DA:328,0
DA:329,0
DA:330,0
DA:331,0
DA:332,0
DA:333,0
DA:334,0
DA:335,0
DA:338,0
DA:339,0
DA:341,0
DA:343,0
DA:344,0
DA:347,0
DA:348,0
DA:352,0
DA:353,0
DA:354,0
DA:355,0
DA:356,0
DA:357,0
DA:358,0
DA:359,0
DA:360,0
DA:362,0
DA:364,0
DA:365,0
DA:368,0
DA:369,0
DA:370,0
DA:371,0
DA:372,0
DA:373,0
DA:374,0
DA:375,0
DA:376,0
DA:377,0
DA:378,0
DA:379,0
DA:393,0
DA:394,0
DA:395,0
DA:396,0
DA:397,0
DA:399,0
DA:401,0
DA:402,0
DA:405,0
DA:406,0
DA:407,0
DA:408,0
DA:409,0
DA:410,0
DA:411,0
DA:413,0
DA:431,0
DA:432,0
DA:433,0
DA:434,0
DA:435,0
DA:437,0
DA:439,0
DA:440,0
DA:443,0
DA:444,0
DA:445,0
DA:446,0
DA:447,0
DA:448,0
DA:449,0
DA:450,0
DA:451,0
DA:452,0
DA:453,0
DA:454,0
DA:455,0
DA:456,0
DA:457,0
DA:458,0
DA:459,0
DA:460,0
DA:461,0
DA:462,0
DA:463,0
DA:464,0
DA:465,0
DA:466,0
DA:467,0
DA:468,0
DA:469,0
DA:471,0
DA:477,0
DA:478,0
DA:479,0
DA:480,0
DA:481,0
DA:482,0
DA:484,0
DA:486,0
DA:487,0
DA:490,0
DA:491,0
DA:492,0
DA:493,0
DA:496,0
DA:497,0
DA:498,0
DA:499,0
DA:500,0
DA:502,0
DA:504,0
DA:505,0
DA:508,0
DA:509,0
DA:510,0
DA:511,0
DA:514,0
DA:515,0
DA:516,0
DA:517,0
DA:518,0
DA:520,0
DA:522,0
DA:523,0
DA:526,0
DA:527,0
DA:528,0
DA:529,0
DA:532,0
DA:533,0
DA:534,0
DA:535,0
DA:536,0
DA:538,0
DA:540,0
DA:541,0
DA:544,0
DA:545,0
DA:546,0
DA:547,0
DA:551,0
DA:552,0
DA:553,0
DA:554,0
DA:555,0
DA:557,0
DA:559,0
DA:560,0
DA:563,0
DA:564,0
DA:568,0
DA:569,0
DA:571,0
DA:572,0
DA:573,0
DA:576,0
DA:577,0
DA:578,0
DA:579,0
DA:580,0
DA:581,0
DA:591,1
DA:592,1
DA:593,1
DA:594,1
DA:595,1
DA:596,1
DA:597,1
DA:598,1
DA:599,1
DA:600,1
DA:601,1
DA:602,1
DA:603,1
DA:604,1
DA:605,1
DA:606,1
DA:609,1
DA:610,1
DA:611,1
DA:612,1
DA:613,1
DA:614,1
DA:615,1
DA:616,1
DA:617,1
DA:618,1
DA:619,1
DA:620,1
DA:623,1
DA:624,1
DA:625,1
DA:626,1
DA:627,1
DA:628,1
DA:629,1
DA:630,1
DA:633,1
DA:634,1
DA:635,1
DA:636,1
DA:637,1
DA:638,1
DA:641,1
DA:642,1
DA:643,1
DA:644,1
DA:645,1
DA:646,1
DA:647,1
DA:648,1
DA:649,1
DA:652,1
DA:653,1
DA:654,1
DA:655,1
DA:656,1
DA:657,1
DA:658,1
BRF:0
BRH:0
LF:400
LH:96
end_of_record
SF:/root/build/cardano-chain-follower/src/stats/rollback.rs
FN:100,_RNvNtNtCsdrmigHwrVIj_22cardano_chain_follower5stats8rollback15rollbacks_reset
FN:57,_RNvNtNtCsdrmigHwrVIj_22cardano_chain_follower5stats8rollback19lookup_rollback_map
FN:117,_RNvNtNtCsdrmigHwrVIj_22cardano_chain_follower5stats8rollback8rollback
FN:78,_RNvNtNtCsdrmigHwrVIj_22cardano_chain_follower5stats8rollback9rollbacks
FNDA:0,_RNvNtNtCsdrmigHwrVIj_22cardano_chain_follower5stats8rollback15rollbacks_reset
FNDA:0,_RNvNtNtCsdrmigHwrVIj_22cardano_chain_follower5stats8rollback19lookup_rollback_map
FNDA:0,_RNvNtNtCsdrmigHwrVIj_22cardano_chain_follower5stats8rollback8rollback
FNDA:0,_RNvNtNtCsdrmigHwrVIj_22cardano_chain_follower5stats8rollback9rollbacks
FNF:4
FNH:0
DA:57,0
DA:58,0
DA:59,0
DA:60,0
DA:61,0
DA:62,0
DA:63,0
DA:64,0
DA:65,0
DA:66,0
DA:69,0
DA:70,0
DA:71,0
DA:72,0
DA:74,0
DA:75,0
DA:78,0
DA:79,0
DA:80,0
DA:81,0
DA:82,0
DA:84,0
DA:85,0
DA:86,0
DA:89,0
DA:92,0
DA:93,0
DA:94,0
DA:96,0
DA:97,0
DA:100,0
DA:101,0
DA:102,0
DA:103,0
DA:104,0
DA:106,0
DA:107,0
DA:108,0
DA:111,0
DA:113,0
DA:114,0
DA:117,0
DA:118,0
DA:119,0
DA:120,0
DA:121,0
DA:122,0
DA:124,0
DA:125,0
DA:126,0
DA:129,0
DA:130,0
DA:131,0
DA:134,0
DA:136,0
DA:137,0
BRF:0
BRH:0
LF:56
LH:0
end_of_record
SF:/root/build/cardano-chain-follower/src/stats/thread/mod.rs
FN:41,_RINvXNtNtCsdrmigHwrVIj_22cardano_chain_follower5stats6threadNtB3_15InnerThreadStatNtNtCs8fL3q8PO2IZ_10serde_core3ser9Serialize9serializeQINtNtCs16B50h3rd99_10serde_json3ser10SerializerQINtNtCs8Ty2CzGA6U3_5alloc3vec3VechEEEB7_
FN:41,_RINvXNtNtCsdrmigHwrVIj_22cardano_chain_follower5stats6threadNtB3_15InnerThreadStatNtNtCs8fL3q8PO2IZ_10serde_core3ser9Serialize9serializeQINtNtCs16B50h3rd99_10serde_json3ser10SerializerQINtNtCs8Ty2CzGA6U3_5alloc3vec3VechENtB2e_15PrettyFormatterEEB7_
FN:174,_RNCNvMs2_NtNtCsdrmigHwrVIj_22cardano_chain_follower5stats6threadNtB7_10ThreadStat14total_cpu_time0Bb_
FN:183,_RNCNvMs2_NtNtCsdrmigHwrVIj_22cardano_chain_follower5stats6threadNtB7_10ThreadStat15latest_cpu_time0Bb_
FN:122,_RNvMs1_NtNtCsdrmigHwrVIj_22cardano_chain_follower5stats6threadNtB5_15InnerThreadStat17increment_counter
FN:95,_RNvMs1_NtNtCsdrmigHwrVIj_22cardano_chain_follower5stats6threadNtB5_15InnerThreadStat17update_total_time
FN:115,_RNvMs1_NtNtCsdrmigHwrVIj_22cardano_chain_follower5stats6threadNtB5_15InnerThreadStat18update_latest_time
FN:159,_RNvMs2_NtNtCsdrmigHwrVIj_22cardano_chain_follower5stats6threadNtB5_10ThreadStat10is_running
FN:140,_RNvMs2_NtNtCsdrmigHwrVIj_22cardano_chain_follower5stats6threadNtB5_10ThreadStat11stop_thread
FN:153,_RNvMs2_NtNtCsdrmigHwrVIj_22cardano_chain_follower5stats6threadNtB5_10ThreadStat12pause_thread
FN:129,_RNvMs2_NtNtCsdrmigHwrVIj_22cardano_chain_follower5stats6threadNtB5_10ThreadStat12start_thread
FN:147,_RNvMs2_NtNtCsdrmigHwrVIj_22cardano_chain_follower5stats6threadNtB5_10ThreadStat13resume_thread
FN:169,_RNvMs2_NtNtCsdrmigHwrVIj_22cardano_chain_follower5stats6threadNtB5_10ThreadStat14total_cpu_time
FN:178,_RNvMs2_NtNtCsdrmigHwrVIj_22cardano_chain_follower5stats6threadNtB5_10ThreadStat15latest_cpu_time
FN:164,_RNvMs2_NtNtCsdrmigHwrVIj_22cardano_chain_follower5stats6threadNtB5_10ThreadStat7counter
FN:82,_RNvXs0_NtNtCsdrmigHwrVIj_22cardano_chain_follower5stats6threadNtB5_15InnerThreadStatNtNtCs66KPHxksi63_4core7default7Default7default
FN:64,_RNvXs_NtNtCsdrmigHwrVIj_22cardano_chain_follower5stats6threadNtB4_15InnerThreadStatNtNtCs66KPHxksi63_4core3fmt5Debug3fmt
FN:203,_RNvNtNtNtCsdrmigHwrVIj_22cardano_chain_follower5stats6thread5testss_21test_thread_stat_stop
FN:218,_RNvNtNtNtCsdrmigHwrVIj_22cardano_chain_follower5stats6thread5testss_22test_thread_stat_pause
FN:210,_RNvNtNtNtCsdrmigHwrVIj_22cardano_chain_follower5stats6thread5testss_23test_thread_stat_resume
FN:194,_RNvNtNtNtCsdrmigHwrVIj_22cardano_chain_follower5stats6thread5testss_31test_thread_stat_initialization
FN:225,_RNvNtNtNtCsdrmigHwrVIj_22cardano_chain_follower5stats6thread5testss_32test_thread_stat_update_cpu_time
FN:235,_RNvNtNtNtCsdrmigHwrVIj_22cardano_chain_follower5stats6thread5testss_33test_thread_stat_multiple_resumes
FNDA:0,_RINvXNtNtCsdrmigHwrVIj_22cardano_chain_follower5stats6threadNtB3_15InnerThreadStatNtNtCs8fL3q8PO2IZ_10serde_core3ser9Serialize9serializeQINtNtCs16B50h3rd99_10serde_json3ser10SerializerQINtNtCs8Ty2CzGA6U3_5alloc3vec3VechEEEB7_
FNDA:0,_RINvXNtNtCsdrmigHwrVIj_22cardano_chain_follower5stats6threadNtB3_15InnerThreadStatNtNtCs8fL3q8PO2IZ_10serde_core3ser9Serialize9serializeQINtNtCs16B50h3rd99_10serde_json3ser10SerializerQINtNtCs8Ty2CzGA6U3_5alloc3vec3VechENtB2e_15PrettyFormatterEEB7_
FNDA:2,_RNCNvMs2_NtNtCsdrmigHwrVIj_22cardano_chain_follower5stats6threadNtB7_10ThreadStat14total_cpu_time0Bb_
FNDA:1,_RNCNvMs2_NtNtCsdrmigHwrVIj_22cardano_chain_follower5stats6threadNtB7_10ThreadStat15latest_cpu_time0Bb_
FNDA:5,_RNvMs1_NtNtCsdrmigHwrVIj_22cardano_chain_follower5stats6threadNtB5_15InnerThreadStat17increment_counter
FNDA:3,_RNvMs1_NtNtCsdrmigHwrVIj_22cardano_chain_follower5stats6threadNtB5_15InnerThreadStat17update_total_time
FNDA:8,_RNvMs1_NtNtCsdrmigHwrVIj_22cardano_chain_follower5stats6threadNtB5_15InnerThreadStat18update_latest_time
FNDA:4,_RNvMs2_NtNtCsdrmigHwrVIj_22cardano_chain_follower5stats6threadNtB5_10ThreadStat10is_running
FNDA:1,_RNvMs2_NtNtCsdrmigHwrVIj_22cardano_chain_follower5stats6threadNtB5_10ThreadStat11stop_thread
FNDA:2,_RNvMs2_NtNtCsdrmigHwrVIj_22cardano_chain_follower5stats6threadNtB5_10ThreadStat12pause_thread
FNDA:6,_RNvMs2_NtNtCsdrmigHwrVIj_22cardano_chain_follower5stats6threadNtB5_10ThreadStat12start_thread
FNDA:5,_RNvMs2_NtNtCsdrmigHwrVIj_22cardano_chain_follower5stats6threadNtB5_10ThreadStat13resume_thread
FNDA:2,_RNvMs2_NtNtCsdrmigHwrVIj_22cardano_chain_follower5stats6threadNtB5_10ThreadStat14total_cpu_time
FNDA:1,_RNvMs2_NtNtCsdrmigHwrVIj_22cardano_chain_follower5stats6threadNtB5_10ThreadStat15latest_cpu_time
FNDA:3,_RNvMs2_NtNtCsdrmigHwrVIj_22cardano_chain_follower5stats6threadNtB5_10ThreadStat7counter
FNDA:0,_RNvXs0_NtNtCsdrmigHwrVIj_22cardano_chain_follower5stats6threadNtB5_15InnerThreadStatNtNtCs66KPHxksi63_4core7default7Default7default
FNDA:0,_RNvXs_NtNtCsdrmigHwrVIj_22cardano_chain_follower5stats6threadNtB4_15InnerThreadStatNtNtCs66KPHxksi63_4core3fmt5Debug3fmt
FNDA:1,_RNvNtNtNtCsdrmigHwrVIj_22cardano_chain_follower5stats6thread5testss_21test_thread_stat_stop
FNDA:1,_RNvNtNtNtCsdrmigHwrVIj_22cardano_chain_follower5stats6thread5testss_22test_thread_stat_pause
FNDA:1,_RNvNtNtNtCsdrmigHwrVIj_22cardano_chain_follower5stats6thread5testss_23test_thread_stat_resume
FNDA:1,_RNvNtNtNtCsdrmigHwrVIj_22cardano_chain_follower5stats6thread5testss_31test_thread_stat_initialization
FNDA:1,_RNvNtNtNtCsdrmigHwrVIj_22cardano_chain_follower5stats6thread5testss_32test_thread_stat_update_cpu_time
FNDA:1,_RNvNtNtNtCsdrmigHwrVIj_22cardano_chain_follower5stats6thread5testss_33test_thread_stat_multiple_resumes
FNF:22
FNH:19
DA:41,0
DA:42,0
DA:43,0
DA:44,0
DA:45,0
DA:46,0
DA:48,0
DA:50,0
DA:51,0
DA:52,0
DA:53,0
DA:54,0
DA:55,0
DA:56,0
DA:57,0
DA:58,0
DA:59,0
DA:60,0
DA:64,0
DA:65,0
DA:66,0
DA:67,0
DA:68,0
DA:69,0
DA:71,0
DA:72,0
DA:73,0
DA:74,0
DA:75,0
DA:76,0
DA:77,0
DA:78,0
DA:82,0
DA:83,0
DA:84,0
DA:85,0
DA:86,0
DA:87,0
DA:88,0
DA:89,0
DA:90,0
DA:95,3
DA:97,3
DA:99,3
DA:101,3
DA:103,3
DA:104,3
DA:105,3
DA:106,3
DA:107,0
DA:109,0
DA:110,0
DA:111,0
DA:112,3
DA:115,8
DA:116,8
DA:117,8
DA:118,8
DA:119,8
DA:122,5
DA:123,5
DA:124,5
DA:129,6
DA:130,6
DA:131,6
DA:132,6
DA:133,6
DA:134,6
DA:135,6
DA:136,6
DA:137,6
DA:140,1
DA:141,1
DA:142,1
DA:143,1
DA:144,1
DA:147,5
DA:148,5
DA:149,5
DA:150,5
DA:153,2
DA:154,2
DA:155,2
DA:156,2
DA:159,4
DA:160,4
DA:161,4
DA:164,3
DA:165,3
DA:166,3
DA:169,2
DA:170,2
DA:171,2
DA:172,2
DA:173,2
DA:174,2
DA:175,2
DA:178,1
DA:179,1
DA:180,1
DA:181,1
DA:182,1
DA:183,1
DA:184,1
DA:194,1
DA:195,1
DA:196,1
DA:197,1
DA:198,1
DA:199,1
DA:200,1
DA:203,1
DA:204,1
DA:205,1
DA:206,1
DA:207,1
DA:210,1
DA:211,1
DA:212,1
DA:213,1
DA:214,1
DA:215,1
DA:218,1
DA:219,1
DA:220,1
DA:221,1
DA:222,1
DA:225,1
DA:226,1
DA:227,1
DA:228,1
DA:229,1
DA:230,1
DA:231,1
DA:232,1
DA:235,1
DA:236,1
DA:237,1
DA:238,1
DA:239,1
DA:240,1
DA:241,1
BRF:0
BRH:0
LF:144
LH:99
end_of_record
SF:/root/build/cardano-chain-follower/src/turbo_downloader/mod.rs
FN:783,_RNCNCNvNtCsdrmigHwrVIj_22cardano_chain_follower16turbo_downloader24get_content_length_async00B7_
FN:96,_RNCNvMNtCsdrmigHwrVIj_22cardano_chain_follower16turbo_downloaderNtB4_17BalancingResolver7resolve0B6_
FN:112,_RNCNvMNtCsdrmigHwrVIj_22cardano_chain_follower16turbo_downloaderNtB4_17BalancingResolver7resolves_0B6_
FN:323,_RNCNvMs2_NtCsdrmigHwrVIj_22cardano_chain_follower16turbo_downloaderNtB7_30ParallelDownloadProcessorInner11total_bytes0B9_
FN:655,_RNCNvMs3_NtCsdrmigHwrVIj_22cardano_chain_follower16turbo_downloaderNtB7_25ParallelDownloadProcessor10inner_read0B9_
FN:723,_RNCNvMs3_NtCsdrmigHwrVIj_22cardano_chain_follower16turbo_downloaderNtB7_25ParallelDownloadProcessor10inner_reads0_0B9_
FN:724,_RNCNvMs3_NtCsdrmigHwrVIj_22cardano_chain_follower16turbo_downloaderNtB7_25ParallelDownloadProcessor10inner_reads1_0B9_
FN:713,_RNCNvMs3_NtCsdrmigHwrVIj_22cardano_chain_follower16turbo_downloaderNtB7_25ParallelDownloadProcessor10inner_reads_0B9_
FN:480,_RNCNvMs3_NtCsdrmigHwrVIj_22cardano_chain_follower16turbo_downloaderNtB7_25ParallelDownloadProcessor13start_workers0B9_
FN:595,_RNCNvMs3_NtCsdrmigHwrVIj_22cardano_chain_follower16turbo_downloaderNtB7_25ParallelDownloadProcessor15send_work_order0B9_
FN:596,_RNCNvMs3_NtCsdrmigHwrVIj_22cardano_chain_follower16turbo_downloaderNtB7_25ParallelDownloadProcessor15send_work_orders_0B9_
FN:423,_RNCNvMs3_NtCsdrmigHwrVIj_22cardano_chain_follower16turbo_downloaderNtB7_25ParallelDownloadProcessor3new0B9_
FN:238,_RNCNvMs_NtCsdrmigHwrVIj_22cardano_chain_follower16turbo_downloaderNtB6_8DlConfig15make_http_agent0B8_
FN:781,_RNCNvNtCsdrmigHwrVIj_22cardano_chain_follower16turbo_downloader24get_content_length_async0B5_
FN:48,_RNvMNtCsdrmigHwrVIj_22cardano_chain_follower16turbo_downloaderNtB2_17BalancingResolver4init
FN:80,_RNvMNtCsdrmigHwrVIj_22cardano_chain_follower16turbo_downloaderNtB2_17BalancingResolver7resolve
FN:328,_RNvMs2_NtCsdrmigHwrVIj_22cardano_chain_follower16turbo_downloaderNtB5_30ParallelDownloadProcessorInner11chunk_start
FN:320,_RNvMs2_NtCsdrmigHwrVIj_22cardano_chain_follower16turbo_downloaderNtB5_30ParallelDownloadProcessorInner11total_bytes
FN:397,_RNvMs2_NtCsdrmigHwrVIj_22cardano_chain_follower16turbo_downloaderNtB5_30ParallelDownloadProcessorInner13reorder_queue
FN:336,_RNvMs2_NtCsdrmigHwrVIj_22cardano_chain_follower16turbo_downloaderNtB5_30ParallelDownloadProcessorInner9chunk_end
FN:349,_RNvMs2_NtCsdrmigHwrVIj_22cardano_chain_follower16turbo_downloaderNtB5_30ParallelDownloadProcessorInner9get_range
FN:645,_RNvMs3_NtCsdrmigHwrVIj_22cardano_chain_follower16turbo_downloaderNtB5_25ParallelDownloadProcessor10inner_read
FN:469,_RNvMs3_NtCsdrmigHwrVIj_22cardano_chain_follower16turbo_downloaderNtB5_25ParallelDownloadProcessor13start_workers
FN:588,_RNvMs3_NtCsdrmigHwrVIj_22cardano_chain_follower16turbo_downloaderNtB5_25ParallelDownloadProcessor15send_work_order
FN:496,_RNvMs3_NtCsdrmigHwrVIj_22cardano_chain_follower16turbo_downloaderNtB5_25ParallelDownloadProcessor24call_work_queue_receiver
FN:419,_RNvMs3_NtCsdrmigHwrVIj_22cardano_chain_follower16turbo_downloaderNtB5_25ParallelDownloadProcessor3new
FN:509,_RNvMs3_NtCsdrmigHwrVIj_22cardano_chain_follower16turbo_downloaderNtB5_25ParallelDownloadProcessor6worker
FN:739,_RNvMs3_NtCsdrmigHwrVIj_22cardano_chain_follower16turbo_downloaderNtB5_25ParallelDownloadProcessor7cleanup
FN:639,_RNvMs3_NtCsdrmigHwrVIj_22cardano_chain_follower16turbo_downloaderNtB5_25ParallelDownloadProcessor7dl_size
FN:618,_RNvMs3_NtCsdrmigHwrVIj_22cardano_chain_follower16turbo_downloaderNtB5_25ParallelDownloadProcessor8download
FN:159,_RNvMs_NtCsdrmigHwrVIj_22cardano_chain_follower16turbo_downloaderNtB4_8DlConfig12with_workers
FN:224,_RNvMs_NtCsdrmigHwrVIj_22cardano_chain_follower16turbo_downloaderNtB4_8DlConfig15make_http_agent
FN:169,_RNvMs_NtCsdrmigHwrVIj_22cardano_chain_follower16turbo_downloaderNtB4_8DlConfig15with_chunk_size
FN:179,_RNvMs_NtCsdrmigHwrVIj_22cardano_chain_follower16turbo_downloaderNtB4_8DlConfig16with_queue_ahead
FN:199,_RNvMs_NtCsdrmigHwrVIj_22cardano_chain_follower16turbo_downloaderNtB4_8DlConfig22with_data_read_timeout
FN:189,_RNvMs_NtCsdrmigHwrVIj_22cardano_chain_follower16turbo_downloaderNtB4_8DlConfig23with_connection_timeout
FN:153,_RNvMs_NtCsdrmigHwrVIj_22cardano_chain_follower16turbo_downloaderNtB4_8DlConfig3new
FN:208,_RNvMs_NtCsdrmigHwrVIj_22cardano_chain_follower16turbo_downloaderNtB4_8DlConfig7resolve
FN:794,_RNvNtCsdrmigHwrVIj_22cardano_chain_follower16turbo_downloader18get_content_length
FN:781,_RNvNtCsdrmigHwrVIj_22cardano_chain_follower16turbo_downloader24get_content_length_async
FN:245,_RNvXs0_NtCsdrmigHwrVIj_22cardano_chain_follower16turbo_downloaderNtB5_8DlConfigNtNtCs66KPHxksi63_4core7default7Default7default
FN:309,_RNvXs1_NtCsdrmigHwrVIj_22cardano_chain_follower16turbo_downloaderNtB5_30ParallelDownloadProcessorInnerNtNtNtCs66KPHxksi63_4core3ops4drop4Drop4drop
FN:752,_RNvXs4_NtCsdrmigHwrVIj_22cardano_chain_follower16turbo_downloaderNtB5_25ParallelDownloadProcessorNtNtNtCs66KPHxksi63_4core3ops4drop4Drop4drop
FN:759,_RNvXs5_NtCsdrmigHwrVIj_22cardano_chain_follower16turbo_downloaderNtB5_25ParallelDownloadProcessorNtNtCsiKSG5X70Gj7_3std2io4Read4read
FNDA:0,_RNCNCNvNtCsdrmigHwrVIj_22cardano_chain_follower16turbo_downloader24get_content_length_async00B7_
FNDA:0,_RNCNvMNtCsdrmigHwrVIj_22cardano_chain_follower16turbo_downloaderNtB4_17BalancingResolver7resolve0B6_
FNDA:0,_RNCNvMNtCsdrmigHwrVIj_22cardano_chain_follower16turbo_downloaderNtB4_17BalancingResolver7resolves_0B6_
FNDA:0,_RNCNvMs2_NtCsdrmigHwrVIj_22cardano_chain_follower16turbo_downloaderNtB7_30ParallelDownloadProcessorInner11total_bytes0B9_
FNDA:0,_RNCNvMs3_NtCsdrmigHwrVIj_22cardano_chain_follower16turbo_downloaderNtB7_25ParallelDownloadProcessor10inner_read0B9_
FNDA:0,_RNCNvMs3_NtCsdrmigHwrVIj_22cardano_chain_follower16turbo_downloaderNtB7_25ParallelDownloadProcessor10inner_reads0_0B9_
FNDA:0,_RNCNvMs3_NtCsdrmigHwrVIj_22cardano_chain_follower16turbo_downloaderNtB7_25ParallelDownloadProcessor10inner_reads1_0B9_
FNDA:0,_RNCNvMs3_NtCsdrmigHwrVIj_22cardano_chain_follower16turbo_downloaderNtB7_25ParallelDownloadProcessor10inner_reads_0B9_
FNDA:0,_RNCNvMs3_NtCsdrmigHwrVIj_22cardano_chain_follower16turbo_downloaderNtB7_25ParallelDownloadProcessor13start_workers0B9_
FNDA:0,_RNCNvMs3_NtCsdrmigHwrVIj_22cardano_chain_follower16turbo_downloaderNtB7_25ParallelDownloadProcessor15send_work_order0B9_
FNDA:0,_RNCNvMs3_NtCsdrmigHwrVIj_22cardano_chain_follower16turbo_downloaderNtB7_25ParallelDownloadProcessor15send_work_orders_0B9_
FNDA:0,_RNCNvMs3_NtCsdrmigHwrVIj_22cardano_chain_follower16turbo_downloaderNtB7_25ParallelDownloadProcessor3new0B9_
FNDA:0,_RNCNvMs_NtCsdrmigHwrVIj_22cardano_chain_follower16turbo_downloaderNtB6_8DlConfig15make_http_agent0B8_
FNDA:0,_RNCNvNtCsdrmigHwrVIj_22cardano_chain_follower16turbo_downloader24get_content_length_async0B5_
FNDA:0,_RNvMNtCsdrmigHwrVIj_22cardano_chain_follower16turbo_downloaderNtB2_17BalancingResolver4init
FNDA:0,_RNvMNtCsdrmigHwrVIj_22cardano_chain_follower16turbo_downloaderNtB2_17BalancingResolver7resolve
FNDA:0,_RNvMs2_NtCsdrmigHwrVIj_22cardano_chain_follower16turbo_downloaderNtB5_30ParallelDownloadProcessorInner11chunk_start
FNDA:0,_RNvMs2_NtCsdrmigHwrVIj_22cardano_chain_follower16turbo_downloaderNtB5_30ParallelDownloadProcessorInner11total_bytes
FNDA:0,_RNvMs2_NtCsdrmigHwrVIj_22cardano_chain_follower16turbo_downloaderNtB5_30ParallelDownloadProcessorInner13reorder_queue
FNDA:0,_RNvMs2_NtCsdrmigHwrVIj_22cardano_chain_follower16turbo_downloaderNtB5_30ParallelDownloadProcessorInner9chunk_end
FNDA:0,_RNvMs2_NtCsdrmigHwrVIj_22cardano_chain_follower16turbo_downloaderNtB5_30ParallelDownloadProcessorInner9get_range
FNDA:0,_RNvMs3_NtCsdrmigHwrVIj_22cardano_chain_follower16turbo_downloaderNtB5_25ParallelDownloadProcessor10inner_read
FNDA:0,_RNvMs3_NtCsdrmigHwrVIj_22cardano_chain_follower16turbo_downloaderNtB5_25ParallelDownloadProcessor13start_workers
FNDA:0,_RNvMs3_NtCsdrmigHwrVIj_22cardano_chain_follower16turbo_downloaderNtB5_25ParallelDownloadProcessor15send_work_order
FNDA:0,_RNvMs3_NtCsdrmigHwrVIj_22cardano_chain_follower16turbo_downloaderNtB5_25ParallelDownloadProcessor24call_work_queue_receiver
FNDA:0,_RNvMs3_NtCsdrmigHwrVIj_22cardano_chain_follower16turbo_downloaderNtB5_25ParallelDownloadProcessor3new
FNDA:0,_RNvMs3_NtCsdrmigHwrVIj_22cardano_chain_follower16turbo_downloaderNtB5_25ParallelDownloadProcessor6worker
FNDA:0,_RNvMs3_NtCsdrmigHwrVIj_22cardano_chain_follower16turbo_downloaderNtB5_25ParallelDownloadProcessor7cleanup
FNDA:0,_RNvMs3_NtCsdrmigHwrVIj_22cardano_chain_follower16turbo_downloaderNtB5_25ParallelDownloadProcessor7dl_size
FNDA:0,_RNvMs3_NtCsdrmigHwrVIj_22cardano_chain_follower16turbo_downloaderNtB5_25ParallelDownloadProcessor8download
FNDA:0,_RNvMs_NtCsdrmigHwrVIj_22cardano_chain_follower16turbo_downloaderNtB4_8DlConfig12with_workers
FNDA:0,_RNvMs_NtCsdrmigHwrVIj_22cardano_chain_follower16turbo_downloaderNtB4_8DlConfig15make_http_agent
FNDA:0,_RNvMs_NtCsdrmigHwrVIj_22cardano_chain_follower16turbo_downloaderNtB4_8DlConfig15with_chunk_size
FNDA:0,_RNvMs_NtCsdrmigHwrVIj_22cardano_chain_follower16turbo_downloaderNtB4_8DlConfig16with_queue_ahead
FNDA:0,_RNvMs_NtCsdrmigHwrVIj_22cardano_chain_follower16turbo_downloaderNtB4_8DlConfig22with_data_read_timeout
FNDA:0,_RNvMs_NtCsdrmigHwrVIj_22cardano_chain_follower16turbo_downloaderNtB4_8DlConfig23with_connection_timeout
FNDA:0,_RNvMs_NtCsdrmigHwrVIj_22cardano_chain_follower16turbo_downloaderNtB4_8DlConfig3new
FNDA:0,_RNvMs_NtCsdrmigHwrVIj_22cardano_chain_follower16turbo_downloaderNtB4_8DlConfig7resolve
FNDA:0,_RNvNtCsdrmigHwrVIj_22cardano_chain_follower16turbo_downloader18get_content_length
FNDA:0,_RNvNtCsdrmigHwrVIj_22cardano_chain_follower16turbo_downloader24get_content_length_async
FNDA:0,_RNvXs0_NtCsdrmigHwrVIj_22cardano_chain_follower16turbo_downloaderNtB5_8DlConfigNtNtCs66KPHxksi63_4core7default7Default7default
FNDA:0,_RNvXs1_NtCsdrmigHwrVIj_22cardano_chain_follower16turbo_downloaderNtB5_30ParallelDownloadProcessorInnerNtNtNtCs66KPHxksi63_4core3ops4drop4Drop4drop
FNDA:0,_RNvXs4_NtCsdrmigHwrVIj_22cardano_chain_follower16turbo_downloaderNtB5_25ParallelDownloadProcessorNtNtNtCs66KPHxksi63_4core3ops4drop4Drop4drop
FNDA:0,_RNvXs5_NtCsdrmigHwrVIj_22cardano_chain_follower16turbo_downloaderNtB5_25ParallelDownloadProcessorNtNtCsiKSG5X70Gj7_3std2io4Read4read
FNF:44
FNH:0
DA:48,0
DA:50,0
DA:52,0
DA:53,0
DA:54,0
DA:55,0
DA:56,0
DA:57,0
DA:58,0
DA:59,0
DA:63,0
DA:65,0
DA:67,0
DA:69,0
DA:71,0
DA:74,0
DA:75,0
DA:76,0
DA:77,0
DA:80,0
DA:81,0
DA:82,0
DA:83,0
DA:84,0
DA:86,0
DA:87,0
DA:89,0
DA:90,0
DA:91,0
DA:92,0
DA:93,0
DA:96,0
DA:97,0
DA:98,0
DA:101,0
DA:103,0
DA:104,0
DA:105,0
DA:106,0
DA:108,0
DA:109,0
DA:110,0
DA:112,0
DA:113,0
DA:114,0
DA:116,0
DA:118,0
DA:121,0
DA:122,0
DA:153,0
DA:154,0
DA:155,0
DA:159,0
DA:160,0
DA:161,0
DA:162,0
DA:163,0
DA:164,0
DA:165,0
DA:169,0
DA:170,0
DA:171,0
DA:172,0
DA:173,0
DA:174,0
DA:175,0
DA:179,0
DA:180,0
DA:181,0
DA:182,0
DA:183,0
DA:184,0
DA:185,0
DA:189,0
DA:190,0
DA:191,0
DA:192,0
DA:193,0
DA:194,0
DA:195,0
DA:199,0
DA:200,0
DA:201,0
DA:202,0
DA:203,0
DA:204,0
DA:205,0
DA:208,0
DA:209,0
DA:210,0
DA:211,0
DA:212,0
DA:213,0
DA:216,0
DA:217,0
DA:224,0
DA:225,0
DA:226,0
DA:227,0
DA:228,0
DA:230,0
DA:231,0
DA:232,0
DA:234,0
DA:235,0
DA:236,0
DA:238,0
DA:240,0
DA:241,0
DA:245,0
DA:246,0
DA:247,0
DA:248,0
DA:249,0
DA:250,0
DA:251,0
DA:252,0
DA:253,0
DA:309,0
DA:310,0
DA:311,0
DA:312,0
DA:313,0
DA:314,0
DA:315,0
DA:320,0
DA:321,0
DA:322,0
DA:323,0
DA:324,0
DA:325,0
DA:328,0
DA:329,0
DA:330,0
DA:331,0
DA:332,0
DA:333,0
DA:336,0
DA:337,0
DA:338,0
DA:339,0
DA:340,0
DA:341,0
DA:342,0
DA:344,0
DA:346,0
DA:349,0
DA:350,0
DA:351,0
DA:352,0
DA:353,0
DA:354,0
DA:355,0
DA:356,0
DA:357,0
DA:358,0
DA:359,0
DA:360,0
DA:361,0
DA:365,0
DA:366,0
DA:367,0
DA:368,0
DA:369,0
DA:370,0
DA:371,0
DA:372,0
DA:373,0
DA:374,0
DA:377,0
DA:378,0
DA:379,0
DA:380,0
DA:382,0
DA:383,0
DA:384,0
DA:385,0
DA:387,0
DA:388,0
DA:389,0
DA:391,0
DA:392,0
DA:397,0
DA:398,0
DA:399,0
DA:400,0
DA:401,0
DA:402,0
DA:403,0
DA:404,0
DA:419,0
DA:420,0
DA:421,0
DA:422,0
DA:423,0
DA:424,0
DA:425,0
DA:426,0
DA:427,0
DA:431,0
DA:433,0
DA:436,0
DA:437,0
DA:438,0
DA:439,0
DA:441,0
DA:443,0
DA:444,0
DA:445,0
DA:446,0
DA:447,0
DA:448,0
DA:449,0
DA:450,0
DA:451,0
DA:452,0
DA:453,0
DA:454,0
DA:455,0
DA:456,0
DA:457,0
DA:458,0
DA:459,0
DA:460,0
DA:462,0
DA:464,0
DA:465,0
DA:469,0
DA:470,0
DA:471,0
DA:472,0
DA:473,0
DA:477,0
DA:478,0
DA:479,0
DA:480,0
DA:481,0
DA:483,0
DA:484,0
DA:485,0
DA:486,0
DA:488,0
DA:491,0
DA:492,0
DA:496,0
DA:497,0
DA:498,0
DA:499,0
DA:500,0
DA:501,0
DA:502,0
DA:503,0
DA:504,0
DA:505,0
DA:509,0
DA:510,0
DA:511,0
DA:512,0
DA:513,0
DA:514,0
DA:515,0
DA:518,0
DA:524,0
DA:525,0
DA:526,0
DA:527,0
DA:528,0
DA:530,0
DA:533,0
DA:534,0
DA:535,0
DA:536,0
DA:538,0
DA:540,0
DA:541,0
DA:543,0
DA:544,0
DA:545,0
DA:546,0
DA:547,0
DA:548,0
DA:550,0
DA:555,0
DA:556,0
DA:557,0
DA:561,0
DA:562,0
DA:563,0
DA:564,0
DA:565,0
DA:566,0
DA:567,0
DA:568,0
DA:569,0
DA:570,0
DA:572,0
DA:574,0
DA:575,0
DA:576,0
DA:577,0
DA:578,0
DA:579,0
DA:580,0
DA:581,0
DA:584,0
DA:585,0
DA:588,0
DA:589,0
DA:590,0
DA:591,0
DA:592,0
DA:593,0
DA:594,0
DA:595,0
DA:596,0
DA:597,0
DA:599,0
DA:600,0
DA:601,0
DA:603,0
DA:607,0
DA:608,0
DA:609,0
DA:610,0
DA:612,0
DA:613,0
DA:618,0
DA:619,0
DA:621,0
DA:622,0
DA:624,0
DA:627,0
DA:628,0
DA:631,0
DA:632,0
DA:633,0
DA:635,0
DA:636,0
DA:639,0
DA:640,0
DA:641,0
DA:645,0
DA:646,0
DA:647,0
DA:648,0
DA:651,0
DA:652,0
DA:653,0
DA:654,0
DA:655,0
DA:657,0
DA:658,0
DA:659,0
DA:662,0
DA:665,0
DA:666,0
DA:667,0
DA:668,0
DA:669,0
DA:670,0
DA:673,0
DA:674,0
DA:675,0
DA:676,0
DA:679,0
DA:680,0
DA:681,0
DA:682,0
DA:683,0
DA:684,0
DA:685,0
DA:686,0
DA:692,0
DA:696,0
DA:697,0
DA:698,0
DA:699,0
DA:700,0
DA:701,0
DA:704,0
DA:705,0
DA:706,0
DA:707,0
DA:709,0
DA:713,0
DA:714,0
DA:715,0
DA:716,0
DA:719,0
DA:720,0
DA:721,0
DA:722,0
DA:723,0
DA:724,0
DA:725,0
DA:726,0
DA:727,0
DA:728,0
DA:731,0
DA:732,0
DA:733,0
DA:735,0
DA:736,0
DA:739,0
DA:741,0
DA:742,0
DA:743,0
DA:744,0
DA:745,0
DA:746,0
DA:748,0
DA:752,0
DA:753,0
DA:754,0
DA:755,0
DA:759,0
DA:760,0
DA:761,0
DA:762,0
DA:763,0
DA:764,0
DA:766,0
DA:767,0
DA:769,0
DA:772,0
DA:773,0
DA:781,0
DA:782,0
DA:783,0
DA:784,0
DA:785,0
DA:786,0
DA:787,0
DA:790,0
DA:794,0
DA:795,0
DA:797,0
DA:798,0
DA:799,0
DA:800,0
DA:802,0
DA:804,0
DA:805,0
DA:806,0
DA:807,0
DA:809,0
DA:811,0
DA:814,0
DA:815,0
DA:816,0
DA:817,0
DA:818,0
DA:820,0
DA:823,0
DA:824,0
BRF:0
BRH:0
LF:472
LH:0
end_of_record
SF:/root/build/catalyst-signed-doc-macro/src/error.rs
FN:7,_RNvNtCs1Pexmk9Yxxo_25catalyst_signed_doc_macro5error13process_error
FN:7,_RNvNtCs4FZFlJ2CQ4D_25catalyst_signed_doc_macro5error13process_error
FNDA:0,_RNvNtCs1Pexmk9Yxxo_25catalyst_signed_doc_macro5error13process_error
FNDA:0,_RNvNtCs4FZFlJ2CQ4D_25catalyst_signed_doc_macro5error13process_error
FNF:1
FNH:0
DA:7,0
DA:8,0
DA:9,0
DA:10,0
DA:12,0
DA:14,0
BRF:0
BRH:0
LF:6
LH:0
end_of_record
SF:/root/build/catalyst-signed-doc-macro/src/lib.rs
FN:19,_RNvCs1Pexmk9Yxxo_25catalyst_signed_doc_macro38catalyst_signed_documents_types_consts
FN:19,_RNvCs4FZFlJ2CQ4D_25catalyst_signed_doc_macro38catalyst_signed_documents_types_consts
FNDA:0,_RNvCs1Pexmk9Yxxo_25catalyst_signed_doc_macro38catalyst_signed_documents_types_consts
FNDA:2,_RNvCs4FZFlJ2CQ4D_25catalyst_signed_doc_macro38catalyst_signed_documents_types_consts
FNF:1
FNH:1
DA:19,2
DA:20,2
DA:21,2
DA:22,2
DA:23,2
DA:24,2
DA:25,2
BRF:0
BRH:0
LF:7
LH:7
end_of_record
SF:/root/build/catalyst-signed-doc-macro/src/types_consts.rs
FN:8,_RNvNtCs1Pexmk9Yxxo_25catalyst_signed_doc_macro12types_consts43catalyst_signed_documents_types_consts_impl
FN:8,_RNvNtCs4FZFlJ2CQ4D_25catalyst_signed_doc_macro12types_consts43catalyst_signed_documents_types_consts_impl
FNDA:0,_RNvNtCs1Pexmk9Yxxo_25catalyst_signed_doc_macro12types_consts43catalyst_signed_documents_types_consts_impl
FNDA:2,_RNvNtCs4FZFlJ2CQ4D_25catalyst_signed_doc_macro12types_consts43catalyst_signed_documents_types_consts_impl
FNF:1
FNH:1
DA:8,2
DA:9,2
DA:11,2
DA:12,42
DA:13,42
DA:14,4
DA:15,38
DA:16,38
DA:17,38
DA:18,38
DA:20,38
DA:28,38
DA:31,2
DA:34,2
BRF:0
BRH:0
LF:14
LH:14
end_of_record
SF:/root/build/catalyst-signed-doc-spec/src/cddl_definitions.rs
FN:72,_RNCNvMs0_NtCs18Os0U1weI9_24catalyst_signed_doc_spec16cddl_definitionsNtB7_15CddlDefinitions13get_cddl_spec0B9_
FN:39,_RNvMs0_NtCs18Os0U1weI9_24catalyst_signed_doc_spec16cddl_definitionsNtB5_15CddlDefinitions13find_cddl_def
FN:54,_RNvMs0_NtCs18Os0U1weI9_24catalyst_signed_doc_spec16cddl_definitionsNtB5_15CddlDefinitions13get_cddl_spec
FN:30,_RNvMs_NtCs18Os0U1weI9_24catalyst_signed_doc_spec16cddl_definitionsNtB4_7CddlDef13get_cddl_spec
FN:21,_RNvXNtCs18Os0U1weI9_24catalyst_signed_doc_spec16cddl_definitionsNtB2_8CddlTypeNtNtCs66KPHxksi63_4core3fmt7Display3fmt
FNDA:0,_RNCNvMs0_NtCs18Os0U1weI9_24catalyst_signed_doc_spec16cddl_definitionsNtB7_15CddlDefinitions13get_cddl_spec0B9_
FNDA:0,_RNvMs0_NtCs18Os0U1weI9_24catalyst_signed_doc_spec16cddl_definitionsNtB5_15CddlDefinitions13find_cddl_def
FNDA:0,_RNvMs0_NtCs18Os0U1weI9_24catalyst_signed_doc_spec16cddl_definitionsNtB5_15CddlDefinitions13get_cddl_spec
FNDA:0,_RNvMs_NtCs18Os0U1weI9_24catalyst_signed_doc_spec16cddl_definitionsNtB4_7CddlDef13get_cddl_spec
FNDA:0,_RNvXNtCs18Os0U1weI9_24catalyst_signed_doc_spec16cddl_definitionsNtB2_8CddlTypeNtNtCs66KPHxksi63_4core3fmt7Display3fmt
FNF:5
FNH:0
DA:21,0
DA:22,0
DA:23,0
DA:24,0
DA:25,0
DA:26,0
DA:30,0
DA:31,0
DA:32,0
DA:33,0
DA:34,0
DA:35,0
DA:39,0
DA:40,0
DA:41,0
DA:42,0
DA:43,0
DA:44,0
DA:46,0
DA:54,0
DA:55,0
DA:56,0
DA:57,0
DA:58,0
DA:60,0
DA:61,0
DA:63,0
DA:64,0
DA:65,0
DA:66,0
DA:67,0
DA:68,0
DA:69,0
DA:72,0
DA:73,0
DA:74,0
DA:75,0
DA:80,0
DA:81,0
BRF:0
BRH:0
LF:40
LH:0
end_of_record
SF:/root/build/catalyst-signed-doc-spec/src/doc_types.rs
FN:20,_RINvXs_NtCs18Os0U1weI9_24catalyst_signed_doc_spec9doc_typesNtB5_8DocTypesNtNtCs8fL3q8PO2IZ_10serde_core2de11Deserialize11deserializeINtNvNtNtCs9PMm0d1z9ps_5serde7private2de13missing_field24MissingFieldDeserializerNtNtCs16B50h3rd99_10serde_json5error5ErrorEEB7_
FN:20,_RINvXs_NtCs18Os0U1weI9_24catalyst_signed_doc_spec9doc_typesNtB5_8DocTypesNtNtCs8fL3q8PO2IZ_10serde_core2de11Deserialize11deserializeQINtNtCs16B50h3rd99_10serde_json2de12DeserializerNtNtB2c_4read7StrReadEEB7_
FN:13,_RNvXNtCs18Os0U1weI9_24catalyst_signed_doc_spec9doc_typesNtB2_8DocTypesNtNtNtCs66KPHxksi63_4core3ops5deref5Deref5deref
FNDA:57,_RINvXs_NtCs18Os0U1weI9_24catalyst_signed_doc_spec9doc_typesNtB5_8DocTypesNtNtCs8fL3q8PO2IZ_10serde_core2de11Deserialize11deserializeINtNvNtNtCs9PMm0d1z9ps_5serde7private2de13missing_field24MissingFieldDeserializerNtNtCs16B50h3rd99_10serde_json5error5ErrorEEB7_
FNDA:35,_RINvXs_NtCs18Os0U1weI9_24catalyst_signed_doc_spec9doc_typesNtB5_8DocTypesNtNtCs8fL3q8PO2IZ_10serde_core2de11Deserialize11deserializeQINtNtCs16B50h3rd99_10serde_json2de12DeserializerNtNtB2c_4read7StrReadEEB7_
FNDA:0,_RNvXNtCs18Os0U1weI9_24catalyst_signed_doc_spec9doc_typesNtB2_8DocTypesNtNtNtCs66KPHxksi63_4core3ops5deref5Deref5deref
FNF:2
FNH:1
DA:13,0
DA:14,0
DA:15,0
DA:20,92
DA:21,92
DA:28,92
DA:29,92
DA:30,22
DA:31,13
DA:32,57
DA:34,92
DA:35,92
BRF:0
BRH:0
LF:12
LH:8
end_of_record
SF:/root/build/catalyst-signed-doc-spec/src/lib.rs
FN:101,_RNCNvMs1_Cs18Os0U1weI9_24catalyst_signed_doc_specNtB7_21CatalystSignedDocSpec20load_signed_doc_spec0B7_
FN:98,_RNvMs1_Cs18Os0U1weI9_24catalyst_signed_doc_specNtB5_21CatalystSignedDocSpec20load_signed_doc_spec
FN:122,_RNvNtCs18Os0U1weI9_24catalyst_signed_doc_spec5testss_25load_signed_doc_spec_test
FN:61,_RNvMs0_Cs18Os0U1weI9_24catalyst_signed_doc_specNtB5_12DocumentName4name
FN:67,_RNvMs0_Cs18Os0U1weI9_24catalyst_signed_doc_specNtB5_12DocumentName5ident
FN:40,_RNvXCs18Os0U1weI9_24catalyst_signed_doc_specNtB2_8DocSpecsNtNtNtCs66KPHxksi63_4core3ops5deref5Deref5deref
FN:50,_RNvXs_Cs18Os0U1weI9_24catalyst_signed_doc_specNtB4_12DocumentNameNtNtCs66KPHxksi63_4core3fmt7Display3fmt
FNDA:0,_RNCNvMs1_Cs18Os0U1weI9_24catalyst_signed_doc_specNtB7_21CatalystSignedDocSpec20load_signed_doc_spec0B7_
FNDA:1,_RNvMs1_Cs18Os0U1weI9_24catalyst_signed_doc_specNtB5_21CatalystSignedDocSpec20load_signed_doc_spec
FNDA:1,_RNvNtCs18Os0U1weI9_24catalyst_signed_doc_spec5testss_25load_signed_doc_spec_test
FNDA:0,_RNvMs0_Cs18Os0U1weI9_24catalyst_signed_doc_specNtB5_12DocumentName4name
FNDA:0,_RNvMs0_Cs18Os0U1weI9_24catalyst_signed_doc_specNtB5_12DocumentName5ident
FNDA:0,_RNvXCs18Os0U1weI9_24catalyst_signed_doc_specNtB2_8DocSpecsNtNtNtCs66KPHxksi63_4core3ops5deref5Deref5deref
FNDA:0,_RNvXs_Cs18Os0U1weI9_24catalyst_signed_doc_specNtB4_12DocumentNameNtNtCs66KPHxksi63_4core3fmt7Display3fmt
FNF:7
FNH:2
DA:40,0
DA:41,0
DA:42,0
DA:50,0
DA:51,0
DA:52,0
DA:53,0
DA:54,0
DA:55,0
DA:61,0
DA:62,0
DA:63,0
DA:67,0
DA:68,0
DA:69,0
DA:70,0
DA:71,0
DA:72,0
DA:73,0
DA:74,0
DA:76,0
DA:98,1
DA:99,1
DA:100,1
DA:101,1
DA:103,1
DA:104,1
DA:105,1
DA:106,1
DA:107,1
DA:108,1
DA:109,1
DA:110,0
DA:111,1
DA:113,1
DA:114,1
DA:122,1
DA:123,1
DA:124,1
BRF:0
BRH:0
LF:40
LH:17
end_of_record
SF:/root/build/catalyst-signed-doc-spec/src/metadata/parameters.rs
FN:14,_RNvXNtNtCs18Os0U1weI9_24catalyst_signed_doc_spec8metadata10parametersNtB2_10ParametersNtNtNtCs66KPHxksi63_4core3ops5deref5Deref5deref
FNDA:0,_RNvXNtNtCs18Os0U1weI9_24catalyst_signed_doc_spec8metadata10parametersNtB2_10ParametersNtNtNtCs66KPHxksi63_4core3ops5deref5Deref5deref
FNF:1
FNH:0
DA:14,0
DA:15,0
DA:16,0
BRF:0
BRH:0
LF:3
LH:0
end_of_record
SF:/root/build/catalyst-signed-doc-spec/src/metadata/reply.rs
FN:14,_RNvXNtNtCs18Os0U1weI9_24catalyst_signed_doc_spec8metadata5replyNtB2_5ReplyNtNtNtCs66KPHxksi63_4core3ops5deref5Deref5deref
FNDA:0,_RNvXNtNtCs18Os0U1weI9_24catalyst_signed_doc_spec8metadata5replyNtB2_5ReplyNtNtNtCs66KPHxksi63_4core3ops5deref5Deref5deref
FNF:1
FNH:0
DA:14,0
DA:15,0
DA:16,0
BRF:0
BRH:0
LF:3
LH:0
end_of_record
SF:/root/build/catalyst-signed-doc-spec/src/metadata/template.rs
FN:14,_RNvXNtNtCs18Os0U1weI9_24catalyst_signed_doc_spec8metadata8templateNtB2_8TemplateNtNtNtCs66KPHxksi63_4core3ops5deref5Deref5deref
FNDA:0,_RNvXNtNtCs18Os0U1weI9_24catalyst_signed_doc_spec8metadata8templateNtB2_8TemplateNtNtNtCs66KPHxksi63_4core3ops5deref5Deref5deref
FNF:1
FNH:0
DA:14,0
DA:15,0
DA:16,0
BRF:0
BRH:0
LF:3
LH:0
end_of_record
SF:/root/build/catalyst-signed-doc-spec/src/payload.rs
FN:22,_RINvXNtCs18Os0U1weI9_24catalyst_signed_doc_spec7payloadNtB3_6SchemaNtNtCs8fL3q8PO2IZ_10serde_core2de11Deserialize11deserializeQINtNtCs16B50h3rd99_10serde_json2de12DeserializerNtNtB26_4read7StrReadEEB5_
FNDA:5,_RINvXNtCs18Os0U1weI9_24catalyst_signed_doc_spec7payloadNtB3_6SchemaNtNtCs8fL3q8PO2IZ_10serde_core2de11Deserialize11deserializeQINtNtCs16B50h3rd99_10serde_json2de12DeserializerNtNtB26_4read7StrReadEEB5_
FNF:1
FNH:1
DA:22,5
DA:23,5
DA:31,5
DA:32,3
DA:33,3
DA:34,3
DA:35,3
DA:37,2
DA:39,5
BRF:0
BRH:0
LF:9
LH:9
end_of_record
SF:/root/build/catalyst-types/src/catalyst_id/key_rotation.rs
FN:30,_RNvMNtNtCshs1Ee2A4ZzA_14catalyst_types11catalyst_id12key_rotationNtB2_11KeyRotation10is_default
FN:57,_RNvXs_NtNtCshs1Ee2A4ZzA_14catalyst_types11catalyst_id12key_rotationNtB4_11KeyRotationNtNtCs66KPHxksi63_4core7default7Default7default
FN:71,_RNvXs1_NtNtCshs1Ee2A4ZzA_14catalyst_types11catalyst_id12key_rotationNtB5_11KeyRotationNtNtNtCs66KPHxksi63_4core3str6traits7FromStr8from_str
FN:77,_RNvXs2_NtNtCshs1Ee2A4ZzA_14catalyst_types11catalyst_id12key_rotationNtB5_11KeyRotationNtNtCs66KPHxksi63_4core3fmt7Display3fmt
FN:46,_RINvMNtNtCshs1Ee2A4ZzA_14catalyst_types11catalyst_id12key_rotationNtB3_11KeyRotation20from_latest_rotationpEB7_
FN:35,_RINvMNtNtCshs1Ee2A4ZzA_14catalyst_types11catalyst_id12key_rotationNtB3_11KeyRotation7get_keypEB7_
FN:63,_RNvXs0_NtNtCshs1Ee2A4ZzA_14catalyst_types11catalyst_id12key_rotationNtB5_11KeyRotationINtNtCs66KPHxksi63_4core7convert4FromtE4from
FNDA:15,_RNvMNtNtCshs1Ee2A4ZzA_14catalyst_types11catalyst_id12key_rotationNtB2_11KeyRotation10is_default
FNDA:25,_RNvXs_NtNtCshs1Ee2A4ZzA_14catalyst_types11catalyst_id12key_rotationNtB4_11KeyRotationNtNtCs66KPHxksi63_4core7default7Default7default
FNDA:26,_RNvXs1_NtNtCshs1Ee2A4ZzA_14catalyst_types11catalyst_id12key_rotationNtB5_11KeyRotationNtNtNtCs66KPHxksi63_4core3str6traits7FromStr8from_str
FNDA:8,_RNvXs2_NtNtCshs1Ee2A4ZzA_14catalyst_types11catalyst_id12key_rotationNtB5_11KeyRotationNtNtCs66KPHxksi63_4core3fmt7Display3fmt
FNDA:0,_RINvMNtNtCshs1Ee2A4ZzA_14catalyst_types11catalyst_id12key_rotationNtB3_11KeyRotation20from_latest_rotationpEB7_
FNDA:0,_RINvMNtNtCshs1Ee2A4ZzA_14catalyst_types11catalyst_id12key_rotationNtB3_11KeyRotation7get_keypEB7_
FNDA:0,_RNvXs0_NtNtCshs1Ee2A4ZzA_14catalyst_types11catalyst_id12key_rotationNtB5_11KeyRotationINtNtCs66KPHxksi63_4core7convert4FromtE4from
FNF:7
FNH:4
DA:30,15
DA:31,15
DA:32,15
DA:35,0
DA:36,0
DA:37,0
DA:38,0
DA:39,0
DA:40,0
DA:46,0
DA:49,0
DA:50,0
DA:52,0
DA:53,0
DA:57,25
DA:58,25
DA:59,25
DA:63,0
DA:64,0
DA:65,0
DA:71,26
DA:72,26
DA:73,26
DA:77,8
DA:78,8
DA:79,8
DA:80,8
DA:81,8
DA:82,8
BRF:0
BRH:0
LF:29
LH:15
end_of_record
SF:/root/build/catalyst-types/src/catalyst_id/mod.rs
FN:454,_RNCNvMNtCshs1Ee2A4ZzA_14catalyst_types11catalyst_idNtB4_10CatalystId13with_rotation0B6_
FN:320,_RNCNvMNtCshs1Ee2A4ZzA_14catalyst_types11catalyst_idNtB4_10CatalystId13without_nonce0B6_
FN:227,_RNCNvMNtCshs1Ee2A4ZzA_14catalyst_types11catalyst_idNtB4_10CatalystId16without_username0B6_
FN:382,_RNCNvMNtCshs1Ee2A4ZzA_14catalyst_types11catalyst_idNtB4_10CatalystId18without_encryption0B6_
FN:173,_RNCNvMNtCshs1Ee2A4ZzA_14catalyst_types11catalyst_idNtB4_10CatalystId5as_id0B6_
FN:420,_RNCNvMNtCshs1Ee2A4ZzA_14catalyst_types11catalyst_idNtB4_10CatalystId9with_role0B6_
FN:563,_RNvMNtCshs1Ee2A4ZzA_14catalyst_types11catalyst_idNtB2_10CatalystId11as_short_id
FN:586,_RNvMNtCshs1Ee2A4ZzA_14catalyst_types11catalyst_idNtB2_10CatalystId12eq_with_role
FN:450,_RNvMNtCshs1Ee2A4ZzA_14catalyst_types11catalyst_idNtB2_10CatalystId13with_rotation
FN:319,_RNvMNtCshs1Ee2A4ZzA_14catalyst_types11catalyst_idNtB2_10CatalystId13without_nonce
FN:576,_RNvMNtCshs1Ee2A4ZzA_14catalyst_types11catalyst_idNtB2_10CatalystId16eq_with_userinfo
FN:226,_RNvMNtCshs1Ee2A4ZzA_14catalyst_types11catalyst_idNtB2_10CatalystId16without_username
FN:133,_RNvMNtCshs1Ee2A4ZzA_14catalyst_types11catalyst_idNtB2_10CatalystId17role_and_rotation
FN:381,_RNvMNtCshs1Ee2A4ZzA_14catalyst_types11catalyst_idNtB2_10CatalystId18without_encryption
FN:172,_RNvMNtCshs1Ee2A4ZzA_14catalyst_types11catalyst_idNtB2_10CatalystId5as_id
FN:194,_RNvMNtCshs1Ee2A4ZzA_14catalyst_types11catalyst_idNtB2_10CatalystId5is_id
FN:103,_RNvMNtCshs1Ee2A4ZzA_14catalyst_types11catalyst_idNtB2_10CatalystId5nonce
FN:127,_RNvMNtCshs1Ee2A4ZzA_14catalyst_types11catalyst_idNtB2_10CatalystId8role0_pk
FN:97,_RNvMNtCshs1Ee2A4ZzA_14catalyst_types11catalyst_idNtB2_10CatalystId8username
FN:416,_RNvMNtCshs1Ee2A4ZzA_14catalyst_types11catalyst_idNtB2_10CatalystId9with_role
FN:623,_RNvXs2_NtCshs1Ee2A4ZzA_14catalyst_types11catalyst_idNtB5_10CatalystIdNtNtNtCs66KPHxksi63_4core3str6traits7FromStr8from_str
FN:743,_RNvXs3_NtCshs1Ee2A4ZzA_14catalyst_types11catalyst_idNtB5_10CatalystIdNtNtCs66KPHxksi63_4core3fmt7Display3fmt
FN:595,_RNvXs_NtCshs1Ee2A4ZzA_14catalyst_types11catalyst_idNtB4_15CatalystIdInnerNtNtCs66KPHxksi63_4core3cmp9PartialEq2eq
FN:843,_RNCNCNvNtNtCshs1Ee2A4ZzA_14catalyst_types11catalyst_id5testss_25test_catalyst_id_from_strs0_00B9_
FN:842,_RNCNCNvNtNtCshs1Ee2A4ZzA_14catalyst_types11catalyst_id5testss_25test_catalyst_id_from_strs_00B9_
FN:843,_RNCNvNtNtCshs1Ee2A4ZzA_14catalyst_types11catalyst_id5testss_25test_catalyst_id_from_strs0_0B7_
FN:849,_RNCNvNtNtCshs1Ee2A4ZzA_14catalyst_types11catalyst_id5testss_25test_catalyst_id_from_strs1_0B7_
FN:850,_RNCNvNtNtCshs1Ee2A4ZzA_14catalyst_types11catalyst_id5testss_25test_catalyst_id_from_strs2_0B7_
FN:842,_RNCNvNtNtCshs1Ee2A4ZzA_14catalyst_types11catalyst_id5testss_25test_catalyst_id_from_strs_0B7_
FN:115,_RNvMNtCshs1Ee2A4ZzA_14catalyst_types11catalyst_idNtB2_10CatalystId16is_signature_key
FN:121,_RNvMNtCshs1Ee2A4ZzA_14catalyst_types11catalyst_idNtB2_10CatalystId17is_encryption_key
FN:206,_RNvMNtCshs1Ee2A4ZzA_14catalyst_types11catalyst_idNtB2_10CatalystId6is_uri
FN:200,_RNvMNtCshs1Ee2A4ZzA_14catalyst_types11catalyst_idNtB2_10CatalystId8is_admin
FN:905,_RNvNtNtCshs1Ee2A4ZzA_14catalyst_types11catalyst_id5tests20test_all_comparisons
FN:867,_RNvNtNtCshs1Ee2A4ZzA_14catalyst_types11catalyst_id5testss_13test_short_id
FN:878,_RNvNtNtCshs1Ee2A4ZzA_14catalyst_types11catalyst_id5testss_21catalyst_id_type_test
FN:838,_RNvNtNtCshs1Ee2A4ZzA_14catalyst_types11catalyst_id5testss_25test_catalyst_id_from_str
FN:934,_RNvNtNtCshs1Ee2A4ZzA_14catalyst_types11catalyst_id5testss_6gen_pk
FN:608,_RINvXs1_NtCshs1Ee2A4ZzA_14catalyst_types11catalyst_idNtB6_15CatalystIdInnerNtNtCs66KPHxksi63_4core4hash4Hash4hashpEB8_
FN:216,_RNCNvMNtCshs1Ee2A4ZzA_14catalyst_types11catalyst_idNtB4_10CatalystId13with_username0B6_
FN:351,_RNCNvMNtCshs1Ee2A4ZzA_14catalyst_types11catalyst_idNtB4_10CatalystId15with_encryption0B6_
FN:272,_RNCNvMNtCshs1Ee2A4ZzA_14catalyst_types11catalyst_idNtB4_10CatalystId19with_specific_nonce0B6_
FN:162,_RNCNvMNtCshs1Ee2A4ZzA_14catalyst_types11catalyst_idNtB4_10CatalystId6as_uri0B6_
FN:184,_RNCNvMNtCshs1Ee2A4ZzA_14catalyst_types11catalyst_idNtB4_10CatalystId8as_admin0B6_
FN:296,_RNvMNtCshs1Ee2A4ZzA_14catalyst_types11catalyst_idNtB2_10CatalystId10with_nonce
FN:212,_RNvMNtCshs1Ee2A4ZzA_14catalyst_types11catalyst_idNtB2_10CatalystId13with_username
FN:350,_RNvMNtCshs1Ee2A4ZzA_14catalyst_types11catalyst_idNtB2_10CatalystId15with_encryption
FN:505,_RNvMNtCshs1Ee2A4ZzA_14catalyst_types11catalyst_idNtB2_10CatalystId17is_nonce_in_range
FN:257,_RNvMNtCshs1Ee2A4ZzA_14catalyst_types11catalyst_idNtB2_10CatalystId19with_specific_nonce
FN:139,_RNvMNtCshs1Ee2A4ZzA_14catalyst_types11catalyst_idNtB2_10CatalystId3new
FN:161,_RNvMNtCshs1Ee2A4ZzA_14catalyst_types11catalyst_idNtB2_10CatalystId6as_uri
FN:109,_RNvMNtCshs1Ee2A4ZzA_14catalyst_types11catalyst_idNtB2_10CatalystId7network
FN:183,_RNvMNtCshs1Ee2A4ZzA_14catalyst_types11catalyst_idNtB2_10CatalystId8as_admin
FN:798,_RNvXs4_NtCshs1Ee2A4ZzA_14catalyst_types11catalyst_idNtB5_10CatalystIdINtNtCs66KPHxksi63_4core7convert7TryFromRShE8try_from
FN:805,_RNvXs5_NtCshs1Ee2A4ZzA_14catalyst_types11catalyst_idINtNtCs8Ty2CzGA6U3_5alloc3vec3VechEINtNtCs66KPHxksi63_4core7convert4FromRNtB5_10CatalystIdE4from
FNDA:0,_RNCNvMNtCshs1Ee2A4ZzA_14catalyst_types11catalyst_idNtB4_10CatalystId13with_rotation0B6_
FNDA:0,_RNCNvMNtCshs1Ee2A4ZzA_14catalyst_types11catalyst_idNtB4_10CatalystId13without_nonce0B6_
FNDA:0,_RNCNvMNtCshs1Ee2A4ZzA_14catalyst_types11catalyst_idNtB4_10CatalystId16without_username0B6_
FNDA:0,_RNCNvMNtCshs1Ee2A4ZzA_14catalyst_types11catalyst_idNtB4_10CatalystId18without_encryption0B6_
FNDA:0,_RNCNvMNtCshs1Ee2A4ZzA_14catalyst_types11catalyst_idNtB4_10CatalystId5as_id0B6_
FNDA:1,_RNCNvMNtCshs1Ee2A4ZzA_14catalyst_types11catalyst_idNtB4_10CatalystId9with_role0B6_
FNDA:1,_RNvMNtCshs1Ee2A4ZzA_14catalyst_types11catalyst_idNtB2_10CatalystId11as_short_id
FNDA:11,_RNvMNtCshs1Ee2A4ZzA_14catalyst_types11catalyst_idNtB2_10CatalystId12eq_with_role
FNDA:1,_RNvMNtCshs1Ee2A4ZzA_14catalyst_types11catalyst_idNtB2_10CatalystId13with_rotation
FNDA:1,_RNvMNtCshs1Ee2A4ZzA_14catalyst_types11catalyst_idNtB2_10CatalystId13without_nonce
FNDA:22,_RNvMNtCshs1Ee2A4ZzA_14catalyst_types11catalyst_idNtB2_10CatalystId16eq_with_userinfo
FNDA:1,_RNvMNtCshs1Ee2A4ZzA_14catalyst_types11catalyst_idNtB2_10CatalystId16without_username
FNDA:6,_RNvMNtCshs1Ee2A4ZzA_14catalyst_types11catalyst_idNtB2_10CatalystId17role_and_rotation
FNDA:1,_RNvMNtCshs1Ee2A4ZzA_14catalyst_types11catalyst_idNtB2_10CatalystId18without_encryption
FNDA:1,_RNvMNtCshs1Ee2A4ZzA_14catalyst_types11catalyst_idNtB2_10CatalystId5as_id
FNDA:12,_RNvMNtCshs1Ee2A4ZzA_14catalyst_types11catalyst_idNtB2_10CatalystId5is_id
FNDA:42,_RNvMNtCshs1Ee2A4ZzA_14catalyst_types11catalyst_idNtB2_10CatalystId5nonce
FNDA:13,_RNvMNtCshs1Ee2A4ZzA_14catalyst_types11catalyst_idNtB2_10CatalystId8role0_pk
FNDA:45,_RNvMNtCshs1Ee2A4ZzA_14catalyst_types11catalyst_idNtB2_10CatalystId8username
FNDA:1,_RNvMNtCshs1Ee2A4ZzA_14catalyst_types11catalyst_idNtB2_10CatalystId9with_role
FNDA:50,_RNvXs2_NtCshs1Ee2A4ZzA_14catalyst_types11catalyst_idNtB5_10CatalystIdNtNtNtCs66KPHxksi63_4core3str6traits7FromStr8from_str
FNDA:13,_RNvXs3_NtCshs1Ee2A4ZzA_14catalyst_types11catalyst_idNtB5_10CatalystIdNtNtCs66KPHxksi63_4core3fmt7Display3fmt
FNDA:34,_RNvXs_NtCshs1Ee2A4ZzA_14catalyst_types11catalyst_idNtB4_15CatalystIdInnerNtNtCs66KPHxksi63_4core3cmp9PartialEq2eq
FNDA:1,_RNCNCNvNtNtCshs1Ee2A4ZzA_14catalyst_types11catalyst_id5testss_25test_catalyst_id_from_strs0_00B9_
FNDA:2,_RNCNCNvNtNtCshs1Ee2A4ZzA_14catalyst_types11catalyst_id5testss_25test_catalyst_id_from_strs_00B9_
FNDA:11,_RNCNvNtNtCshs1Ee2A4ZzA_14catalyst_types11catalyst_id5testss_25test_catalyst_id_from_strs0_0B7_
FNDA:2,_RNCNvNtNtCshs1Ee2A4ZzA_14catalyst_types11catalyst_id5testss_25test_catalyst_id_from_strs1_0B7_
FNDA:2,_RNCNvNtNtCshs1Ee2A4ZzA_14catalyst_types11catalyst_id5testss_25test_catalyst_id_from_strs2_0B7_
FNDA:3,_RNCNvNtNtCshs1Ee2A4ZzA_14catalyst_types11catalyst_id5testss_25test_catalyst_id_from_strs_0B7_
FNDA:13,_RNvMNtCshs1Ee2A4ZzA_14catalyst_types11catalyst_idNtB2_10CatalystId16is_signature_key
FNDA:13,_RNvMNtCshs1Ee2A4ZzA_14catalyst_types11catalyst_idNtB2_10CatalystId17is_encryption_key
FNDA:4,_RNvMNtCshs1Ee2A4ZzA_14catalyst_types11catalyst_idNtB2_10CatalystId6is_uri
FNDA:4,_RNvMNtCshs1Ee2A4ZzA_14catalyst_types11catalyst_idNtB2_10CatalystId8is_admin
FNDA:11,_RNvNtNtCshs1Ee2A4ZzA_14catalyst_types11catalyst_id5tests20test_all_comparisons
FNDA:1,_RNvNtNtCshs1Ee2A4ZzA_14catalyst_types11catalyst_id5testss_13test_short_id
FNDA:1,_RNvNtNtCshs1Ee2A4ZzA_14catalyst_types11catalyst_id5testss_21catalyst_id_type_test
FNDA:1,_RNvNtNtCshs1Ee2A4ZzA_14catalyst_types11catalyst_id5testss_25test_catalyst_id_from_str
FNDA:0,_RNvNtNtCshs1Ee2A4ZzA_14catalyst_types11catalyst_id5testss_6gen_pk
FNDA:0,_RINvXs1_NtCshs1Ee2A4ZzA_14catalyst_types11catalyst_idNtB6_15CatalystIdInnerNtNtCs66KPHxksi63_4core4hash4Hash4hashpEB8_
FNDA:0,_RNCNvMNtCshs1Ee2A4ZzA_14catalyst_types11catalyst_idNtB4_10CatalystId13with_username0B6_
FNDA:0,_RNCNvMNtCshs1Ee2A4ZzA_14catalyst_types11catalyst_idNtB4_10CatalystId15with_encryption0B6_
FNDA:0,_RNCNvMNtCshs1Ee2A4ZzA_14catalyst_types11catalyst_idNtB4_10CatalystId19with_specific_nonce0B6_
FNDA:0,_RNCNvMNtCshs1Ee2A4ZzA_14catalyst_types11catalyst_idNtB4_10CatalystId6as_uri0B6_
FNDA:0,_RNCNvMNtCshs1Ee2A4ZzA_14catalyst_types11catalyst_idNtB4_10CatalystId8as_admin0B6_
FNDA:0,_RNvMNtCshs1Ee2A4ZzA_14catalyst_types11catalyst_idNtB2_10CatalystId10with_nonce
FNDA:0,_RNvMNtCshs1Ee2A4ZzA_14catalyst_types11catalyst_idNtB2_10CatalystId13with_username
FNDA:0,_RNvMNtCshs1Ee2A4ZzA_14catalyst_types11catalyst_idNtB2_10CatalystId15with_encryption
FNDA:0,_RNvMNtCshs1Ee2A4ZzA_14catalyst_types11catalyst_idNtB2_10CatalystId17is_nonce_in_range
FNDA:0,_RNvMNtCshs1Ee2A4ZzA_14catalyst_types11catalyst_idNtB2_10CatalystId19with_specific_nonce
FNDA:0,_RNvMNtCshs1Ee2A4ZzA_14catalyst_types11catalyst_idNtB2_10CatalystId3new
FNDA:0,_RNvMNtCshs1Ee2A4ZzA_14catalyst_types11catalyst_idNtB2_10CatalystId6as_uri
FNDA:0,_RNvMNtCshs1Ee2A4ZzA_14catalyst_types11catalyst_idNtB2_10CatalystId7network
FNDA:0,_RNvMNtCshs1Ee2A4ZzA_14catalyst_types11catalyst_idNtB2_10CatalystId8as_admin
FNDA:0,_RNvXs4_NtCshs1Ee2A4ZzA_14catalyst_types11catalyst_idNtB5_10CatalystIdINtNtCs66KPHxksi63_4core7convert7TryFromRShE8try_from
FNDA:0,_RNvXs5_NtCshs1Ee2A4ZzA_14catalyst_types11catalyst_idINtNtCs8Ty2CzGA6U3_5alloc3vec3VechEINtNtCs66KPHxksi63_4core7convert4FromRNtB5_10CatalystIdE4from
FNF:55
FNH:32
DA:97,45
DA:98,45
DA:99,45
DA:103,42
DA:104,42
DA:105,42
DA:109,0
DA:110,0
DA:111,0
DA:115,13
DA:116,13
DA:117,13
DA:121,13
DA:122,13
DA:123,13
DA:127,13
DA:128,13
DA:129,13
DA:133,6
DA:134,6
DA:135,6
DA:139,0
DA:140,0
DA:141,0
DA:142,0
DA:143,0
DA:144,0
DA:145,0
DA:146,0
DA:147,0
DA:148,0
DA:149,0
DA:150,0
DA:151,0
DA:152,0
DA:153,0
DA:154,0
DA:156,0
DA:157,0
DA:161,0
DA:162,0
DA:163,0
DA:164,0
DA:165,0
DA:166,0
DA:167,0
DA:168,0
DA:172,1
DA:173,1
DA:174,1
DA:175,1
DA:176,1
DA:177,1
DA:178,1
DA:179,1
DA:183,0
DA:184,0
DA:185,0
DA:186,0
DA:187,0
DA:188,0
DA:189,0
DA:190,0
DA:194,12
DA:195,12
DA:196,12
DA:200,4
DA:201,4
DA:202,4
DA:206,4
DA:207,4
DA:208,4
DA:212,0
DA:213,0
DA:214,0
DA:215,0
DA:216,0
DA:217,0
DA:218,0
DA:219,0
DA:220,0
DA:221,0
DA:222,0
DA:226,1
DA:227,1
DA:228,1
DA:229,1
DA:230,1
DA:231,1
DA:232,1
DA:233,1
DA:257,0
DA:258,0
DA:259,0
DA:260,0
DA:261,0
DA:262,0
DA:264,0
DA:265,0
DA:266,0
DA:268,0
DA:272,0
DA:273,0
DA:274,0
DA:275,0
DA:296,0
DA:297,0
DA:298,0
DA:319,1
DA:320,1
DA:321,1
DA:322,1
DA:323,1
DA:324,1
DA:325,1
DA:326,1
DA:350,0
DA:351,0
DA:352,0
DA:353,0
DA:354,0
DA:355,0
DA:356,0
DA:357,0
DA:381,1
DA:382,1
DA:383,1
DA:384,1
DA:385,1
DA:386,1
DA:387,1
DA:388,1
DA:416,1
DA:417,1
DA:418,1
DA:419,1
DA:420,1
DA:421,1
DA:422,1
DA:423,1
DA:450,1
DA:451,1
DA:452,1
DA:453,1
DA:454,1
DA:455,1
DA:456,1
DA:457,1
DA:505,0
DA:506,0
DA:507,0
DA:508,0
DA:509,0
DA:510,0
DA:511,0
DA:512,0
DA:513,0
DA:515,0
DA:516,0
DA:518,0
DA:522,0
DA:524,0
DA:563,1
DA:564,1
DA:565,1
DA:566,1
DA:567,1
DA:568,1
DA:569,1
DA:570,1
DA:571,1
DA:576,22
DA:577,22
DA:578,22
DA:579,22
DA:580,22
DA:581,22
DA:586,11
DA:587,11
DA:588,11
DA:589,11
DA:590,11
DA:591,11
DA:595,34
DA:596,34
DA:597,34
DA:598,34
DA:599,34
DA:600,31
DA:601,25
DA:602,34
DA:608,0
DA:609,0
DA:610,0
DA:611,0
DA:612,0
DA:613,0
DA:614,0
DA:615,0
DA:623,50
DA:624,50
DA:625,50
DA:626,26
DA:628,26
DA:629,18
DA:630,8
DA:631,8
DA:633,0
DA:635,26
DA:638,24
DA:639,24
DA:640,24
DA:645,50
DA:646,50
DA:647,50
DA:648,50
DA:649,50
DA:650,50
DA:651,14
DA:653,36
DA:657,50
DA:658,50
DA:659,14
DA:660,10
DA:661,10
DA:663,10
DA:664,10
DA:665,10
DA:666,10
DA:667,0
DA:668,10
DA:670,10
DA:672,10
DA:674,4
DA:675,4
DA:678,36
DA:682,50
DA:686,50
DA:687,0
DA:688,50
DA:691,50
DA:692,50
DA:693,50
DA:694,50
DA:695,50
DA:696,50
DA:697,50
DA:700,50
DA:701,50
DA:702,26
DA:703,26
DA:705,24
DA:710,50
DA:711,50
DA:712,26
DA:713,26
DA:715,24
DA:719,50
DA:720,36
DA:721,14
DA:722,0
DA:725,50
DA:726,50
DA:727,50
DA:728,50
DA:729,50
DA:730,50
DA:731,50
DA:732,50
DA:733,50
DA:734,50
DA:735,50
DA:736,50
DA:738,50
DA:739,50
DA:743,13
DA:744,13
DA:745,13
DA:746,13
DA:747,13
DA:748,4
DA:749,4
DA:750,5
DA:753,13
DA:754,13
DA:755,3
DA:756,3
DA:757,10
DA:759,13
DA:760,2
DA:761,2
DA:762,2
DA:763,11
DA:766,13
DA:767,3
DA:768,10
DA:770,13
DA:771,4
DA:772,9
DA:773,13
DA:774,13
DA:775,13
DA:776,13
DA:777,13
DA:778,0
DA:781,13
DA:782,8
DA:783,8
DA:784,8
DA:785,0
DA:786,5
DA:788,13
DA:789,4
DA:790,9
DA:791,13
DA:792,13
DA:798,0
DA:799,0
DA:800,0
DA:801,0
DA:805,0
DA:806,0
DA:807,0
DA:838,1
DA:839,14
DA:840,13
DA:841,13
DA:842,13
DA:843,13
DA:844,13
DA:846,13
DA:847,13
DA:848,13
DA:849,13
DA:850,13
DA:852,13
DA:853,13
DA:855,13
DA:857,13
DA:858,13
DA:859,13
DA:860,13
DA:861,13
DA:863,1
DA:867,1
DA:868,1
DA:869,1
DA:871,1
DA:872,1
DA:874,1
DA:875,1
DA:878,1
DA:879,5
DA:880,5
DA:881,5
DA:883,4
DA:884,4
DA:885,4
DA:887,4
DA:888,4
DA:889,4
DA:891,1
DA:905,11
DA:906,11
DA:907,11
DA:908,11
DA:909,11
DA:910,11
DA:911,11
DA:912,11
DA:913,11
DA:914,11
DA:915,11
DA:916,11
DA:917,11
DA:919,11
DA:920,11
DA:921,11
DA:923,0
DA:925,11
DA:926,11
DA:928,0
DA:930,11
DA:934,0
DA:935,0
DA:936,0
DA:937,0
DA:938,0
DA:939,0
DA:940,0
BRF:0
BRH:0
LF:407
LH:280
end_of_record
SF:/root/build/catalyst-types/src/catalyst_id/role_index.rs
FN:47,_RNvMNtNtCshs1Ee2A4ZzA_14catalyst_types11catalyst_id10role_indexNtB2_6RoleId10is_default
FN:53,_RNvMNtNtCshs1Ee2A4ZzA_14catalyst_types11catalyst_id10role_indexNtB2_6RoleId5as_u8
FN:83,_RNvXs1_NtNtCshs1Ee2A4ZzA_14catalyst_types11catalyst_id10role_indexNtB5_6RoleIdNtNtNtCs66KPHxksi63_4core3str6traits7FromStr8from_str
FN:91,_RNvXs2_NtNtCshs1Ee2A4ZzA_14catalyst_types11catalyst_id10role_indexNtB5_6RoleIdNtNtCs66KPHxksi63_4core3fmt7Display3fmt
FN:100,_RNvXs3_NtNtCshs1Ee2A4ZzA_14catalyst_types11catalyst_id10role_indexNtB5_6RoleIdINtNtCs906yGzbw5oA_8minicbor6decode6DecodeuE6decodeB9_
FN:64,_RNvXs_NtNtCshs1Ee2A4ZzA_14catalyst_types11catalyst_id10role_indexNtB4_6RoleIdINtNtCs66KPHxksi63_4core7convert4FromhE4from
FN:75,_RNvXs0_NtNtCshs1Ee2A4ZzA_14catalyst_types11catalyst_id10role_indexhINtNtCs66KPHxksi63_4core7convert4FromNtB5_6RoleIdE4from
FNDA:13,_RNvMNtNtCshs1Ee2A4ZzA_14catalyst_types11catalyst_id10role_indexNtB2_6RoleId10is_default
FNDA:10,_RNvMNtNtCshs1Ee2A4ZzA_14catalyst_types11catalyst_id10role_indexNtB2_6RoleId5as_u8
FNDA:282,_RNvXs1_NtNtCshs1Ee2A4ZzA_14catalyst_types11catalyst_id10role_indexNtB5_6RoleIdNtNtNtCs66KPHxksi63_4core3str6traits7FromStr8from_str
FNDA:10,_RNvXs2_NtNtCshs1Ee2A4ZzA_14catalyst_types11catalyst_id10role_indexNtB5_6RoleIdNtNtCs66KPHxksi63_4core3fmt7Display3fmt
FNDA:256,_RNvXs3_NtNtCshs1Ee2A4ZzA_14catalyst_types11catalyst_id10role_indexNtB5_6RoleIdINtNtCs906yGzbw5oA_8minicbor6decode6DecodeuE6decodeB9_
FNDA:32,_RNvXs_NtNtCshs1Ee2A4ZzA_14catalyst_types11catalyst_id10role_indexNtB4_6RoleIdINtNtCs66KPHxksi63_4core7convert4FromhE4from
FNDA:0,_RNvXs0_NtNtCshs1Ee2A4ZzA_14catalyst_types11catalyst_id10role_indexhINtNtCs66KPHxksi63_4core7convert4FromNtB5_6RoleIdE4from
FNF:7
FNH:6
DA:47,13
DA:48,13
DA:49,13
DA:53,10
DA:54,10
DA:55,2
DA:56,0
DA:57,0
DA:58,8
DA:60,10
DA:64,32
DA:65,32
DA:66,6
DA:67,0
DA:68,0
DA:69,26
DA:71,32
DA:75,0
DA:76,0
DA:77,0
DA:83,282
DA:84,282
DA:86,28
DA:87,282
DA:91,10
DA:92,10
DA:93,10
DA:94,10
DA:95,10
DA:96,10
DA:100,256
DA:101,256
DA:102,256
DA:103,256
DA:104,256
DA:105,256
BRF:0
BRH:0
LF:36
LH:29
end_of_record
SF:/root/build/catalyst-types/src/cbor_utils.rs
FN:30,_RINvNtCshs1Ee2A4ZzA_14catalyst_types10cbor_utils19report_missing_keyspEB4_
FN:10,_RINvNtCshs1Ee2A4ZzA_14catalyst_types10cbor_utils21report_duplicated_keypEB4_
FNDA:0,_RINvNtCshs1Ee2A4ZzA_14catalyst_types10cbor_utils19report_missing_keyspEB4_
FNDA:0,_RINvNtCshs1Ee2A4ZzA_14catalyst_types10cbor_utils21report_duplicated_keypEB4_
FNF:2
FNH:0
DA:10,0
DA:11,0
DA:12,0
DA:13,0
DA:14,0
DA:15,0
DA:16,0
DA:17,0
DA:18,0
DA:19,0
DA:20,0
DA:21,0
DA:23,0
DA:24,0
DA:25,0
DA:26,0
DA:30,0
DA:31,0
DA:32,0
DA:33,0
DA:34,0
DA:35,0
DA:36,0
DA:37,0
DA:38,0
DA:39,0
DA:41,0
BRF:0
BRH:0
LF:27
LH:0
end_of_record
SF:/root/build/catalyst-types/src/conversion.rs
FN:69,_RNCNvNtCshs1Ee2A4ZzA_14catalyst_types10conversion15vkey_from_bytes0B5_
FN:57,_RNvNtCshs1Ee2A4ZzA_14catalyst_types10conversion15vkey_from_bytes
FN:27,_RINvNtCshs1Ee2A4ZzA_14catalyst_types10conversion15from_saturatingppEB4_
FN:74,_RNvNtCshs1Ee2A4ZzA_14catalyst_types10conversion21zero_out_last_n_bytes
FNDA:0,_RNCNvNtCshs1Ee2A4ZzA_14catalyst_types10conversion15vkey_from_bytes0B5_
FNDA:50,_RNvNtCshs1Ee2A4ZzA_14catalyst_types10conversion15vkey_from_bytes
FNDA:0,_RINvNtCshs1Ee2A4ZzA_14catalyst_types10conversion15from_saturatingppEB4_
FNDA:0,_RNvNtCshs1Ee2A4ZzA_14catalyst_types10conversion21zero_out_last_n_bytes
FNF:4
FNH:1
DA:27,0
DA:28,0
DA:29,0
DA:30,0
DA:31,0
DA:32,0
DA:33,0
DA:34,0
DA:35,0
DA:36,0
DA:37,0
DA:38,0
DA:41,0
DA:43,0
DA:46,0
DA:50,0
DA:57,50
DA:58,50
DA:59,0
DA:60,0
DA:61,0
DA:62,0
DA:63,50
DA:65,50
DA:66,50
DA:68,50
DA:69,50
DA:70,50
DA:74,0
DA:75,0
DA:76,0
DA:77,0
DA:78,0
DA:79,0
DA:80,0
DA:81,0
DA:82,0
DA:83,0
BRF:0
BRH:0
LF:39
LH:8
end_of_record
SF:/root/build/catalyst-types/src/json_schema.rs
FN:41,_RNCNvXs_NtCshs1Ee2A4ZzA_14catalyst_types11json_schemaNtB6_10JsonSchemaINtNtCs66KPHxksi63_4core7convert7TryFromRNtNtCs16B50h3rd99_10serde_json5value5ValueE8try_from0B8_
FN:40,_RNvXs_NtCshs1Ee2A4ZzA_14catalyst_types11json_schemaNtB4_10JsonSchemaINtNtCs66KPHxksi63_4core7convert7TryFromRNtNtCs16B50h3rd99_10serde_json5value5ValueE8try_from
FN:141,_RNvNtNtCshs1Ee2A4ZzA_14catalyst_types11json_schema5testss_19empty_object_schema
FN:81,_RNvNtNtCshs1Ee2A4ZzA_14catalyst_types11json_schema5testss_19valid_draft7_schema
FN:95,_RNvNtNtCshs1Ee2A4ZzA_14catalyst_types11json_schema5testss_25valid_draft2020_12_schema
FN:126,_RNvNtNtCshs1Ee2A4ZzA_14catalyst_types11json_schema5testss_27invalid_schema_should_error
FN:109,_RNvNtNtCshs1Ee2A4ZzA_14catalyst_types11json_schema5testss_36schema_without_draft_should_fallback
FN:32,_RNvXNtCshs1Ee2A4ZzA_14catalyst_types11json_schemaNtB2_10JsonSchemaNtNtNtCs66KPHxksi63_4core3ops5deref5Deref5deref
FNDA:3,_RNCNvXs_NtCshs1Ee2A4ZzA_14catalyst_types11json_schemaNtB6_10JsonSchemaINtNtCs66KPHxksi63_4core7convert7TryFromRNtNtCs16B50h3rd99_10serde_json5value5ValueE8try_from0B8_
FNDA:5,_RNvXs_NtCshs1Ee2A4ZzA_14catalyst_types11json_schemaNtB4_10JsonSchemaINtNtCs66KPHxksi63_4core7convert7TryFromRNtNtCs16B50h3rd99_10serde_json5value5ValueE8try_from
FNDA:1,_RNvNtNtCshs1Ee2A4ZzA_14catalyst_types11json_schema5testss_19empty_object_schema
FNDA:1,_RNvNtNtCshs1Ee2A4ZzA_14catalyst_types11json_schema5testss_19valid_draft7_schema
FNDA:1,_RNvNtNtCshs1Ee2A4ZzA_14catalyst_types11json_schema5testss_25valid_draft2020_12_schema
FNDA:1,_RNvNtNtCshs1Ee2A4ZzA_14catalyst_types11json_schema5testss_27invalid_schema_should_error
FNDA:1,_RNvNtNtCshs1Ee2A4ZzA_14catalyst_types11json_schema5testss_36schema_without_draft_should_fallback
FNDA:0,_RNvXNtCshs1Ee2A4ZzA_14catalyst_types11json_schemaNtB2_10JsonSchemaNtNtNtCs66KPHxksi63_4core3ops5deref5Deref5deref
FNF:8
FNH:7
DA:32,0
DA:33,0
DA:34,0
DA:40,5
DA:41,5
DA:42,3
DA:43,2
DA:44,1
DA:45,1
DA:47,0
DA:50,2
DA:53,5
DA:54,3
DA:56,2
DA:60,2
DA:61,2
DA:62,0
DA:65,0
DA:66,0
DA:67,0
DA:69,0
DA:71,5
DA:81,1
DA:82,1
DA:83,1
DA:84,1
DA:85,1
DA:86,1
DA:90,1
DA:91,1
DA:92,1
DA:95,1
DA:96,1
DA:97,1
DA:98,1
DA:99,1
DA:100,1
DA:104,1
DA:105,1
DA:106,1
DA:109,1
DA:111,1
DA:112,1
DA:113,1
DA:114,1
DA:118,1
DA:119,1
DA:120,1
DA:121,0
DA:123,1
DA:126,1
DA:128,1
DA:129,1
DA:130,1
DA:133,1
DA:134,1
DA:135,1
DA:136,0
DA:138,1
DA:141,1
DA:142,1
DA:144,1
DA:145,1
DA:146,1
BRF:0
BRH:0
LF:65
LH:54
end_of_record
SF:/root/build/catalyst-types/src/mmap_file.rs
FN:22,_RNCNvNtCshs1Ee2A4ZzA_14catalyst_types9mmap_file17MEMMAP_FILE_STATS0B5_
FN:65,_RNvMNtCshs1Ee2A4ZzA_14catalyst_types9mmap_fileNtB2_14MemMapFileStat10drop_count
FN:53,_RNvMNtCshs1Ee2A4ZzA_14catalyst_types9mmap_fileNtB2_14MemMapFileStat10file_count
FN:59,_RNvMNtCshs1Ee2A4ZzA_14catalyst_types9mmap_fileNtB2_14MemMapFileStat10total_size
FN:77,_RNvMNtCshs1Ee2A4ZzA_14catalyst_types9mmap_fileNtB2_14MemMapFileStat11error_count
FN:106,_RNvMNtCshs1Ee2A4ZzA_14catalyst_types9mmap_fileNtB2_14MemMapFileStat15update_err_stat
FN:94,_RNvMNtCshs1Ee2A4ZzA_14catalyst_types9mmap_fileNtB2_14MemMapFileStat16update_drop_stat
FN:82,_RNvMNtCshs1Ee2A4ZzA_14catalyst_types9mmap_fileNtB2_14MemMapFileStat18update_create_stat
FN:42,_RNvMNtCshs1Ee2A4ZzA_14catalyst_types9mmap_fileNtB2_14MemMapFileStat7current
FN:71,_RNvMNtCshs1Ee2A4ZzA_14catalyst_types9mmap_fileNtB2_14MemMapFileStat9drop_size
FN:117,_RNvMs_NtCshs1Ee2A4ZzA_14catalyst_types9mmap_fileNtB4_13MemoryMapFile4size
FN:122,_RNvMs_NtCshs1Ee2A4ZzA_14catalyst_types9mmap_fileNtB4_13MemoryMapFile8as_slice
FN:128,_RNvXs0_NtCshs1Ee2A4ZzA_14catalyst_types9mmap_fileNtB5_13MemoryMapFileNtNtNtCs66KPHxksi63_4core3ops4drop4Drop4drop
FN:136,_RNvXs1_NtCshs1Ee2A4ZzA_14catalyst_types9mmap_fileNtB5_13MemoryMapFileINtNtCs66KPHxksi63_4core7convert7TryFromRNtNtCsiKSG5X70Gj7_3std4path4PathE8try_from
FNDA:0,_RNCNvNtCshs1Ee2A4ZzA_14catalyst_types9mmap_file17MEMMAP_FILE_STATS0B5_
FNDA:0,_RNvMNtCshs1Ee2A4ZzA_14catalyst_types9mmap_fileNtB2_14MemMapFileStat10drop_count
FNDA:0,_RNvMNtCshs1Ee2A4ZzA_14catalyst_types9mmap_fileNtB2_14MemMapFileStat10file_count
FNDA:0,_RNvMNtCshs1Ee2A4ZzA_14catalyst_types9mmap_fileNtB2_14MemMapFileStat10total_size
FNDA:0,_RNvMNtCshs1Ee2A4ZzA_14catalyst_types9mmap_fileNtB2_14MemMapFileStat11error_count
FNDA:0,_RNvMNtCshs1Ee2A4ZzA_14catalyst_types9mmap_fileNtB2_14MemMapFileStat15update_err_stat
FNDA:0,_RNvMNtCshs1Ee2A4ZzA_14catalyst_types9mmap_fileNtB2_14MemMapFileStat16update_drop_stat
FNDA:0,_RNvMNtCshs1Ee2A4ZzA_14catalyst_types9mmap_fileNtB2_14MemMapFileStat18update_create_stat
FNDA:0,_RNvMNtCshs1Ee2A4ZzA_14catalyst_types9mmap_fileNtB2_14MemMapFileStat7current
FNDA:0,_RNvMNtCshs1Ee2A4ZzA_14catalyst_types9mmap_fileNtB2_14MemMapFileStat9drop_size
FNDA:0,_RNvMs_NtCshs1Ee2A4ZzA_14catalyst_types9mmap_fileNtB4_13MemoryMapFile4size
FNDA:0,_RNvMs_NtCshs1Ee2A4ZzA_14catalyst_types9mmap_fileNtB4_13MemoryMapFile8as_slice
FNDA:0,_RNvXs0_NtCshs1Ee2A4ZzA_14catalyst_types9mmap_fileNtB5_13MemoryMapFileNtNtNtCs66KPHxksi63_4core3ops4drop4Drop4drop
FNDA:0,_RNvXs1_NtCshs1Ee2A4ZzA_14catalyst_types9mmap_fileNtB5_13MemoryMapFileINtNtCs66KPHxksi63_4core7convert7TryFromRNtNtCsiKSG5X70Gj7_3std4path4PathE8try_from
FNF:14
FNH:0
DA:22,0
DA:42,0
DA:43,0
DA:44,0
DA:46,0
DA:47,0
DA:49,0
DA:53,0
DA:54,0
DA:55,0
DA:59,0
DA:60,0
DA:61,0
DA:65,0
DA:66,0
DA:67,0
DA:71,0
DA:72,0
DA:73,0
DA:77,0
DA:78,0
DA:79,0
DA:82,0
DA:83,0
DA:84,0
DA:85,0
DA:86,0
DA:87,0
DA:88,0
DA:91,0
DA:94,0
DA:95,0
DA:96,0
DA:97,0
DA:98,0
DA:99,0
DA:100,0
DA:103,0
DA:106,0
DA:107,0
DA:108,0
DA:109,0
DA:110,0
DA:112,0
DA:117,0
DA:118,0
DA:119,0
DA:122,0
DA:123,0
DA:124,0
DA:128,0
DA:129,0
DA:130,0
DA:136,0
DA:138,0
DA:139,0
DA:140,0
DA:141,0
DA:142,0
DA:143,0
DA:145,0
DA:146,0
DA:147,0
DA:150,0
BRF:0
BRH:0
LF:64
LH:0
end_of_record
SF:/root/build/catalyst-types/src/problem_report.rs
FN:158,_RNvMs_NtCshs1Ee2A4ZzA_14catalyst_types14problem_reportNtB4_13ProblemReport14is_problematic
FN:131,_RNvMs_NtCshs1Ee2A4ZzA_14catalyst_types14problem_reportNtB4_13ProblemReport3new
FN:494,_RNvMs_NtCshs1Ee2A4ZzA_14catalyst_types14problem_reportNtB4_13ProblemReport5other
FN:174,_RNvMs_NtCshs1Ee2A4ZzA_14catalyst_types14problem_reportNtB4_13ProblemReport9add_entry
FN:515,_RNvNtNtCshs1Ee2A4ZzA_14catalyst_types14problem_report5testss_18clone_shared_state
FN:85,_RNvMNtCshs1Ee2A4ZzA_14catalyst_types14problem_reportNtB2_5Entry4kind
FN:91,_RNvMNtCshs1Ee2A4ZzA_14catalyst_types14problem_reportNtB2_5Entry7context
FN:288,_RNvMs_NtCshs1Ee2A4ZzA_14catalyst_types14problem_reportNtB4_13ProblemReport13invalid_value
FN:204,_RNvMs_NtCshs1Ee2A4ZzA_14catalyst_types14problem_reportNtB4_13ProblemReport13missing_field
FN:243,_RNvMs_NtCshs1Ee2A4ZzA_14catalyst_types14problem_reportNtB4_13ProblemReport13unknown_field
FN:410,_RNvMs_NtCshs1Ee2A4ZzA_14catalyst_types14problem_reportNtB4_13ProblemReport15duplicate_field
FN:450,_RNvMs_NtCshs1Ee2A4ZzA_14catalyst_types14problem_reportNtB4_13ProblemReport16conversion_error
FN:330,_RNvMs_NtCshs1Ee2A4ZzA_14catalyst_types14problem_reportNtB4_13ProblemReport16invalid_encoding
FN:373,_RNvMs_NtCshs1Ee2A4ZzA_14catalyst_types14problem_reportNtB4_13ProblemReport21functional_validation
FN:169,_RNvMs_NtCshs1Ee2A4ZzA_14catalyst_types14problem_reportNtB4_13ProblemReport7context
FN:163,_RNvMs_NtCshs1Ee2A4ZzA_14catalyst_types14problem_reportNtB4_13ProblemReport7entries
FNDA:3,_RNvMs_NtCshs1Ee2A4ZzA_14catalyst_types14problem_reportNtB4_13ProblemReport14is_problematic
FNDA:1,_RNvMs_NtCshs1Ee2A4ZzA_14catalyst_types14problem_reportNtB4_13ProblemReport3new
FNDA:1,_RNvMs_NtCshs1Ee2A4ZzA_14catalyst_types14problem_reportNtB4_13ProblemReport5other
FNDA:1,_RNvMs_NtCshs1Ee2A4ZzA_14catalyst_types14problem_reportNtB4_13ProblemReport9add_entry
FNDA:1,_RNvNtNtCshs1Ee2A4ZzA_14catalyst_types14problem_report5testss_18clone_shared_state
FNDA:0,_RNvMNtCshs1Ee2A4ZzA_14catalyst_types14problem_reportNtB2_5Entry4kind
FNDA:0,_RNvMNtCshs1Ee2A4ZzA_14catalyst_types14problem_reportNtB2_5Entry7context
FNDA:0,_RNvMs_NtCshs1Ee2A4ZzA_14catalyst_types14problem_reportNtB4_13ProblemReport13invalid_value
FNDA:0,_RNvMs_NtCshs1Ee2A4ZzA_14catalyst_types14problem_reportNtB4_13ProblemReport13missing_field
FNDA:0,_RNvMs_NtCshs1Ee2A4ZzA_14catalyst_types14problem_reportNtB4_13ProblemReport13unknown_field
FNDA:0,_RNvMs_NtCshs1Ee2A4ZzA_14catalyst_types14problem_reportNtB4_13ProblemReport15duplicate_field
FNDA:0,_RNvMs_NtCshs1Ee2A4ZzA_14catalyst_types14problem_reportNtB4_13ProblemReport16conversion_error
FNDA:0,_RNvMs_NtCshs1Ee2A4ZzA_14catalyst_types14problem_reportNtB4_13ProblemReport16invalid_encoding
FNDA:0,_RNvMs_NtCshs1Ee2A4ZzA_14catalyst_types14problem_reportNtB4_13ProblemReport21functional_validation
FNDA:0,_RNvMs_NtCshs1Ee2A4ZzA_14catalyst_types14problem_reportNtB4_13ProblemReport7context
FNDA:0,_RNvMs_NtCshs1Ee2A4ZzA_14catalyst_types14problem_reportNtB4_13ProblemReport7entries
FNF:16
FNH:5
DA:85,0
DA:86,0
DA:87,0
DA:91,0
DA:92,0
DA:93,0
DA:131,1
DA:132,1
DA:133,1
DA:134,1
DA:135,1
DA:136,1
DA:137,1
DA:158,3
DA:159,3
DA:160,3
DA:163,0
DA:164,0
DA:165,0
DA:169,0
DA:170,0
DA:171,0
DA:174,1
DA:175,1
DA:176,1
DA:177,1
DA:178,1
DA:179,1
DA:180,1
DA:181,1
DA:182,1
DA:183,1
DA:204,0
DA:205,0
DA:206,0
DA:207,0
DA:208,0
DA:209,0
DA:210,0
DA:211,0
DA:212,0
DA:213,0
DA:215,0
DA:243,0
DA:244,0
DA:245,0
DA:246,0
DA:247,0
DA:248,0
DA:249,0
DA:250,0
DA:251,0
DA:252,0
DA:253,0
DA:254,0
DA:256,0
DA:288,0
DA:289,0
DA:290,0
DA:291,0
DA:292,0
DA:293,0
DA:294,0
DA:295,0
DA:296,0
DA:297,0
DA:298,0
DA:299,0
DA:300,0
DA:301,0
DA:303,0
DA:330,0
DA:331,0
DA:332,0
DA:333,0
DA:334,0
DA:335,0
DA:336,0
DA:337,0
DA:338,0
DA:339,0
DA:340,0
DA:341,0
DA:342,0
DA:343,0
DA:345,0
DA:373,0
DA:374,0
DA:375,0
DA:376,0
DA:377,0
DA:378,0
DA:379,0
DA:380,0
DA:381,0
DA:382,0
DA:384,0
DA:410,0
DA:411,0
DA:412,0
DA:413,0
DA:414,0
DA:415,0
DA:416,0
DA:417,0
DA:418,0
DA:419,0
DA:420,0
DA:421,0
DA:423,0
DA:450,0
DA:451,0
DA:452,0
DA:453,0
DA:454,0
DA:455,0
DA:456,0
DA:457,0
DA:458,0
DA:459,0
DA:460,0
DA:461,0
DA:462,0
DA:463,0
DA:465,0
DA:494,1
DA:495,1
DA:496,1
DA:497,1
DA:498,1
DA:499,1
DA:500,1
DA:501,1
DA:502,1
DA:503,1
DA:505,1
DA:515,1
DA:516,1
DA:517,1
DA:519,1
DA:520,1
DA:521,1
DA:524,1
DA:525,1
BRF:0
BRH:0
LF:144
LH:39
end_of_record
SF:/root/build/catalyst-types/src/uuid/mod.rs
FN:90,_RNvNtNtCshs1Ee2A4ZzA_14catalyst_types4uuid5testss_27test_cbor_uuid_v4_roundtrip
FN:110,_RNvNtNtCshs1Ee2A4ZzA_14catalyst_types4uuid5testss_27test_cbor_uuid_v7_roundtrip
FN:99,_RNvNtNtCshs1Ee2A4ZzA_14catalyst_types4uuid5testss_34test_cbor_uuid_v4_invalid_decoding
FN:119,_RNvNtNtCshs1Ee2A4ZzA_14catalyst_types4uuid5testss_34test_cbor_uuid_v7_invalid_decoding
FN:130,_RNvNtNtCshs1Ee2A4ZzA_14catalyst_types4uuid5testss_34test_tagged_cbor_uuid_v4_roundtrip
FN:139,_RNvNtNtCshs1Ee2A4ZzA_14catalyst_types4uuid5testss_34test_tagged_cbor_uuid_v7_roundtrip
FN:148,_RNvNtNtCshs1Ee2A4ZzA_14catalyst_types4uuid5testss_36test_optional_cbor_uuid_v4_roundtrip
FN:163,_RNvNtNtCshs1Ee2A4ZzA_14catalyst_types4uuid5testss_36test_optional_cbor_uuid_v7_roundtrip
FN:71,_RINvNtCshs1Ee2A4ZzA_14catalyst_types4uuid16encode_cbor_uuidQINtNtCs8Ty2CzGA6U3_5alloc3vec3VechEEB4_
FN:63,_RNCNvNtCshs1Ee2A4ZzA_14catalyst_types4uuid16decode_cbor_uuid0B5_
FN:41,_RNvNtCshs1Ee2A4ZzA_14catalyst_types4uuid16decode_cbor_uuid
FN:31,_RNvNtCshs1Ee2A4ZzA_14catalyst_types4uuid17validate_uuid_tag
FNDA:1,_RNvNtNtCshs1Ee2A4ZzA_14catalyst_types4uuid5testss_27test_cbor_uuid_v4_roundtrip
FNDA:1,_RNvNtNtCshs1Ee2A4ZzA_14catalyst_types4uuid5testss_27test_cbor_uuid_v7_roundtrip
FNDA:1,_RNvNtNtCshs1Ee2A4ZzA_14catalyst_types4uuid5testss_34test_cbor_uuid_v4_invalid_decoding
FNDA:1,_RNvNtNtCshs1Ee2A4ZzA_14catalyst_types4uuid5testss_34test_cbor_uuid_v7_invalid_decoding
FNDA:1,_RNvNtNtCshs1Ee2A4ZzA_14catalyst_types4uuid5testss_34test_tagged_cbor_uuid_v4_roundtrip
FNDA:1,_RNvNtNtCshs1Ee2A4ZzA_14catalyst_types4uuid5testss_34test_tagged_cbor_uuid_v7_roundtrip
FNDA:1,_RNvNtNtCshs1Ee2A4ZzA_14catalyst_types4uuid5testss_36test_optional_cbor_uuid_v4_roundtrip
FNDA:1,_RNvNtNtCshs1Ee2A4ZzA_14catalyst_types4uuid5testss_36test_optional_cbor_uuid_v7_roundtrip
FNDA:10,_RINvNtCshs1Ee2A4ZzA_14catalyst_types4uuid16encode_cbor_uuidQINtNtCs8Ty2CzGA6U3_5alloc3vec3VechEEB4_
FNDA:0,_RNCNvNtCshs1Ee2A4ZzA_14catalyst_types4uuid16decode_cbor_uuid0B5_
FNDA:10,_RNvNtCshs1Ee2A4ZzA_14catalyst_types4uuid16decode_cbor_uuid
FNDA:4,_RNvNtCshs1Ee2A4ZzA_14catalyst_types4uuid17validate_uuid_tag
FNF:12
FNH:11
DA:31,4
DA:32,4
DA:33,0
DA:34,0
DA:35,0
DA:36,4
DA:37,4
DA:38,4
DA:41,10
DA:42,10
DA:43,10
DA:44,10
DA:45,10
DA:46,4
DA:48,2
DA:49,2
DA:50,2
DA:53,4
DA:54,4
DA:55,2
DA:56,2
DA:58,2
DA:59,2
DA:63,10
DA:64,0
DA:65,0
DA:66,10
DA:67,10
DA:68,10
DA:71,10
DA:72,10
DA:73,10
DA:74,10
DA:75,10
DA:76,10
DA:77,4
DA:78,6
DA:79,10
DA:80,10
DA:81,10
DA:90,1
DA:91,1
DA:92,1
DA:93,1
DA:94,1
DA:95,1
DA:96,1
DA:99,1
DA:100,1
DA:101,1
DA:102,1
DA:103,1
DA:104,1
DA:105,1
DA:107,1
DA:110,1
DA:111,1
DA:112,1
DA:113,1
DA:114,1
DA:115,1
DA:116,1
DA:119,1
DA:120,1
DA:121,1
DA:122,1
DA:123,1
DA:124,1
DA:125,1
DA:127,1
DA:130,1
DA:131,1
DA:132,1
DA:133,1
DA:134,1
DA:135,1
DA:136,1
DA:139,1
DA:140,1
DA:141,1
DA:142,1
DA:143,1
DA:144,1
DA:145,1
DA:148,1
DA:149,1
DA:151,1
DA:152,1
DA:153,1
DA:154,1
DA:156,1
DA:157,1
DA:158,1
DA:159,1
DA:160,1
DA:163,1
DA:164,1
DA:166,1
DA:167,1
DA:168,1
DA:169,1
DA:171,1
DA:172,1
DA:173,1
DA:174,1
DA:175,1
BRF:0
BRH:0
LF:108
LH:101
end_of_record
SF:/root/build/catalyst-types/src/uuid/uuid_v4.rs
FN:76,_RINvXs1_NtNtCshs1Ee2A4ZzA_14catalyst_types4uuid7uuid_v4NtB6_6UuidV4INtNtCs906yGzbw5oA_8minicbor6encode6EncodeNtB8_11CborContextE6encodeQINtNtCs8Ty2CzGA6U3_5alloc3vec3VechEEBa_
FN:28,_RNvMNtNtCshs1Ee2A4ZzA_14catalyst_types4uuid7uuid_v4NtB2_6UuidV43new
FN:34,_RNvMNtNtCshs1Ee2A4ZzA_14catalyst_types4uuid7uuid_v4NtB2_6UuidV44uuid
FN:66,_RNvXs0_NtNtCshs1Ee2A4ZzA_14catalyst_types4uuid7uuid_v4NtB5_6UuidV4INtNtCs906yGzbw5oA_8minicbor6decode6DecodeNtB7_11CborContextE6decode
FN:147,_RNvNtNtNtCshs1Ee2A4ZzA_14catalyst_types4uuid7uuid_v45testss_15test_valid_uuid
FN:137,_RNvNtNtNtCshs1Ee2A4ZzA_14catalyst_types4uuid7uuid_v45testss_17test_invalid_uuid
FN:89,_RNvXs2_NtNtCshs1Ee2A4ZzA_14catalyst_types4uuid7uuid_v4NtB5_6UuidV4INtNtCs66KPHxksi63_4core7convert7TryFromNtCskuWMutJd3PG_4uuid4UuidE8try_from
FN:42,_RNvMNtNtCshs1Ee2A4ZzA_14catalyst_types4uuid7uuid_v4NtB2_6UuidV413try_from_uuid
FN:52,_RNvNtNtCshs1Ee2A4ZzA_14catalyst_types4uuid7uuid_v48is_valid
FN:104,_RINvXs4_NtNtCshs1Ee2A4ZzA_14catalyst_types4uuid7uuid_v4NtB6_6UuidV4NtNtCs8fL3q8PO2IZ_10serde_core2de11Deserialize11deserializepEBa_
FN:126,_RNCNvXs5_NtNtCshs1Ee2A4ZzA_14catalyst_types4uuid7uuid_v4NtB7_6UuidV4NtNtNtCs66KPHxksi63_4core3str6traits7FromStr8from_str0Bb_
FN:98,_RNvXs3_NtNtCshs1Ee2A4ZzA_14catalyst_types4uuid7uuid_v4NtCskuWMutJd3PG_4uuid4UuidINtNtCs66KPHxksi63_4core7convert4FromNtB5_6UuidV4E4from
FN:125,_RNvXs5_NtNtCshs1Ee2A4ZzA_14catalyst_types4uuid7uuid_v4NtB5_6UuidV4NtNtNtCs66KPHxksi63_4core3str6traits7FromStr8from_str
FN:57,_RNvXs_NtNtCshs1Ee2A4ZzA_14catalyst_types4uuid7uuid_v4NtB4_6UuidV4NtNtCs66KPHxksi63_4core3fmt7Display3fmt
FNDA:5,_RINvXs1_NtNtCshs1Ee2A4ZzA_14catalyst_types4uuid7uuid_v4NtB6_6UuidV4INtNtCs906yGzbw5oA_8minicbor6encode6EncodeNtB8_11CborContextE6encodeQINtNtCs8Ty2CzGA6U3_5alloc3vec3VechEEBa_
FNDA:4,_RNvMNtNtCshs1Ee2A4ZzA_14catalyst_types4uuid7uuid_v4NtB2_6UuidV43new
FNDA:5,_RNvMNtNtCshs1Ee2A4ZzA_14catalyst_types4uuid7uuid_v4NtB2_6UuidV44uuid
FNDA:5,_RNvXs0_NtNtCshs1Ee2A4ZzA_14catalyst_types4uuid7uuid_v4NtB5_6UuidV4INtNtCs906yGzbw5oA_8minicbor6decode6DecodeNtB7_11CborContextE6decode
FNDA:1,_RNvNtNtNtCshs1Ee2A4ZzA_14catalyst_types4uuid7uuid_v45testss_15test_valid_uuid
FNDA:1,_RNvNtNtNtCshs1Ee2A4ZzA_14catalyst_types4uuid7uuid_v45testss_17test_invalid_uuid
FNDA:3,_RNvXs2_NtNtCshs1Ee2A4ZzA_14catalyst_types4uuid7uuid_v4NtB5_6UuidV4INtNtCs66KPHxksi63_4core7convert7TryFromNtCskuWMutJd3PG_4uuid4UuidE8try_from
FNDA:8,_RNvMNtNtCshs1Ee2A4ZzA_14catalyst_types4uuid7uuid_v4NtB2_6UuidV413try_from_uuid
FNDA:8,_RNvNtNtCshs1Ee2A4ZzA_14catalyst_types4uuid7uuid_v48is_valid
FNDA:0,_RINvXs4_NtNtCshs1Ee2A4ZzA_14catalyst_types4uuid7uuid_v4NtB6_6UuidV4NtNtCs8fL3q8PO2IZ_10serde_core2de11Deserialize11deserializepEBa_
FNDA:0,_RNCNvXs5_NtNtCshs1Ee2A4ZzA_14catalyst_types4uuid7uuid_v4NtB7_6UuidV4NtNtNtCs66KPHxksi63_4core3str6traits7FromStr8from_str0Bb_
FNDA:0,_RNvXs3_NtNtCshs1Ee2A4ZzA_14catalyst_types4uuid7uuid_v4NtCskuWMutJd3PG_4uuid4UuidINtNtCs66KPHxksi63_4core7convert4FromNtB5_6UuidV4E4from
FNDA:0,_RNvXs5_NtNtCshs1Ee2A4ZzA_14catalyst_types4uuid7uuid_v4NtB5_6UuidV4NtNtNtCs66KPHxksi63_4core3str6traits7FromStr8from_str
FNDA:0,_RNvXs_NtNtCshs1Ee2A4ZzA_14catalyst_types4uuid7uuid_v4NtB4_6UuidV4NtNtCs66KPHxksi63_4core3fmt7Display3fmt
FNF:14
FNH:9
DA:28,4
DA:29,4
DA:30,4
DA:34,5
DA:35,5
DA:36,5
DA:42,8
DA:43,8
DA:44,5
DA:46,3
DA:48,8
DA:52,8
DA:53,8
DA:54,8
DA:57,0
DA:58,0
DA:59,0
DA:60,0
DA:61,0
DA:62,0
DA:66,5
DA:67,5
DA:68,5
DA:69,5
DA:70,5
DA:71,5
DA:72,5
DA:76,5
DA:77,5
DA:78,5
DA:79,5
DA:80,5
DA:81,5
DA:82,5
DA:89,3
DA:90,3
DA:91,3
DA:98,0
DA:99,0
DA:100,0
DA:104,0
DA:105,0
DA:106,0
DA:107,0
DA:108,0
DA:125,0
DA:126,0
DA:127,0
DA:128,0
DA:137,1
DA:138,1
DA:140,1
DA:141,1
DA:142,0
DA:144,1
DA:147,1
DA:148,1
DA:149,1
BRF:0
BRH:0
LF:59
LH:39
end_of_record
SF:/root/build/catalyst-types/src/uuid/uuid_v7.rs
FN:149,_RNvNtNtNtCshs1Ee2A4ZzA_14catalyst_types4uuid7uuid_v75testss_15test_valid_uuid
FN:139,_RNvNtNtNtCshs1Ee2A4ZzA_14catalyst_types4uuid7uuid_v75testss_17test_invalid_uuid
FN:89,_RNvXs2_NtNtCshs1Ee2A4ZzA_14catalyst_types4uuid7uuid_v7NtB5_6UuidV7INtNtCs66KPHxksi63_4core7convert7TryFromNtCskuWMutJd3PG_4uuid4UuidE8try_from
FN:76,_RINvXs1_NtNtCshs1Ee2A4ZzA_14catalyst_types4uuid7uuid_v7NtB6_6UuidV7INtNtCs906yGzbw5oA_8minicbor6encode6EncodeNtB8_11CborContextE6encodeQINtNtCs8Ty2CzGA6U3_5alloc3vec3VechEEBa_
FN:28,_RNvMNtNtCshs1Ee2A4ZzA_14catalyst_types4uuid7uuid_v7NtB2_6UuidV73new
FN:34,_RNvMNtNtCshs1Ee2A4ZzA_14catalyst_types4uuid7uuid_v7NtB2_6UuidV74uuid
FN:66,_RNvXs0_NtNtCshs1Ee2A4ZzA_14catalyst_types4uuid7uuid_v7NtB5_6UuidV7INtNtCs906yGzbw5oA_8minicbor6decode6DecodeNtB7_11CborContextE6decode
FN:104,_RINvXs4_NtNtCshs1Ee2A4ZzA_14catalyst_types4uuid7uuid_v7NtB6_6UuidV7NtNtCs8fL3q8PO2IZ_10serde_core2de11Deserialize11deserializepEBa_
FN:126,_RNCNvXs5_NtNtCshs1Ee2A4ZzA_14catalyst_types4uuid7uuid_v7NtB7_6UuidV7NtNtNtCs66KPHxksi63_4core3str6traits7FromStr8from_str0Bb_
FN:98,_RNvXs3_NtNtCshs1Ee2A4ZzA_14catalyst_types4uuid7uuid_v7NtCskuWMutJd3PG_4uuid4UuidINtNtCs66KPHxksi63_4core7convert4FromNtB5_6UuidV7E4from
FN:125,_RNvXs5_NtNtCshs1Ee2A4ZzA_14catalyst_types4uuid7uuid_v7NtB5_6UuidV7NtNtNtCs66KPHxksi63_4core3str6traits7FromStr8from_str
FN:57,_RNvXs_NtNtCshs1Ee2A4ZzA_14catalyst_types4uuid7uuid_v7NtB4_6UuidV7NtNtCs66KPHxksi63_4core3fmt7Display3fmt
FN:42,_RNvMNtNtCshs1Ee2A4ZzA_14catalyst_types4uuid7uuid_v7NtB2_6UuidV713try_from_uuid
FN:52,_RNvNtNtCshs1Ee2A4ZzA_14catalyst_types4uuid7uuid_v78is_valid
FNDA:1,_RNvNtNtNtCshs1Ee2A4ZzA_14catalyst_types4uuid7uuid_v75testss_15test_valid_uuid
FNDA:1,_RNvNtNtNtCshs1Ee2A4ZzA_14catalyst_types4uuid7uuid_v75testss_17test_invalid_uuid
FNDA:3,_RNvXs2_NtNtCshs1Ee2A4ZzA_14catalyst_types4uuid7uuid_v7NtB5_6UuidV7INtNtCs66KPHxksi63_4core7convert7TryFromNtCskuWMutJd3PG_4uuid4UuidE8try_from
FNDA:5,_RINvXs1_NtNtCshs1Ee2A4ZzA_14catalyst_types4uuid7uuid_v7NtB6_6UuidV7INtNtCs906yGzbw5oA_8minicbor6encode6EncodeNtB8_11CborContextE6encodeQINtNtCs8Ty2CzGA6U3_5alloc3vec3VechEEBa_
FNDA:4,_RNvMNtNtCshs1Ee2A4ZzA_14catalyst_types4uuid7uuid_v7NtB2_6UuidV73new
FNDA:5,_RNvMNtNtCshs1Ee2A4ZzA_14catalyst_types4uuid7uuid_v7NtB2_6UuidV74uuid
FNDA:5,_RNvXs0_NtNtCshs1Ee2A4ZzA_14catalyst_types4uuid7uuid_v7NtB5_6UuidV7INtNtCs906yGzbw5oA_8minicbor6decode6DecodeNtB7_11CborContextE6decode
FNDA:0,_RINvXs4_NtNtCshs1Ee2A4ZzA_14catalyst_types4uuid7uuid_v7NtB6_6UuidV7NtNtCs8fL3q8PO2IZ_10serde_core2de11Deserialize11deserializepEBa_
FNDA:0,_RNCNvXs5_NtNtCshs1Ee2A4ZzA_14catalyst_types4uuid7uuid_v7NtB7_6UuidV7NtNtNtCs66KPHxksi63_4core3str6traits7FromStr8from_str0Bb_
FNDA:0,_RNvXs3_NtNtCshs1Ee2A4ZzA_14catalyst_types4uuid7uuid_v7NtCskuWMutJd3PG_4uuid4UuidINtNtCs66KPHxksi63_4core7convert4FromNtB5_6UuidV7E4from
FNDA:0,_RNvXs5_NtNtCshs1Ee2A4ZzA_14catalyst_types4uuid7uuid_v7NtB5_6UuidV7NtNtNtCs66KPHxksi63_4core3str6traits7FromStr8from_str
FNDA:0,_RNvXs_NtNtCshs1Ee2A4ZzA_14catalyst_types4uuid7uuid_v7NtB4_6UuidV7NtNtCs66KPHxksi63_4core3fmt7Display3fmt
FNDA:8,_RNvMNtNtCshs1Ee2A4ZzA_14catalyst_types4uuid7uuid_v7NtB2_6UuidV713try_from_uuid
FNDA:8,_RNvNtNtCshs1Ee2A4ZzA_14catalyst_types4uuid7uuid_v78is_valid
FNF:14
FNH:9
DA:28,4
DA:29,4
DA:30,4
DA:34,5
DA:35,5
DA:36,5
DA:42,8
DA:43,8
DA:44,5
DA:46,3
DA:48,8
DA:52,8
DA:53,8
DA:54,8
DA:57,0
DA:58,0
DA:59,0
DA:60,0
DA:61,0
DA:62,0
DA:66,5
DA:67,5
DA:68,5
DA:69,5
DA:70,5
DA:71,5
DA:72,5
DA:76,5
DA:77,5
DA:78,5
DA:79,5
DA:80,5
DA:81,5
DA:82,5
DA:89,3
DA:90,3
DA:91,3
DA:98,0
DA:99,0
DA:100,0
DA:104,0
DA:105,0
DA:106,0
DA:107,0
DA:108,0
DA:125,0
DA:126,0
DA:127,0
DA:128,0
DA:139,1
DA:140,1
DA:142,1
DA:143,1
DA:144,0
DA:146,1
DA:149,1
DA:150,1
DA:151,1
BRF:0
BRH:0
LF:59
LH:39
end_of_record
SF:/root/build/catalyst-voting/src/crypto/babystep_giantstep.rs
FN:83,_RNvMNtNtCsfjV1l1xxmjd_15catalyst_voting6crypto18babystep_giantstepNtB2_17BabyStepGiantStep12discrete_log
FN:43,_RNvMNtNtCsfjV1l1xxmjd_15catalyst_voting6crypto18babystep_giantstepNtB2_17BabyStepGiantStep3new
FN:83,_RNvMNtNtCs81fg4i8wncb_15catalyst_voting6crypto18babystep_giantstepNtB2_17BabyStepGiantStep12discrete_log
FN:43,_RNvMNtNtCs81fg4i8wncb_15catalyst_voting6crypto18babystep_giantstepNtB2_17BabyStepGiantStep3new
FNDA:256,_RNvMNtNtCsfjV1l1xxmjd_15catalyst_voting6crypto18babystep_giantstepNtB2_17BabyStepGiantStep12discrete_log
FNDA:256,_RNvMNtNtCsfjV1l1xxmjd_15catalyst_voting6crypto18babystep_giantstepNtB2_17BabyStepGiantStep3new
FNDA:182,_RNvMNtNtCs81fg4i8wncb_15catalyst_voting6crypto18babystep_giantstepNtB2_17BabyStepGiantStep12discrete_log
FNDA:101,_RNvMNtNtCs81fg4i8wncb_15catalyst_voting6crypto18babystep_giantstepNtB2_17BabyStepGiantStep3new
FNF:2
FNH:2
DA:43,357
DA:44,357
DA:45,357
DA:46,357
DA:47,357
DA:49,357
DA:50,357
DA:51,0
DA:52,0
DA:60,357
DA:61,357
DA:62,357
DA:64,357
DA:65,912963
DA:66,912963
DA:67,912963
DA:68,912963
DA:69,912963
DA:71,357
DA:72,357
DA:73,357
DA:74,357
DA:75,357
DA:76,357
DA:77,357
DA:83,438
DA:84,438
DA:85,438
DA:86,438
DA:87,224053
DA:88,224053
DA:89,438
DA:90,438
DA:91,223615
DA:92,223615
DA:97,0
DA:98,0
DA:100,438
BRF:0
BRH:0
LF:38
LH:34
end_of_record
SF:/root/build/catalyst-voting/src/crypto/ed25519/decoding.rs
FN:46,_RNCNvMs_NtNtNtCsfjV1l1xxmjd_15catalyst_voting6crypto7ed255198decodingNtB8_9PublicKey10from_bytes0Bc_
FN:25,_RNvMNtNtNtCsfjV1l1xxmjd_15catalyst_voting6crypto7ed255198decodingNtB4_10PrivateKey10from_bytes
FN:17,_RNvMNtNtNtCsfjV1l1xxmjd_15catalyst_voting6crypto7ed255198decodingNtB4_10PrivateKey8to_bytes
FN:62,_RNvMs0_NtNtNtCsfjV1l1xxmjd_15catalyst_voting6crypto7ed255198decodingNtB7_9Signature10from_bytes
FN:57,_RNvMs0_NtNtNtCsfjV1l1xxmjd_15catalyst_voting6crypto7ed255198decodingNtB7_9Signature8to_bytes
FN:44,_RNvMs_NtNtNtCsfjV1l1xxmjd_15catalyst_voting6crypto7ed255198decodingNtB6_9PublicKey10from_bytes
FN:36,_RNvMs_NtNtNtCsfjV1l1xxmjd_15catalyst_voting6crypto7ed255198decodingNtB6_9PublicKey8to_bytes
FN:46,_RNCNvMs_NtNtNtCs81fg4i8wncb_15catalyst_voting6crypto7ed255198decodingNtB8_9PublicKey10from_bytes0Bc_
FN:25,_RNvMNtNtNtCs81fg4i8wncb_15catalyst_voting6crypto7ed255198decodingNtB4_10PrivateKey10from_bytes
FN:62,_RNvMs0_NtNtNtCs81fg4i8wncb_15catalyst_voting6crypto7ed255198decodingNtB7_9Signature10from_bytes
FN:57,_RNvMs0_NtNtNtCs81fg4i8wncb_15catalyst_voting6crypto7ed255198decodingNtB7_9Signature8to_bytes
FN:44,_RNvMs_NtNtNtCs81fg4i8wncb_15catalyst_voting6crypto7ed255198decodingNtB6_9PublicKey10from_bytes
FN:17,_RNvMNtNtNtCs81fg4i8wncb_15catalyst_voting6crypto7ed255198decodingNtB4_10PrivateKey8to_bytes
FN:36,_RNvMs_NtNtNtCs81fg4i8wncb_15catalyst_voting6crypto7ed255198decodingNtB6_9PublicKey8to_bytes
FNDA:0,_RNCNvMs_NtNtNtCsfjV1l1xxmjd_15catalyst_voting6crypto7ed255198decodingNtB8_9PublicKey10from_bytes0Bc_
FNDA:0,_RNvMNtNtNtCsfjV1l1xxmjd_15catalyst_voting6crypto7ed255198decodingNtB4_10PrivateKey10from_bytes
FNDA:0,_RNvMNtNtNtCsfjV1l1xxmjd_15catalyst_voting6crypto7ed255198decodingNtB4_10PrivateKey8to_bytes
FNDA:0,_RNvMs0_NtNtNtCsfjV1l1xxmjd_15catalyst_voting6crypto7ed255198decodingNtB7_9Signature10from_bytes
FNDA:0,_RNvMs0_NtNtNtCsfjV1l1xxmjd_15catalyst_voting6crypto7ed255198decodingNtB7_9Signature8to_bytes
FNDA:0,_RNvMs_NtNtNtCsfjV1l1xxmjd_15catalyst_voting6crypto7ed255198decodingNtB6_9PublicKey10from_bytes
FNDA:0,_RNvMs_NtNtNtCsfjV1l1xxmjd_15catalyst_voting6crypto7ed255198decodingNtB6_9PublicKey8to_bytes
FNDA:0,_RNCNvMs_NtNtNtCs81fg4i8wncb_15catalyst_voting6crypto7ed255198decodingNtB8_9PublicKey10from_bytes0Bc_
FNDA:0,_RNvMNtNtNtCs81fg4i8wncb_15catalyst_voting6crypto7ed255198decodingNtB4_10PrivateKey10from_bytes
FNDA:0,_RNvMs0_NtNtNtCs81fg4i8wncb_15catalyst_voting6crypto7ed255198decodingNtB7_9Signature10from_bytes
FNDA:0,_RNvMs0_NtNtNtCs81fg4i8wncb_15catalyst_voting6crypto7ed255198decodingNtB7_9Signature8to_bytes
FNDA:0,_RNvMs_NtNtNtCs81fg4i8wncb_15catalyst_voting6crypto7ed255198decodingNtB6_9PublicKey10from_bytes
FNDA:0,_RNvMNtNtNtCs81fg4i8wncb_15catalyst_voting6crypto7ed255198decodingNtB4_10PrivateKey8to_bytes
FNDA:0,_RNvMs_NtNtNtCs81fg4i8wncb_15catalyst_voting6crypto7ed255198decodingNtB6_9PublicKey8to_bytes
FNF:7
FNH:0
DA:17,0
DA:18,0
DA:19,0
DA:25,0
DA:26,0
DA:27,0
DA:36,0
DA:37,0
DA:38,0
DA:44,0
DA:46,0
DA:48,0
DA:57,0
DA:58,0
DA:59,0
DA:62,0
DA:63,0
DA:64,0
BRF:0
BRH:0
LF:19
LH:0
end_of_record
SF:/root/build/catalyst-voting/src/crypto/ed25519/mod.rs
FN:74,_RNCNvXNtNtNtCsfjV1l1xxmjd_15catalyst_voting6crypto7ed2551914arbitrary_implNtB6_10PrivateKeyNtNtNtCs4HkuHzaL277_8proptest9arbitrary6traits9Arbitrary14arbitrary_with0Ba_
FN:29,_RNvMNtNtCsfjV1l1xxmjd_15catalyst_voting6crypto7ed25519NtB2_10PrivateKey10public_key
FN:54,_RNvNtNtCsfjV1l1xxmjd_15catalyst_voting6crypto7ed2551916verify_signature
FN:45,_RNvNtNtCsfjV1l1xxmjd_15catalyst_voting6crypto7ed255194sign
FN:72,_RNvXNtNtNtCsfjV1l1xxmjd_15catalyst_voting6crypto7ed2551914arbitrary_implNtB4_10PrivateKeyNtNtNtCs4HkuHzaL277_8proptest9arbitrary6traits9Arbitrary14arbitrary_with
FN:19,_RINvMNtNtCsfjV1l1xxmjd_15catalyst_voting6crypto7ed25519NtB3_10PrivateKey6randompEB7_
FN:24,_RNvMNtNtCsfjV1l1xxmjd_15catalyst_voting6crypto7ed25519NtB2_10PrivateKey23random_with_default_rng
FN:19,_RINvMNtNtCs81fg4i8wncb_15catalyst_voting6crypto7ed25519NtB3_10PrivateKey6randomNtNtCsgOU7NZnRzZ4_11rand_chacha6chacha10ChaCha8RngEB7_
FN:24,_RNvMNtNtCs81fg4i8wncb_15catalyst_voting6crypto7ed25519NtB2_10PrivateKey23random_with_default_rng
FN:54,_RNvNtNtCs81fg4i8wncb_15catalyst_voting6crypto7ed2551916verify_signature
FN:45,_RNvNtNtCs81fg4i8wncb_15catalyst_voting6crypto7ed255194sign
FN:29,_RNvMNtNtCs81fg4i8wncb_15catalyst_voting6crypto7ed25519NtB2_10PrivateKey10public_key
FNDA:256,_RNCNvXNtNtNtCsfjV1l1xxmjd_15catalyst_voting6crypto7ed2551914arbitrary_implNtB6_10PrivateKeyNtNtNtCs4HkuHzaL277_8proptest9arbitrary6traits9Arbitrary14arbitrary_with0Ba_
FNDA:256,_RNvMNtNtCsfjV1l1xxmjd_15catalyst_voting6crypto7ed25519NtB2_10PrivateKey10public_key
FNDA:256,_RNvNtNtCsfjV1l1xxmjd_15catalyst_voting6crypto7ed2551916verify_signature
FNDA:256,_RNvNtNtCsfjV1l1xxmjd_15catalyst_voting6crypto7ed255194sign
FNDA:1,_RNvXNtNtNtCsfjV1l1xxmjd_15catalyst_voting6crypto7ed2551914arbitrary_implNtB4_10PrivateKeyNtNtNtCs4HkuHzaL277_8proptest9arbitrary6traits9Arbitrary14arbitrary_with
FNDA:0,_RINvMNtNtCsfjV1l1xxmjd_15catalyst_voting6crypto7ed25519NtB3_10PrivateKey6randompEB7_
FNDA:0,_RNvMNtNtCsfjV1l1xxmjd_15catalyst_voting6crypto7ed25519NtB2_10PrivateKey23random_with_default_rng
FNDA:0,_RINvMNtNtCs81fg4i8wncb_15catalyst_voting6crypto7ed25519NtB3_10PrivateKey6randomNtNtCsgOU7NZnRzZ4_11rand_chacha6chacha10ChaCha8RngEB7_
FNDA:0,_RNvMNtNtCs81fg4i8wncb_15catalyst_voting6crypto7ed25519NtB2_10PrivateKey23random_with_default_rng
FNDA:0,_RNvNtNtCs81fg4i8wncb_15catalyst_voting6crypto7ed2551916verify_signature
FNDA:0,_RNvNtNtCs81fg4i8wncb_15catalyst_voting6crypto7ed255194sign
FNDA:0,_RNvMNtNtCs81fg4i8wncb_15catalyst_voting6crypto7ed25519NtB2_10PrivateKey10public_key
FNF:7
FNH:5
DA:19,0
DA:20,0
DA:21,0
DA:24,0
DA:25,0
DA:26,0
DA:29,256
DA:30,256
DA:31,256
DA:45,256
DA:46,256
DA:47,256
DA:48,256
DA:49,256
DA:50,256
DA:54,256
DA:55,256
DA:56,256
DA:57,256
DA:58,256
DA:59,256
DA:60,256
DA:72,1
DA:73,1
DA:74,256
DA:75,1
DA:76,1
BRF:0
BRH:0
LF:28
LH:22
end_of_record
SF:/root/build/catalyst-voting/src/crypto/elgamal/decoding.rs
FN:30,_RNCNvMNtNtNtCsfjV1l1xxmjd_15catalyst_voting6crypto7elgamal8decodingNtB6_10Ciphertext10from_bytes0Ba_
FN:32,_RNCNvMNtNtNtCsfjV1l1xxmjd_15catalyst_voting6crypto7elgamal8decodingNtB6_10Ciphertext10from_bytess_0Ba_
FN:27,_RNvMNtNtNtCsfjV1l1xxmjd_15catalyst_voting6crypto7elgamal8decodingNtB4_10Ciphertext10from_bytes
FN:13,_RNvMNtNtNtCsfjV1l1xxmjd_15catalyst_voting6crypto7elgamal8decodingNtB4_10Ciphertext8to_bytes
FN:30,_RNCNvMNtNtNtCs81fg4i8wncb_15catalyst_voting6crypto7elgamal8decodingNtB6_10Ciphertext10from_bytes0Ba_
FN:32,_RNCNvMNtNtNtCs81fg4i8wncb_15catalyst_voting6crypto7elgamal8decodingNtB6_10Ciphertext10from_bytess_0Ba_
FN:27,_RNvMNtNtNtCs81fg4i8wncb_15catalyst_voting6crypto7elgamal8decodingNtB4_10Ciphertext10from_bytes
FN:13,_RNvMNtNtNtCs81fg4i8wncb_15catalyst_voting6crypto7elgamal8decodingNtB4_10Ciphertext8to_bytes
FNDA:0,_RNCNvMNtNtNtCsfjV1l1xxmjd_15catalyst_voting6crypto7elgamal8decodingNtB6_10Ciphertext10from_bytes0Ba_
FNDA:0,_RNCNvMNtNtNtCsfjV1l1xxmjd_15catalyst_voting6crypto7elgamal8decodingNtB6_10Ciphertext10from_bytess_0Ba_
FNDA:1281,_RNvMNtNtNtCsfjV1l1xxmjd_15catalyst_voting6crypto7elgamal8decodingNtB4_10Ciphertext10from_bytes
FNDA:1281,_RNvMNtNtNtCsfjV1l1xxmjd_15catalyst_voting6crypto7elgamal8decodingNtB4_10Ciphertext8to_bytes
FNDA:0,_RNCNvMNtNtNtCs81fg4i8wncb_15catalyst_voting6crypto7elgamal8decodingNtB6_10Ciphertext10from_bytes0Ba_
FNDA:0,_RNCNvMNtNtNtCs81fg4i8wncb_15catalyst_voting6crypto7elgamal8decodingNtB6_10Ciphertext10from_bytess_0Ba_
FNDA:0,_RNvMNtNtNtCs81fg4i8wncb_15catalyst_voting6crypto7elgamal8decodingNtB4_10Ciphertext10from_bytes
FNDA:0,_RNvMNtNtNtCs81fg4i8wncb_15catalyst_voting6crypto7elgamal8decodingNtB4_10Ciphertext8to_bytes
FNF:4
FNH:2
DA:13,1281
DA:14,1281
DA:15,1281
DA:16,1281
DA:17,1281
DA:18,1281
DA:27,1281
DA:29,1281
DA:30,1281
DA:31,1281
DA:32,1281
DA:34,1281
BRF:0
BRH:0
LF:14
LH:12
end_of_record
SF:/root/build/catalyst-voting/src/crypto/elgamal/mod.rs
FN:97,_RNCNvXNtNtNtCsfjV1l1xxmjd_15catalyst_voting6crypto7elgamal14arbitrary_implNtB6_10CiphertextNtNtNtCs4HkuHzaL277_8proptest9arbitrary6traits9Arbitrary14arbitrary_with0Ba_
FN:18,_RNvMNtNtCsfjV1l1xxmjd_15catalyst_voting6crypto7elgamalNtB2_10Ciphertext4zero
FN:23,_RNvMNtNtCsfjV1l1xxmjd_15catalyst_voting6crypto7elgamalNtB2_10Ciphertext5first
FN:28,_RNvMNtNtCsfjV1l1xxmjd_15catalyst_voting6crypto7elgamalNtB2_10Ciphertext6second
FN:34,_RNvNtNtCsfjV1l1xxmjd_15catalyst_voting6crypto7elgamal19generate_public_key
FN:53,_RNvNtNtCsfjV1l1xxmjd_15catalyst_voting6crypto7elgamal7decrypt
FN:41,_RNvNtNtCsfjV1l1xxmjd_15catalyst_voting6crypto7elgamal7encrypt
FN:95,_RNvXNtNtNtCsfjV1l1xxmjd_15catalyst_voting6crypto7elgamal14arbitrary_implNtB4_10CiphertextNtNtNtCs4HkuHzaL277_8proptest9arbitrary6traits9Arbitrary14arbitrary_with
FN:74,_RNvXs0_NtNtCsfjV1l1xxmjd_15catalyst_voting6crypto7elgamalRNtB5_10CiphertextNtNtNtCs66KPHxksi63_4core3ops5arith3Add3add
FN:63,_RNvXs_NtNtCsfjV1l1xxmjd_15catalyst_voting6crypto7elgamalRNtB4_10CiphertextINtNtNtCs66KPHxksi63_4core3ops5arith3MulRNtNtNtB6_5group12ristretto2556ScalarE3mul
FN:18,_RNvMNtNtCs81fg4i8wncb_15catalyst_voting6crypto7elgamalNtB2_10Ciphertext4zero
FN:23,_RNvMNtNtCs81fg4i8wncb_15catalyst_voting6crypto7elgamalNtB2_10Ciphertext5first
FN:28,_RNvMNtNtCs81fg4i8wncb_15catalyst_voting6crypto7elgamalNtB2_10Ciphertext6second
FN:34,_RNvNtNtCs81fg4i8wncb_15catalyst_voting6crypto7elgamal19generate_public_key
FN:53,_RNvNtNtCs81fg4i8wncb_15catalyst_voting6crypto7elgamal7decrypt
FN:41,_RNvNtNtCs81fg4i8wncb_15catalyst_voting6crypto7elgamal7encrypt
FN:74,_RNvXs0_NtNtCs81fg4i8wncb_15catalyst_voting6crypto7elgamalRNtB5_10CiphertextNtNtNtCs66KPHxksi63_4core3ops5arith3Add3add
FN:63,_RNvXs_NtNtCs81fg4i8wncb_15catalyst_voting6crypto7elgamalRNtB4_10CiphertextINtNtNtCs66KPHxksi63_4core3ops5arith3MulRNtNtNtB6_5group12ristretto2556ScalarE3mul
FNDA:1281,_RNCNvXNtNtNtCsfjV1l1xxmjd_15catalyst_voting6crypto7elgamal14arbitrary_implNtB6_10CiphertextNtNtNtCs4HkuHzaL277_8proptest9arbitrary6traits9Arbitrary14arbitrary_with0Ba_
FNDA:80,_RNvMNtNtCsfjV1l1xxmjd_15catalyst_voting6crypto7elgamalNtB2_10Ciphertext4zero
FNDA:346,_RNvMNtNtCsfjV1l1xxmjd_15catalyst_voting6crypto7elgamalNtB2_10Ciphertext5first
FNDA:346,_RNvMNtNtCsfjV1l1xxmjd_15catalyst_voting6crypto7elgamalNtB2_10Ciphertext6second
FNDA:532,_RNvNtNtCsfjV1l1xxmjd_15catalyst_voting6crypto7elgamal19generate_public_key
FNDA:256,_RNvNtNtCsfjV1l1xxmjd_15catalyst_voting6crypto7elgamal7decrypt
FNDA:544,_RNvNtNtCsfjV1l1xxmjd_15catalyst_voting6crypto7elgamal7encrypt
FNDA:513,_RNvXNtNtNtCsfjV1l1xxmjd_15catalyst_voting6crypto7elgamal14arbitrary_implNtB4_10CiphertextNtNtNtCs4HkuHzaL277_8proptest9arbitrary6traits9Arbitrary14arbitrary_with
FNDA:577,_RNvXs0_NtNtCsfjV1l1xxmjd_15catalyst_voting6crypto7elgamalRNtB5_10CiphertextNtNtNtCs66KPHxksi63_4core3ops5arith3Add3add
FNDA:557,_RNvXs_NtNtCsfjV1l1xxmjd_15catalyst_voting6crypto7elgamalRNtB4_10CiphertextINtNtNtCs66KPHxksi63_4core3ops5arith3MulRNtNtNtB6_5group12ristretto2556ScalarE3mul
FNDA:403,_RNvMNtNtCs81fg4i8wncb_15catalyst_voting6crypto7elgamalNtB2_10Ciphertext4zero
FNDA:1206,_RNvMNtNtCs81fg4i8wncb_15catalyst_voting6crypto7elgamalNtB2_10Ciphertext5first
FNDA:1203,_RNvMNtNtCs81fg4i8wncb_15catalyst_voting6crypto7elgamalNtB2_10Ciphertext6second
FNDA:4,_RNvNtNtCs81fg4i8wncb_15catalyst_voting6crypto7elgamal19generate_public_key
FNDA:182,_RNvNtNtCs81fg4i8wncb_15catalyst_voting6crypto7elgamal7decrypt
FNDA:1000,_RNvNtNtCs81fg4i8wncb_15catalyst_voting6crypto7elgamal7encrypt
FNDA:1400,_RNvXs0_NtNtCs81fg4i8wncb_15catalyst_voting6crypto7elgamalRNtB5_10CiphertextNtNtNtCs66KPHxksi63_4core3ops5arith3Add3add
FNDA:1300,_RNvXs_NtNtCs81fg4i8wncb_15catalyst_voting6crypto7elgamalRNtB4_10CiphertextINtNtNtCs66KPHxksi63_4core3ops5arith3MulRNtNtNtB6_5group12ristretto2556ScalarE3mul
FNF:10
FNH:10
DA:18,483
DA:19,483
DA:20,483
DA:23,1552
DA:24,1552
DA:25,1552
DA:28,1549
DA:29,1549
DA:30,1549
DA:34,536
DA:35,536
DA:36,536
DA:41,1544
DA:42,1544
DA:43,1544
DA:44,1544
DA:45,1544
DA:46,1544
DA:47,1544
DA:48,1544
DA:49,1544
DA:53,438
DA:54,438
DA:55,438
DA:56,438
DA:57,438
DA:58,438
DA:63,1857
DA:64,1857
DA:65,1857
DA:66,1857
DA:67,1857
DA:68,1857
DA:74,1977
DA:75,1977
DA:76,1977
DA:77,1977
DA:78,1977
DA:79,1977
DA:95,513
DA:96,513
DA:97,1281
DA:98,513
DA:99,513
BRF:0
BRH:0
LF:45
LH:45
end_of_record
SF:/root/build/catalyst-voting/src/crypto/group/ristretto255/decoding.rs
FN:16,_RNvMNtNtNtNtCsfjV1l1xxmjd_15catalyst_voting6crypto5group12ristretto2558decodingNtB4_6Scalar10from_bytes
FN:36,_RNvMs_NtNtNtNtCsfjV1l1xxmjd_15catalyst_voting6crypto5group12ristretto2558decodingNtB6_12GroupElement10from_bytes
FN:46,_RNvMs_NtNtNtNtCsfjV1l1xxmjd_15catalyst_voting6crypto5group12ristretto2558decodingNtB6_12GroupElement8to_bytes
FN:23,_RNvMNtNtNtNtCsfjV1l1xxmjd_15catalyst_voting6crypto5group12ristretto2558decodingNtB4_6Scalar8to_bytes
FN:23,_RNvMNtNtNtNtCs81fg4i8wncb_15catalyst_voting6crypto5group12ristretto2558decodingNtB4_6Scalar8to_bytes
FN:16,_RNvMNtNtNtNtCs81fg4i8wncb_15catalyst_voting6crypto5group12ristretto2558decodingNtB4_6Scalar10from_bytes
FN:36,_RNvMs_NtNtNtNtCs81fg4i8wncb_15catalyst_voting6crypto5group12ristretto2558decodingNtB6_12GroupElement10from_bytes
FN:46,_RNvMs_NtNtNtNtCs81fg4i8wncb_15catalyst_voting6crypto5group12ristretto2558decodingNtB6_12GroupElement8to_bytes
FNDA:3087,_RNvMNtNtNtNtCsfjV1l1xxmjd_15catalyst_voting6crypto5group12ristretto2558decodingNtB4_6Scalar10from_bytes
FNDA:5393,_RNvMs_NtNtNtNtCsfjV1l1xxmjd_15catalyst_voting6crypto5group12ristretto2558decodingNtB6_12GroupElement10from_bytes
FNDA:6915,_RNvMs_NtNtNtNtCsfjV1l1xxmjd_15catalyst_voting6crypto5group12ristretto2558decodingNtB6_12GroupElement8to_bytes
FNDA:3087,_RNvMNtNtNtNtCsfjV1l1xxmjd_15catalyst_voting6crypto5group12ristretto2558decodingNtB4_6Scalar8to_bytes
FNDA:0,_RNvMNtNtNtNtCs81fg4i8wncb_15catalyst_voting6crypto5group12ristretto2558decodingNtB4_6Scalar8to_bytes
FNDA:0,_RNvMNtNtNtNtCs81fg4i8wncb_15catalyst_voting6crypto5group12ristretto2558decodingNtB4_6Scalar10from_bytes
FNDA:0,_RNvMs_NtNtNtNtCs81fg4i8wncb_15catalyst_voting6crypto5group12ristretto2558decodingNtB6_12GroupElement10from_bytes
FNDA:4036,_RNvMs_NtNtNtNtCs81fg4i8wncb_15catalyst_voting6crypto5group12ristretto2558decodingNtB6_12GroupElement8to_bytes
FNF:4
FNH:4
DA:16,3087
DA:17,3087
DA:18,3087
DA:19,3087
DA:20,3087
DA:23,3087
DA:24,3087
DA:25,3087
DA:36,5393
DA:38,5393
DA:39,5393
DA:40,5393
DA:42,5393
DA:46,10951
DA:47,10951
DA:48,10951
BRF:0
BRH:0
LF:16
LH:16
end_of_record
SF:/root/build/catalyst-voting/src/crypto/group/ristretto255/mod.rs
FN:210,_RNCNvXs_NtNtNtNtCsfjV1l1xxmjd_15catalyst_voting6crypto5group12ristretto25514arbitrary_implNtB8_12GroupElementNtNtNtCs4HkuHzaL277_8proptest9arbitrary6traits9Arbitrary14arbitrary_with0Be_
FN:41,_RINvXs_NtNtNtCsfjV1l1xxmjd_15catalyst_voting6crypto5group12ristretto255NtB5_12GroupElementNtNtCs66KPHxksi63_4core4hash4Hash4hashNtNtNtCsiKSG5X70Gj7_3std4hash6random13DefaultHasherEBb_
FN:71,_RNvMs0_NtNtNtCsfjV1l1xxmjd_15catalyst_voting6crypto5group12ristretto255NtB5_6Scalar6negate
FN:76,_RNvMs0_NtNtNtCsfjV1l1xxmjd_15catalyst_voting6crypto5group12ristretto255NtB5_6Scalar7inverse
FN:35,_RNvXNtNtNtCsfjV1l1xxmjd_15catalyst_voting6crypto5group12ristretto255NtB2_6ScalarINtNtCs66KPHxksi63_4core7convert4FromyE4from
FN:199,_RNvXNtNtNtNtCsfjV1l1xxmjd_15catalyst_voting6crypto5group12ristretto25514arbitrary_implNtB4_6ScalarNtNtNtCs4HkuHzaL277_8proptest9arbitrary6traits9Arbitrary14arbitrary_with
FN:119,_RNvXs3_NtNtNtCsfjV1l1xxmjd_15catalyst_voting6crypto5group12ristretto255RNtB5_12GroupElementINtNtNtCs66KPHxksi63_4core3ops5arith3MulRNtB5_6ScalarE3mul
FN:134,_RNvXs4_NtNtNtCsfjV1l1xxmjd_15catalyst_voting6crypto5group12ristretto255RNtB5_6ScalarNtNtNtCs66KPHxksi63_4core3ops5arith3Mul3mul
FN:145,_RNvXs5_NtNtNtCsfjV1l1xxmjd_15catalyst_voting6crypto5group12ristretto255RNtB5_12GroupElementNtNtNtCs66KPHxksi63_4core3ops5arith3Add3add
FN:156,_RNvXs6_NtNtNtCsfjV1l1xxmjd_15catalyst_voting6crypto5group12ristretto255RNtB5_6ScalarNtNtNtCs66KPHxksi63_4core3ops5arith3Add3add
FN:167,_RNvXs7_NtNtNtCsfjV1l1xxmjd_15catalyst_voting6crypto5group12ristretto255RNtB5_6ScalarNtNtNtCs66KPHxksi63_4core3ops5arith3Sub3sub
FN:178,_RNvXs8_NtNtNtCsfjV1l1xxmjd_15catalyst_voting6crypto5group12ristretto255RNtB5_12GroupElementNtNtNtCs66KPHxksi63_4core3ops5arith3Sub3sub
FN:208,_RNvXs_NtNtNtNtCsfjV1l1xxmjd_15catalyst_voting6crypto5group12ristretto25514arbitrary_implNtB6_12GroupElementNtNtNtCs4HkuHzaL277_8proptest9arbitrary6traits9Arbitrary14arbitrary_with
FN:81,_RINvMs0_NtNtNtCsfjV1l1xxmjd_15catalyst_voting6crypto5group12ristretto255NtB6_6Scalar9from_hashNtNtBa_4hash16Blake2b512HasherEBc_
FN:51,_RINvMs0_NtNtNtCsfjV1l1xxmjd_15catalyst_voting6crypto5group12ristretto255NtB6_6Scalar6randomNtNtCskjfZgJdX2ug_9rand_core2os5OsRngEBc_
FN:92,_RNvMs1_NtNtNtCsfjV1l1xxmjd_15catalyst_voting6crypto5group12ristretto255NtB5_12GroupElement4zero
FN:97,_RINvMs1_NtNtNtCsfjV1l1xxmjd_15catalyst_voting6crypto5group12ristretto255NtB6_12GroupElement9from_hashpEBc_
FN:66,_RNvMs0_NtNtNtCsfjV1l1xxmjd_15catalyst_voting6crypto5group12ristretto255NtB5_6Scalar9increment
FN:108,_RNvXs2_NtNtNtCsfjV1l1xxmjd_15catalyst_voting6crypto5group12ristretto255RNtB5_6ScalarINtNtNtCs66KPHxksi63_4core3ops5arith3MulRNtB5_12GroupElementE3mul
FN:61,_RNvMs0_NtNtNtCsfjV1l1xxmjd_15catalyst_voting6crypto5group12ristretto255NtB5_6Scalar3one
FN:56,_RNvMs0_NtNtNtCsfjV1l1xxmjd_15catalyst_voting6crypto5group12ristretto255NtB5_6Scalar4zero
FN:81,_RINvMs0_NtNtNtCs81fg4i8wncb_15catalyst_voting6crypto5group12ristretto255NtB6_6Scalar9from_hashNtNtBa_4hash16Blake2b512HasherEBc_
FN:92,_RNvMs1_NtNtNtCs81fg4i8wncb_15catalyst_voting6crypto5group12ristretto255NtB5_12GroupElement4zero
FN:61,_RNvMs0_NtNtNtCs81fg4i8wncb_15catalyst_voting6crypto5group12ristretto255NtB5_6Scalar3one
FN:56,_RNvMs0_NtNtNtCs81fg4i8wncb_15catalyst_voting6crypto5group12ristretto255NtB5_6Scalar4zero
FN:51,_RINvMs0_NtNtNtCs81fg4i8wncb_15catalyst_voting6crypto5group12ristretto255NtB6_6Scalar6randomNtNtCsgOU7NZnRzZ4_11rand_chacha6chacha10ChaCha8RngEBc_
FN:41,_RINvXs_NtNtNtCs81fg4i8wncb_15catalyst_voting6crypto5group12ristretto255NtB5_12GroupElementNtNtCs66KPHxksi63_4core4hash4Hash4hashNtNtNtCsiKSG5X70Gj7_3std4hash6random13DefaultHasherEBb_
FN:71,_RNvMs0_NtNtNtCs81fg4i8wncb_15catalyst_voting6crypto5group12ristretto255NtB5_6Scalar6negate
FN:76,_RNvMs0_NtNtNtCs81fg4i8wncb_15catalyst_voting6crypto5group12ristretto255NtB5_6Scalar7inverse
FN:66,_RNvMs0_NtNtNtCs81fg4i8wncb_15catalyst_voting6crypto5group12ristretto255NtB5_6Scalar9increment
FN:35,_RNvXNtNtNtCs81fg4i8wncb_15catalyst_voting6crypto5group12ristretto255NtB2_6ScalarINtNtCs66KPHxksi63_4core7convert4FromyE4from
FN:108,_RNvXs2_NtNtNtCs81fg4i8wncb_15catalyst_voting6crypto5group12ristretto255RNtB5_6ScalarINtNtNtCs66KPHxksi63_4core3ops5arith3MulRNtB5_12GroupElementE3mul
FN:119,_RNvXs3_NtNtNtCs81fg4i8wncb_15catalyst_voting6crypto5group12ristretto255RNtB5_12GroupElementINtNtNtCs66KPHxksi63_4core3ops5arith3MulRNtB5_6ScalarE3mul
FN:134,_RNvXs4_NtNtNtCs81fg4i8wncb_15catalyst_voting6crypto5group12ristretto255RNtB5_6ScalarNtNtNtCs66KPHxksi63_4core3ops5arith3Mul3mul
FN:145,_RNvXs5_NtNtNtCs81fg4i8wncb_15catalyst_voting6crypto5group12ristretto255RNtB5_12GroupElementNtNtNtCs66KPHxksi63_4core3ops5arith3Add3add
FN:156,_RNvXs6_NtNtNtCs81fg4i8wncb_15catalyst_voting6crypto5group12ristretto255RNtB5_6ScalarNtNtNtCs66KPHxksi63_4core3ops5arith3Add3add
FN:167,_RNvXs7_NtNtNtCs81fg4i8wncb_15catalyst_voting6crypto5group12ristretto255RNtB5_6ScalarNtNtNtCs66KPHxksi63_4core3ops5arith3Sub3sub
FN:178,_RNvXs8_NtNtNtCs81fg4i8wncb_15catalyst_voting6crypto5group12ristretto255RNtB5_12GroupElementNtNtNtCs66KPHxksi63_4core3ops5arith3Sub3sub
FN:97,_RINvMs1_NtNtNtCs81fg4i8wncb_15catalyst_voting6crypto5group12ristretto255NtB6_12GroupElement9from_hashpEBc_
FNDA:5157,_RNCNvXs_NtNtNtNtCsfjV1l1xxmjd_15catalyst_voting6crypto5group12ristretto25514arbitrary_implNtB8_12GroupElementNtNtNtCs4HkuHzaL277_8proptest9arbitrary6traits9Arbitrary14arbitrary_with0Be_
FNDA:83321,_RINvXs_NtNtNtCsfjV1l1xxmjd_15catalyst_voting6crypto5group12ristretto255NtB5_12GroupElementNtNtCs66KPHxksi63_4core4hash4Hash4hashNtNtNtCsiKSG5X70Gj7_3std4hash6random13DefaultHasherEBb_
FNDA:1095,_RNvMs0_NtNtNtCsfjV1l1xxmjd_15catalyst_voting6crypto5group12ristretto255NtB5_6Scalar6negate
FNDA:512,_RNvMs0_NtNtNtCsfjV1l1xxmjd_15catalyst_voting6crypto5group12ristretto255NtB5_6Scalar7inverse
FNDA:12734,_RNvXNtNtNtCsfjV1l1xxmjd_15catalyst_voting6crypto5group12ristretto255NtB2_6ScalarINtNtCs66KPHxksi63_4core7convert4FromyE4from
FNDA:2852,_RNvXNtNtNtNtCsfjV1l1xxmjd_15catalyst_voting6crypto5group12ristretto25514arbitrary_implNtB4_6ScalarNtNtNtCs4HkuHzaL277_8proptest9arbitrary6traits9Arbitrary14arbitrary_with
FNDA:13823,_RNvXs3_NtNtNtCsfjV1l1xxmjd_15catalyst_voting6crypto5group12ristretto255RNtB5_12GroupElementINtNtNtCs66KPHxksi63_4core3ops5arith3MulRNtB5_6ScalarE3mul
FNDA:4210,_RNvXs4_NtNtNtCsfjV1l1xxmjd_15catalyst_voting6crypto5group12ristretto255RNtB5_6ScalarNtNtNtCs66KPHxksi63_4core3ops5arith3Mul3mul
FNDA:40983,_RNvXs5_NtNtNtCsfjV1l1xxmjd_15catalyst_voting6crypto5group12ristretto255RNtB5_12GroupElementNtNtNtCs66KPHxksi63_4core3ops5arith3Add3add
FNDA:3899,_RNvXs6_NtNtNtCsfjV1l1xxmjd_15catalyst_voting6crypto5group12ristretto255RNtB5_6ScalarNtNtNtCs66KPHxksi63_4core3ops5arith3Add3add
FNDA:538,_RNvXs7_NtNtNtCsfjV1l1xxmjd_15catalyst_voting6crypto5group12ristretto255RNtB5_6ScalarNtNtNtCs66KPHxksi63_4core3ops5arith3Sub3sub
FNDA:336,_RNvXs8_NtNtNtCsfjV1l1xxmjd_15catalyst_voting6crypto5group12ristretto255RNtB5_12GroupElementNtNtNtCs66KPHxksi63_4core3ops5arith3Sub3sub
FNDA:1800,_RNvXs_NtNtNtNtCsfjV1l1xxmjd_15catalyst_voting6crypto5group12ristretto25514arbitrary_implNtB6_12GroupElementNtNtNtCs4HkuHzaL277_8proptest9arbitrary6traits9Arbitrary14arbitrary_with
FNDA:160,_RINvMs0_NtNtNtCsfjV1l1xxmjd_15catalyst_voting6crypto5group12ristretto255NtB6_6Scalar9from_hashNtNtBa_4hash16Blake2b512HasherEBc_
FNDA:320,_RINvMs0_NtNtNtCsfjV1l1xxmjd_15catalyst_voting6crypto5group12ristretto255NtB6_6Scalar6randomNtNtCskjfZgJdX2ug_9rand_core2os5OsRngEBc_
FNDA:672,_RNvMs1_NtNtNtCsfjV1l1xxmjd_15catalyst_voting6crypto5group12ristretto255NtB5_12GroupElement4zero
FNDA:0,_RINvMs1_NtNtNtCsfjV1l1xxmjd_15catalyst_voting6crypto5group12ristretto255NtB6_12GroupElement9from_hashpEBc_
FNDA:0,_RNvMs0_NtNtNtCsfjV1l1xxmjd_15catalyst_voting6crypto5group12ristretto255NtB5_6Scalar9increment
FNDA:0,_RNvXs2_NtNtNtCsfjV1l1xxmjd_15catalyst_voting6crypto5group12ristretto255RNtB5_6ScalarINtNtNtCs66KPHxksi63_4core3ops5arith3MulRNtB5_12GroupElementE3mul
FNDA:1236,_RNvMs0_NtNtNtCsfjV1l1xxmjd_15catalyst_voting6crypto5group12ristretto255NtB5_6Scalar3one
FNDA:1124,_RNvMs0_NtNtNtCsfjV1l1xxmjd_15catalyst_voting6crypto5group12ristretto255NtB5_6Scalar4zero
FNDA:406,_RINvMs0_NtNtNtCs81fg4i8wncb_15catalyst_voting6crypto5group12ristretto255NtB6_6Scalar9from_hashNtNtBa_4hash16Blake2b512HasherEBc_
FNDA:907,_RNvMs1_NtNtNtCs81fg4i8wncb_15catalyst_voting6crypto5group12ristretto255NtB5_12GroupElement4zero
FNDA:2200,_RNvMs0_NtNtNtCs81fg4i8wncb_15catalyst_voting6crypto5group12ristretto255NtB5_6Scalar3one
FNDA:2179,_RNvMs0_NtNtNtCs81fg4i8wncb_15catalyst_voting6crypto5group12ristretto255NtB5_6Scalar4zero
FNDA:1305,_RINvMs0_NtNtNtCs81fg4i8wncb_15catalyst_voting6crypto5group12ristretto255NtB6_6Scalar6randomNtNtCsgOU7NZnRzZ4_11rand_chacha6chacha10ChaCha8RngEBc_
FNDA:2016756,_RINvXs_NtNtNtCs81fg4i8wncb_15catalyst_voting6crypto5group12ristretto255NtB5_12GroupElementNtNtCs66KPHxksi63_4core4hash4Hash4hashNtNtNtCsiKSG5X70Gj7_3std4hash6random13DefaultHasherEBb_
FNDA:1083,_RNvMs0_NtNtNtCs81fg4i8wncb_15catalyst_voting6crypto5group12ristretto255NtB5_6Scalar6negate
FNDA:0,_RNvMs0_NtNtNtCs81fg4i8wncb_15catalyst_voting6crypto5group12ristretto255NtB5_6Scalar7inverse
FNDA:0,_RNvMs0_NtNtNtCs81fg4i8wncb_15catalyst_voting6crypto5group12ristretto255NtB5_6Scalar9increment
FNDA:404,_RNvXNtNtNtCs81fg4i8wncb_15catalyst_voting6crypto5group12ristretto255NtB2_6ScalarINtNtCs66KPHxksi63_4core7convert4FromyE4from
FNDA:0,_RNvXs2_NtNtNtCs81fg4i8wncb_15catalyst_voting6crypto5group12ristretto255RNtB5_6ScalarINtNtNtCs66KPHxksi63_4core3ops5arith3MulRNtB5_12GroupElementE3mul
FNDA:7969,_RNvXs3_NtNtNtCs81fg4i8wncb_15catalyst_voting6crypto5group12ristretto255RNtB5_12GroupElementINtNtNtCs66KPHxksi63_4core3ops5arith3MulRNtB5_6ScalarE3mul
FNDA:6903,_RNvXs4_NtNtNtCs81fg4i8wncb_15catalyst_voting6crypto5group12ristretto255RNtB5_6ScalarNtNtNtCs66KPHxksi63_4core3ops5arith3Mul3mul
FNDA:1104170,_RNvXs5_NtNtNtCs81fg4i8wncb_15catalyst_voting6crypto5group12ristretto255RNtB5_12GroupElementNtNtNtCs66KPHxksi63_4core3ops5arith3Add3add
FNDA:2060,_RNvXs6_NtNtNtCs81fg4i8wncb_15catalyst_voting6crypto5group12ristretto255RNtB5_6ScalarNtNtNtCs66KPHxksi63_4core3ops5arith3Add3add
FNDA:800,_RNvXs7_NtNtNtCs81fg4i8wncb_15catalyst_voting6crypto5group12ristretto255RNtB5_6ScalarNtNtNtCs66KPHxksi63_4core3ops5arith3Sub3sub
FNDA:9,_RNvXs8_NtNtNtCs81fg4i8wncb_15catalyst_voting6crypto5group12ristretto255RNtB5_12GroupElementNtNtNtCs66KPHxksi63_4core3ops5arith3Sub3sub
FNDA:0,_RINvMs1_NtNtNtCs81fg4i8wncb_15catalyst_voting6crypto5group12ristretto255NtB6_12GroupElement9from_hashpEBc_
FNF:21
FNH:18
DA:35,13138
DA:36,13138
DA:37,13138
DA:41,2100077
DA:42,2100077
DA:43,2100077
DA:44,2100077
DA:45,2100077
DA:46,2100077
DA:51,1625
DA:52,1625
DA:53,1625
DA:56,3303
DA:57,3303
DA:58,3303
DA:61,3436
DA:62,3436
DA:63,3436
DA:66,0
DA:67,0
DA:68,0
DA:71,2178
DA:72,2178
DA:73,2178
DA:76,512
DA:77,512
DA:78,512
DA:81,566
DA:82,566
DA:83,566
DA:84,566
DA:92,1579
DA:93,1579
DA:94,1579
DA:97,0
DA:98,0
DA:99,0
DA:100,0
DA:108,0
DA:109,0
DA:110,0
DA:111,0
DA:112,0
DA:113,0
DA:119,21792
DA:120,21792
DA:121,21792
DA:122,21792
DA:123,21792
DA:124,13298
DA:126,8494
DA:128,21792
DA:134,11113
DA:135,11113
DA:136,11113
DA:137,11113
DA:138,11113
DA:139,11113
DA:145,1145153
DA:146,1145153
DA:147,1145153
DA:148,1145153
DA:149,1145153
DA:150,1145153
DA:156,5959
DA:157,5959
DA:158,5959
DA:159,5959
DA:160,5959
DA:161,5959
DA:167,1338
DA:168,1338
DA:169,1338
DA:170,1338
DA:171,1338
DA:172,1338
DA:178,345
DA:179,345
DA:180,345
DA:181,345
DA:182,345
DA:183,345
DA:199,2852
DA:200,2852
DA:201,2852
DA:208,1800
DA:209,1800
DA:210,5157
DA:211,1800
DA:212,1800
BRF:0
BRH:0
LF:91
LH:78
end_of_record
SF:/root/build/catalyst-voting/src/crypto/hash.rs
FN:17,_RNvMNtNtCsfjV1l1xxmjd_15catalyst_voting6crypto4hashNtB2_16Blake2b512Hasher3new
FN:35,_RNvXs0_NtNtCsfjV1l1xxmjd_15catalyst_voting6crypto4hashNtB5_16Blake2b512HasherNtCs28dPLZ3Px34_6digest6Update6update
FN:46,_RNvXs1_NtNtCsfjV1l1xxmjd_15catalyst_voting6crypto4hashNtB5_16Blake2b512HasherNtCs18j5F5c4Pjf_13crypto_common14OutputSizeUser11output_size
FN:52,_RNvXs2_NtNtCsfjV1l1xxmjd_15catalyst_voting6crypto4hashNtB5_16Blake2b512HasherNtCs28dPLZ3Px34_6digest11FixedOutput13finalize_into
FN:70,_RNvMs4_NtNtCsfjV1l1xxmjd_15catalyst_voting6crypto4hashNtB5_16Blake2b256Hasher3new
FN:82,_RNvXs5_NtNtCsfjV1l1xxmjd_15catalyst_voting6crypto4hashNtB5_16Blake2b256HasherNtNtCs66KPHxksi63_4core7default7Default7default
FN:88,_RNvXs6_NtNtCsfjV1l1xxmjd_15catalyst_voting6crypto4hashNtB5_16Blake2b256HasherNtCs28dPLZ3Px34_6digest6Update6update
FN:99,_RNvXs7_NtNtCsfjV1l1xxmjd_15catalyst_voting6crypto4hashNtB5_16Blake2b256HasherNtCs18j5F5c4Pjf_13crypto_common14OutputSizeUser11output_size
FN:105,_RNvXs8_NtNtCsfjV1l1xxmjd_15catalyst_voting6crypto4hashNtB5_16Blake2b256HasherNtCs28dPLZ3Px34_6digest11FixedOutput13finalize_into
FN:29,_RNvXs_NtNtCsfjV1l1xxmjd_15catalyst_voting6crypto4hashNtB4_16Blake2b512HasherNtNtCs66KPHxksi63_4core7default7Default7default
FN:17,_RNvMNtNtCs81fg4i8wncb_15catalyst_voting6crypto4hashNtB2_16Blake2b512Hasher3new
FN:70,_RNvMs4_NtNtCs81fg4i8wncb_15catalyst_voting6crypto4hashNtB5_16Blake2b256Hasher3new
FN:35,_RNvXs0_NtNtCs81fg4i8wncb_15catalyst_voting6crypto4hashNtB5_16Blake2b512HasherNtCs28dPLZ3Px34_6digest6Update6update
FN:46,_RNvXs1_NtNtCs81fg4i8wncb_15catalyst_voting6crypto4hashNtB5_16Blake2b512HasherNtCs18j5F5c4Pjf_13crypto_common14OutputSizeUser11output_size
FN:52,_RNvXs2_NtNtCs81fg4i8wncb_15catalyst_voting6crypto4hashNtB5_16Blake2b512HasherNtCs28dPLZ3Px34_6digest11FixedOutput13finalize_into
FN:82,_RNvXs5_NtNtCs81fg4i8wncb_15catalyst_voting6crypto4hashNtB5_16Blake2b256HasherNtNtCs66KPHxksi63_4core7default7Default7default
FN:88,_RNvXs6_NtNtCs81fg4i8wncb_15catalyst_voting6crypto4hashNtB5_16Blake2b256HasherNtCs28dPLZ3Px34_6digest6Update6update
FN:99,_RNvXs7_NtNtCs81fg4i8wncb_15catalyst_voting6crypto4hashNtB5_16Blake2b256HasherNtCs18j5F5c4Pjf_13crypto_common14OutputSizeUser11output_size
FN:105,_RNvXs8_NtNtCs81fg4i8wncb_15catalyst_voting6crypto4hashNtB5_16Blake2b256HasherNtCs28dPLZ3Px34_6digest11FixedOutput13finalize_into
FN:29,_RNvXs_NtNtCs81fg4i8wncb_15catalyst_voting6crypto4hashNtB4_16Blake2b512HasherNtNtCs66KPHxksi63_4core7default7Default7default
FNDA:120,_RNvMNtNtCsfjV1l1xxmjd_15catalyst_voting6crypto4hashNtB2_16Blake2b512Hasher3new
FNDA:1522,_RNvXs0_NtNtCsfjV1l1xxmjd_15catalyst_voting6crypto4hashNtB5_16Blake2b512HasherNtCs28dPLZ3Px34_6digest6Update6update
FNDA:120,_RNvXs1_NtNtCsfjV1l1xxmjd_15catalyst_voting6crypto4hashNtB5_16Blake2b512HasherNtCs18j5F5c4Pjf_13crypto_common14OutputSizeUser11output_size
FNDA:160,_RNvXs2_NtNtCsfjV1l1xxmjd_15catalyst_voting6crypto4hashNtB5_16Blake2b512HasherNtCs28dPLZ3Px34_6digest11FixedOutput13finalize_into
FNDA:0,_RNvMs4_NtNtCsfjV1l1xxmjd_15catalyst_voting6crypto4hashNtB5_16Blake2b256Hasher3new
FNDA:0,_RNvXs5_NtNtCsfjV1l1xxmjd_15catalyst_voting6crypto4hashNtB5_16Blake2b256HasherNtNtCs66KPHxksi63_4core7default7Default7default
FNDA:0,_RNvXs6_NtNtCsfjV1l1xxmjd_15catalyst_voting6crypto4hashNtB5_16Blake2b256HasherNtCs28dPLZ3Px34_6digest6Update6update
FNDA:0,_RNvXs7_NtNtCsfjV1l1xxmjd_15catalyst_voting6crypto4hashNtB5_16Blake2b256HasherNtCs18j5F5c4Pjf_13crypto_common14OutputSizeUser11output_size
FNDA:0,_RNvXs8_NtNtCsfjV1l1xxmjd_15catalyst_voting6crypto4hashNtB5_16Blake2b256HasherNtCs28dPLZ3Px34_6digest11FixedOutput13finalize_into
FNDA:0,_RNvXs_NtNtCsfjV1l1xxmjd_15catalyst_voting6crypto4hashNtB4_16Blake2b512HasherNtNtCs66KPHxksi63_4core7default7Default7default
FNDA:206,_RNvMNtNtCs81fg4i8wncb_15catalyst_voting6crypto4hashNtB2_16Blake2b512Hasher3new
FNDA:0,_RNvMs4_NtNtCs81fg4i8wncb_15catalyst_voting6crypto4hashNtB5_16Blake2b256Hasher3new
FNDA:4036,_RNvXs0_NtNtCs81fg4i8wncb_15catalyst_voting6crypto4hashNtB5_16Blake2b512HasherNtCs28dPLZ3Px34_6digest6Update6update
FNDA:206,_RNvXs1_NtNtCs81fg4i8wncb_15catalyst_voting6crypto4hashNtB5_16Blake2b512HasherNtCs18j5F5c4Pjf_13crypto_common14OutputSizeUser11output_size
FNDA:406,_RNvXs2_NtNtCs81fg4i8wncb_15catalyst_voting6crypto4hashNtB5_16Blake2b512HasherNtCs28dPLZ3Px34_6digest11FixedOutput13finalize_into
FNDA:0,_RNvXs5_NtNtCs81fg4i8wncb_15catalyst_voting6crypto4hashNtB5_16Blake2b256HasherNtNtCs66KPHxksi63_4core7default7Default7default
FNDA:0,_RNvXs6_NtNtCs81fg4i8wncb_15catalyst_voting6crypto4hashNtB5_16Blake2b256HasherNtCs28dPLZ3Px34_6digest6Update6update
FNDA:0,_RNvXs7_NtNtCs81fg4i8wncb_15catalyst_voting6crypto4hashNtB5_16Blake2b256HasherNtCs18j5F5c4Pjf_13crypto_common14OutputSizeUser11output_size
FNDA:0,_RNvXs8_NtNtCs81fg4i8wncb_15catalyst_voting6crypto4hashNtB5_16Blake2b256HasherNtCs28dPLZ3Px34_6digest11FixedOutput13finalize_into
FNDA:0,_RNvXs_NtNtCs81fg4i8wncb_15catalyst_voting6crypto4hashNtB4_16Blake2b512HasherNtNtCs66KPHxksi63_4core7default7Default7default
FNF:10
FNH:4
DA:17,326
DA:18,326
DA:19,326
DA:20,326
DA:21,326
DA:22,326
DA:23,326
DA:29,0
DA:30,0
DA:31,0
DA:35,5558
DA:36,5558
DA:37,5558
DA:38,5558
DA:39,5558
DA:40,5558
DA:46,326
DA:47,326
DA:48,326
DA:52,566
DA:53,566
DA:54,566
DA:55,566
DA:56,566
DA:57,566
DA:58,566
DA:70,0
DA:71,0
DA:72,0
DA:73,0
DA:74,0
DA:75,0
DA:76,0
DA:82,0
DA:83,0
DA:84,0
DA:88,0
DA:89,0
DA:90,0
DA:91,0
DA:92,0
DA:93,0
DA:99,0
DA:100,0
DA:101,0
DA:105,0
DA:106,0
DA:107,0
DA:108,0
DA:109,0
DA:110,0
DA:111,0
BRF:0
BRH:0
LF:52
LH:23
end_of_record
SF:/root/build/catalyst-voting/src/crypto/rng.rs
FN:12,_RNvNtNtCsfjV1l1xxmjd_15catalyst_voting6crypto3rng11default_rng
FN:12,_RNvNtNtCs81fg4i8wncb_15catalyst_voting6crypto3rng11default_rng
FNDA:0,_RNvNtNtCsfjV1l1xxmjd_15catalyst_voting6crypto3rng11default_rng
FNDA:205,_RNvNtNtCs81fg4i8wncb_15catalyst_voting6crypto3rng11default_rng
FNF:1
FNH:1
DA:12,205
DA:13,205
DA:14,205
BRF:0
BRH:0
LF:3
LH:3
end_of_record
SF:/root/build/catalyst-voting/src/crypto/zk_dl_equality.rs
FN:44,_RNvNtNtCsfjV1l1xxmjd_15catalyst_voting6crypto14zk_dl_equality17verify_dleq_proof
FN:60,_RNvNtNtCsfjV1l1xxmjd_15catalyst_voting6crypto14zk_dl_equality19calculate_challenge
FN:25,_RNvNtNtCsfjV1l1xxmjd_15catalyst_voting6crypto14zk_dl_equality19generate_dleq_proof
FN:44,_RNvNtNtCs81fg4i8wncb_15catalyst_voting6crypto14zk_dl_equality17verify_dleq_proof
FN:60,_RNvNtNtCs81fg4i8wncb_15catalyst_voting6crypto14zk_dl_equality19calculate_challenge
FN:25,_RNvNtNtCs81fg4i8wncb_15catalyst_voting6crypto14zk_dl_equality19generate_dleq_proof
FNDA:40,_RNvNtNtCsfjV1l1xxmjd_15catalyst_voting6crypto14zk_dl_equality17verify_dleq_proof
FNDA:80,_RNvNtNtCsfjV1l1xxmjd_15catalyst_voting6crypto14zk_dl_equality19calculate_challenge
FNDA:40,_RNvNtNtCsfjV1l1xxmjd_15catalyst_voting6crypto14zk_dl_equality19generate_dleq_proof
FNDA:3,_RNvNtNtCs81fg4i8wncb_15catalyst_voting6crypto14zk_dl_equality17verify_dleq_proof
FNDA:6,_RNvNtNtCs81fg4i8wncb_15catalyst_voting6crypto14zk_dl_equality19calculate_challenge
FNDA:3,_RNvNtNtCs81fg4i8wncb_15catalyst_voting6crypto14zk_dl_equality19generate_dleq_proof
FNF:3
FNH:3
DA:25,43
DA:26,43
DA:27,43
DA:28,43
DA:29,43
DA:30,43
DA:31,43
DA:32,43
DA:33,43
DA:34,43
DA:36,43
DA:37,43
DA:39,43
DA:40,43
DA:44,43
DA:45,43
DA:46,43
DA:47,43
DA:48,43
DA:49,43
DA:50,43
DA:51,43
DA:52,43
DA:54,43
DA:55,43
DA:56,43
DA:60,86
DA:61,86
DA:62,86
DA:63,86
DA:64,86
DA:65,86
DA:66,86
DA:67,86
DA:68,86
DA:69,86
DA:70,86
DA:71,86
DA:72,86
DA:73,86
DA:74,86
DA:76,86
DA:77,86
BRF:0
BRH:0
LF:43
LH:43
end_of_record
SF:/root/build/catalyst-voting/src/crypto/zk_unit_vector/challenges.rs
FN:11,_RNvNtNtNtCsfjV1l1xxmjd_15catalyst_voting6crypto14zk_unit_vector10challenges30calculate_first_challenge_hash
FN:33,_RNvNtNtNtCsfjV1l1xxmjd_15catalyst_voting6crypto14zk_unit_vector10challenges31calculate_second_challenge_hash
FN:11,_RNvNtNtNtCs81fg4i8wncb_15catalyst_voting6crypto14zk_unit_vector10challenges30calculate_first_challenge_hash
FN:33,_RNvNtNtNtCs81fg4i8wncb_15catalyst_voting6crypto14zk_unit_vector10challenges31calculate_second_challenge_hash
FNDA:40,_RNvNtNtNtCsfjV1l1xxmjd_15catalyst_voting6crypto14zk_unit_vector10challenges30calculate_first_challenge_hash
FNDA:40,_RNvNtNtNtCsfjV1l1xxmjd_15catalyst_voting6crypto14zk_unit_vector10challenges31calculate_second_challenge_hash
FNDA:200,_RNvNtNtNtCs81fg4i8wncb_15catalyst_voting6crypto14zk_unit_vector10challenges30calculate_first_challenge_hash
FNDA:200,_RNvNtNtNtCs81fg4i8wncb_15catalyst_voting6crypto14zk_unit_vector10challenges31calculate_second_challenge_hash
FNF:2
FNH:2
DA:11,240
DA:12,240
DA:13,240
DA:14,240
DA:15,240
DA:16,240
DA:17,240
DA:18,240
DA:19,240
DA:20,1296
DA:21,1056
DA:22,1056
DA:23,1056
DA:24,730
DA:25,490
DA:26,490
DA:27,490
DA:28,490
DA:29,240
DA:30,240
DA:33,240
DA:34,240
DA:35,240
DA:36,240
DA:37,730
DA:38,490
DA:39,490
DA:40,490
DA:41,240
DA:42,240
BRF:0
BRH:0
LF:30
LH:30
end_of_record
SF:/root/build/catalyst-voting/src/crypto/zk_unit_vector/decoding.rs
FN:26,_RINvMNtNtNtCsfjV1l1xxmjd_15catalyst_voting6crypto14zk_unit_vector8decodingNtB5_15UnitVectorProof10from_bytesRShEB9_
FN:66,_RNCINvMNtNtNtCsfjV1l1xxmjd_15catalyst_voting6crypto14zk_unit_vector8decodingNtB7_15UnitVectorProof10from_bytesRShEs1_0Bb_
FN:85,_RNCNvMNtNtNtCsfjV1l1xxmjd_15catalyst_voting6crypto14zk_unit_vector8decodingNtB6_15UnitVectorProof8to_bytes0Ba_
FN:91,_RNCNvMNtNtNtCsfjV1l1xxmjd_15catalyst_voting6crypto14zk_unit_vector8decodingNtB6_15UnitVectorProof8to_bytess0_0Ba_
FN:88,_RNCNvMNtNtNtCsfjV1l1xxmjd_15catalyst_voting6crypto14zk_unit_vector8decodingNtB6_15UnitVectorProof8to_bytess_0Ba_
FN:81,_RNvMNtNtNtCsfjV1l1xxmjd_15catalyst_voting6crypto14zk_unit_vector8decodingNtB4_15UnitVectorProof8to_bytes
FN:31,_RNCINvMNtNtNtCsfjV1l1xxmjd_15catalyst_voting6crypto14zk_unit_vector8decodingNtB7_15UnitVectorProof10from_bytesRShE0Bb_
FN:53,_RNCINvMNtNtNtCsfjV1l1xxmjd_15catalyst_voting6crypto14zk_unit_vector8decodingNtB7_15UnitVectorProof10from_bytesRShEs0_0Bb_
FN:42,_RNCINvMNtNtNtCsfjV1l1xxmjd_15catalyst_voting6crypto14zk_unit_vector8decodingNtB7_15UnitVectorProof10from_bytesRShEs_0Bb_
FN:33,_RNCNCINvMNtNtNtCsfjV1l1xxmjd_15catalyst_voting6crypto14zk_unit_vector8decodingNtB9_15UnitVectorProof10from_bytesRShE00Bd_
FN:55,_RNCNCINvMNtNtNtCsfjV1l1xxmjd_15catalyst_voting6crypto14zk_unit_vector8decodingNtB9_15UnitVectorProof10from_bytesRShEs0_00Bd_
FN:44,_RNCNCINvMNtNtNtCsfjV1l1xxmjd_15catalyst_voting6crypto14zk_unit_vector8decodingNtB9_15UnitVectorProof10from_bytesRShEs_00Bd_
FN:15,_RNvMNtNtNtCsfjV1l1xxmjd_15catalyst_voting6crypto14zk_unit_vector8decodingNtB4_15UnitVectorProof4size
FN:72,_RNvMNtNtNtCsfjV1l1xxmjd_15catalyst_voting6crypto14zk_unit_vector8decodingNtB4_15UnitVectorProof10bytes_size
FN:138,_RNCNvMs0_NtNtNtCsfjV1l1xxmjd_15catalyst_voting6crypto14zk_unit_vector8decodingNtNtB9_24randomness_announcements18ResponseRandomness10from_bytes0Bd_
FN:142,_RNCNvMs0_NtNtNtCsfjV1l1xxmjd_15catalyst_voting6crypto14zk_unit_vector8decodingNtNtB9_24randomness_announcements18ResponseRandomness10from_bytess0_0Bd_
FN:140,_RNCNvMs0_NtNtNtCsfjV1l1xxmjd_15catalyst_voting6crypto14zk_unit_vector8decodingNtNtB9_24randomness_announcements18ResponseRandomness10from_bytess_0Bd_
FN:108,_RNCNvMs_NtNtNtCsfjV1l1xxmjd_15catalyst_voting6crypto14zk_unit_vector8decodingNtNtB8_24randomness_announcements12Announcement10from_bytes0Bc_
FN:112,_RNCNvMs_NtNtNtCsfjV1l1xxmjd_15catalyst_voting6crypto14zk_unit_vector8decodingNtNtB8_24randomness_announcements12Announcement10from_bytess0_0Bc_
FN:110,_RNCNvMs_NtNtNtCsfjV1l1xxmjd_15catalyst_voting6crypto14zk_unit_vector8decodingNtNtB8_24randomness_announcements12Announcement10from_bytess_0Bc_
FN:136,_RNvMs0_NtNtNtCsfjV1l1xxmjd_15catalyst_voting6crypto14zk_unit_vector8decodingNtNtB7_24randomness_announcements18ResponseRandomness10from_bytes
FN:148,_RNvMs0_NtNtNtCsfjV1l1xxmjd_15catalyst_voting6crypto14zk_unit_vector8decodingNtNtB7_24randomness_announcements18ResponseRandomness8to_bytes
FN:106,_RNvMs_NtNtNtCsfjV1l1xxmjd_15catalyst_voting6crypto14zk_unit_vector8decodingNtNtB6_24randomness_announcements12Announcement10from_bytes
FN:118,_RNvMs_NtNtNtCsfjV1l1xxmjd_15catalyst_voting6crypto14zk_unit_vector8decodingNtNtB6_24randomness_announcements12Announcement8to_bytes
FN:85,_RNCNvMNtNtNtCs81fg4i8wncb_15catalyst_voting6crypto14zk_unit_vector8decodingNtB6_15UnitVectorProof8to_bytes0Ba_
FN:91,_RNCNvMNtNtNtCs81fg4i8wncb_15catalyst_voting6crypto14zk_unit_vector8decodingNtB6_15UnitVectorProof8to_bytess0_0Ba_
FN:88,_RNCNvMNtNtNtCs81fg4i8wncb_15catalyst_voting6crypto14zk_unit_vector8decodingNtB6_15UnitVectorProof8to_bytess_0Ba_
FN:72,_RNvMNtNtNtCs81fg4i8wncb_15catalyst_voting6crypto14zk_unit_vector8decodingNtB4_15UnitVectorProof10bytes_size
FN:81,_RNvMNtNtNtCs81fg4i8wncb_15catalyst_voting6crypto14zk_unit_vector8decodingNtB4_15UnitVectorProof8to_bytes
FN:138,_RNCNvMs0_NtNtNtCs81fg4i8wncb_15catalyst_voting6crypto14zk_unit_vector8decodingNtNtB9_24randomness_announcements18ResponseRandomness10from_bytes0Bd_
FN:142,_RNCNvMs0_NtNtNtCs81fg4i8wncb_15catalyst_voting6crypto14zk_unit_vector8decodingNtNtB9_24randomness_announcements18ResponseRandomness10from_bytess0_0Bd_
FN:140,_RNCNvMs0_NtNtNtCs81fg4i8wncb_15catalyst_voting6crypto14zk_unit_vector8decodingNtNtB9_24randomness_announcements18ResponseRandomness10from_bytess_0Bd_
FN:108,_RNCNvMs_NtNtNtCs81fg4i8wncb_15catalyst_voting6crypto14zk_unit_vector8decodingNtNtB8_24randomness_announcements12Announcement10from_bytes0Bc_
FN:112,_RNCNvMs_NtNtNtCs81fg4i8wncb_15catalyst_voting6crypto14zk_unit_vector8decodingNtNtB8_24randomness_announcements12Announcement10from_bytess0_0Bc_
FN:110,_RNCNvMs_NtNtNtCs81fg4i8wncb_15catalyst_voting6crypto14zk_unit_vector8decodingNtNtB8_24randomness_announcements12Announcement10from_bytess_0Bc_
FN:136,_RNvMs0_NtNtNtCs81fg4i8wncb_15catalyst_voting6crypto14zk_unit_vector8decodingNtNtB7_24randomness_announcements18ResponseRandomness10from_bytes
FN:148,_RNvMs0_NtNtNtCs81fg4i8wncb_15catalyst_voting6crypto14zk_unit_vector8decodingNtNtB7_24randomness_announcements18ResponseRandomness8to_bytes
FN:106,_RNvMs_NtNtNtCs81fg4i8wncb_15catalyst_voting6crypto14zk_unit_vector8decodingNtNtB6_24randomness_announcements12Announcement10from_bytes
FN:118,_RNvMs_NtNtNtCs81fg4i8wncb_15catalyst_voting6crypto14zk_unit_vector8decodingNtNtB6_24randomness_announcements12Announcement8to_bytes
FN:26,_RINvMNtNtNtCs81fg4i8wncb_15catalyst_voting6crypto14zk_unit_vector8decodingNtB5_15UnitVectorProof10from_bytespEB9_
FN:31,_RNCINvMNtNtNtCs81fg4i8wncb_15catalyst_voting6crypto14zk_unit_vector8decodingNtB7_15UnitVectorProof10from_bytespE0Bb_
FN:53,_RNCINvMNtNtNtCs81fg4i8wncb_15catalyst_voting6crypto14zk_unit_vector8decodingNtB7_15UnitVectorProof10from_bytespEs0_0Bb_
FN:66,_RNCINvMNtNtNtCs81fg4i8wncb_15catalyst_voting6crypto14zk_unit_vector8decodingNtB7_15UnitVectorProof10from_bytespEs1_0Bb_
FN:42,_RNCINvMNtNtNtCs81fg4i8wncb_15catalyst_voting6crypto14zk_unit_vector8decodingNtB7_15UnitVectorProof10from_bytespEs_0Bb_
FN:33,_RNCNCINvMNtNtNtCs81fg4i8wncb_15catalyst_voting6crypto14zk_unit_vector8decodingNtB9_15UnitVectorProof10from_bytespE00Bd_
FN:55,_RNCNCINvMNtNtNtCs81fg4i8wncb_15catalyst_voting6crypto14zk_unit_vector8decodingNtB9_15UnitVectorProof10from_bytespEs0_00Bd_
FN:44,_RNCNCINvMNtNtNtCs81fg4i8wncb_15catalyst_voting6crypto14zk_unit_vector8decodingNtB9_15UnitVectorProof10from_bytespEs_00Bd_
FN:15,_RNvMNtNtNtCs81fg4i8wncb_15catalyst_voting6crypto14zk_unit_vector8decodingNtB4_15UnitVectorProof4size
FNDA:256,_RINvMNtNtNtCsfjV1l1xxmjd_15catalyst_voting6crypto14zk_unit_vector8decodingNtB5_15UnitVectorProof10from_bytesRShEB9_
FNDA:0,_RNCINvMNtNtNtCsfjV1l1xxmjd_15catalyst_voting6crypto14zk_unit_vector8decodingNtB7_15UnitVectorProof10from_bytesRShEs1_0Bb_
FNDA:517,_RNCNvMNtNtNtCsfjV1l1xxmjd_15catalyst_voting6crypto14zk_unit_vector8decodingNtB6_15UnitVectorProof8to_bytes0Ba_
FNDA:517,_RNCNvMNtNtNtCsfjV1l1xxmjd_15catalyst_voting6crypto14zk_unit_vector8decodingNtB6_15UnitVectorProof8to_bytess0_0Ba_
FNDA:517,_RNCNvMNtNtNtCsfjV1l1xxmjd_15catalyst_voting6crypto14zk_unit_vector8decodingNtB6_15UnitVectorProof8to_bytess_0Ba_
FNDA:256,_RNvMNtNtNtCsfjV1l1xxmjd_15catalyst_voting6crypto14zk_unit_vector8decodingNtB4_15UnitVectorProof8to_bytes
FNDA:517,_RNCINvMNtNtNtCsfjV1l1xxmjd_15catalyst_voting6crypto14zk_unit_vector8decodingNtB7_15UnitVectorProof10from_bytesRShE0Bb_
FNDA:517,_RNCINvMNtNtNtCsfjV1l1xxmjd_15catalyst_voting6crypto14zk_unit_vector8decodingNtB7_15UnitVectorProof10from_bytesRShEs0_0Bb_
FNDA:517,_RNCINvMNtNtNtCsfjV1l1xxmjd_15catalyst_voting6crypto14zk_unit_vector8decodingNtB7_15UnitVectorProof10from_bytesRShEs_0Bb_
FNDA:0,_RNCNCINvMNtNtNtCsfjV1l1xxmjd_15catalyst_voting6crypto14zk_unit_vector8decodingNtB9_15UnitVectorProof10from_bytesRShE00Bd_
FNDA:0,_RNCNCINvMNtNtNtCsfjV1l1xxmjd_15catalyst_voting6crypto14zk_unit_vector8decodingNtB9_15UnitVectorProof10from_bytesRShEs0_00Bd_
FNDA:0,_RNCNCINvMNtNtNtCsfjV1l1xxmjd_15catalyst_voting6crypto14zk_unit_vector8decodingNtB9_15UnitVectorProof10from_bytesRShEs_00Bd_
FNDA:256,_RNvMNtNtNtCsfjV1l1xxmjd_15catalyst_voting6crypto14zk_unit_vector8decodingNtB4_15UnitVectorProof4size
FNDA:512,_RNvMNtNtNtCsfjV1l1xxmjd_15catalyst_voting6crypto14zk_unit_vector8decodingNtB4_15UnitVectorProof10bytes_size
FNDA:0,_RNCNvMs0_NtNtNtCsfjV1l1xxmjd_15catalyst_voting6crypto14zk_unit_vector8decodingNtNtB9_24randomness_announcements18ResponseRandomness10from_bytes0Bd_
FNDA:0,_RNCNvMs0_NtNtNtCsfjV1l1xxmjd_15catalyst_voting6crypto14zk_unit_vector8decodingNtNtB9_24randomness_announcements18ResponseRandomness10from_bytess0_0Bd_
FNDA:0,_RNCNvMs0_NtNtNtCsfjV1l1xxmjd_15catalyst_voting6crypto14zk_unit_vector8decodingNtNtB9_24randomness_announcements18ResponseRandomness10from_bytess_0Bd_
FNDA:0,_RNCNvMs_NtNtNtCsfjV1l1xxmjd_15catalyst_voting6crypto14zk_unit_vector8decodingNtNtB8_24randomness_announcements12Announcement10from_bytes0Bc_
FNDA:0,_RNCNvMs_NtNtNtCsfjV1l1xxmjd_15catalyst_voting6crypto14zk_unit_vector8decodingNtNtB8_24randomness_announcements12Announcement10from_bytess0_0Bc_
FNDA:0,_RNCNvMs_NtNtNtCsfjV1l1xxmjd_15catalyst_voting6crypto14zk_unit_vector8decodingNtNtB8_24randomness_announcements12Announcement10from_bytess_0Bc_
FNDA:773,_RNvMs0_NtNtNtCsfjV1l1xxmjd_15catalyst_voting6crypto14zk_unit_vector8decodingNtNtB7_24randomness_announcements18ResponseRandomness10from_bytes
FNDA:773,_RNvMs0_NtNtNtCsfjV1l1xxmjd_15catalyst_voting6crypto14zk_unit_vector8decodingNtNtB7_24randomness_announcements18ResponseRandomness8to_bytes
FNDA:773,_RNvMs_NtNtNtCsfjV1l1xxmjd_15catalyst_voting6crypto14zk_unit_vector8decodingNtNtB6_24randomness_announcements12Announcement10from_bytes
FNDA:773,_RNvMs_NtNtNtCsfjV1l1xxmjd_15catalyst_voting6crypto14zk_unit_vector8decodingNtNtB6_24randomness_announcements12Announcement8to_bytes
FNDA:0,_RNCNvMNtNtNtCs81fg4i8wncb_15catalyst_voting6crypto14zk_unit_vector8decodingNtB6_15UnitVectorProof8to_bytes0Ba_
FNDA:0,_RNCNvMNtNtNtCs81fg4i8wncb_15catalyst_voting6crypto14zk_unit_vector8decodingNtB6_15UnitVectorProof8to_bytess0_0Ba_
FNDA:0,_RNCNvMNtNtNtCs81fg4i8wncb_15catalyst_voting6crypto14zk_unit_vector8decodingNtB6_15UnitVectorProof8to_bytess_0Ba_
FNDA:0,_RNvMNtNtNtCs81fg4i8wncb_15catalyst_voting6crypto14zk_unit_vector8decodingNtB4_15UnitVectorProof10bytes_size
FNDA:0,_RNvMNtNtNtCs81fg4i8wncb_15catalyst_voting6crypto14zk_unit_vector8decodingNtB4_15UnitVectorProof8to_bytes
FNDA:0,_RNCNvMs0_NtNtNtCs81fg4i8wncb_15catalyst_voting6crypto14zk_unit_vector8decodingNtNtB9_24randomness_announcements18ResponseRandomness10from_bytes0Bd_
FNDA:0,_RNCNvMs0_NtNtNtCs81fg4i8wncb_15catalyst_voting6crypto14zk_unit_vector8decodingNtNtB9_24randomness_announcements18ResponseRandomness10from_bytess0_0Bd_
FNDA:0,_RNCNvMs0_NtNtNtCs81fg4i8wncb_15catalyst_voting6crypto14zk_unit_vector8decodingNtNtB9_24randomness_announcements18ResponseRandomness10from_bytess_0Bd_
FNDA:0,_RNCNvMs_NtNtNtCs81fg4i8wncb_15catalyst_voting6crypto14zk_unit_vector8decodingNtNtB8_24randomness_announcements12Announcement10from_bytes0Bc_
FNDA:0,_RNCNvMs_NtNtNtCs81fg4i8wncb_15catalyst_voting6crypto14zk_unit_vector8decodingNtNtB8_24randomness_announcements12Announcement10from_bytess0_0Bc_
FNDA:0,_RNCNvMs_NtNtNtCs81fg4i8wncb_15catalyst_voting6crypto14zk_unit_vector8decodingNtNtB8_24randomness_announcements12Announcement10from_bytess_0Bc_
FNDA:0,_RNvMs0_NtNtNtCs81fg4i8wncb_15catalyst_voting6crypto14zk_unit_vector8decodingNtNtB7_24randomness_announcements18ResponseRandomness10from_bytes
FNDA:0,_RNvMs0_NtNtNtCs81fg4i8wncb_15catalyst_voting6crypto14zk_unit_vector8decodingNtNtB7_24randomness_announcements18ResponseRandomness8to_bytes
FNDA:0,_RNvMs_NtNtNtCs81fg4i8wncb_15catalyst_voting6crypto14zk_unit_vector8decodingNtNtB6_24randomness_announcements12Announcement10from_bytes
FNDA:0,_RNvMs_NtNtNtCs81fg4i8wncb_15catalyst_voting6crypto14zk_unit_vector8decodingNtNtB6_24randomness_announcements12Announcement8to_bytes
FNDA:0,_RINvMNtNtNtCs81fg4i8wncb_15catalyst_voting6crypto14zk_unit_vector8decodingNtB5_15UnitVectorProof10from_bytespEB9_
FNDA:0,_RNCINvMNtNtNtCs81fg4i8wncb_15catalyst_voting6crypto14zk_unit_vector8decodingNtB7_15UnitVectorProof10from_bytespE0Bb_
FNDA:0,_RNCINvMNtNtNtCs81fg4i8wncb_15catalyst_voting6crypto14zk_unit_vector8decodingNtB7_15UnitVectorProof10from_bytespEs0_0Bb_
FNDA:0,_RNCINvMNtNtNtCs81fg4i8wncb_15catalyst_voting6crypto14zk_unit_vector8decodingNtB7_15UnitVectorProof10from_bytespEs1_0Bb_
FNDA:0,_RNCINvMNtNtNtCs81fg4i8wncb_15catalyst_voting6crypto14zk_unit_vector8decodingNtB7_15UnitVectorProof10from_bytespEs_0Bb_
FNDA:0,_RNCNCINvMNtNtNtCs81fg4i8wncb_15catalyst_voting6crypto14zk_unit_vector8decodingNtB9_15UnitVectorProof10from_bytespE00Bd_
FNDA:0,_RNCNCINvMNtNtNtCs81fg4i8wncb_15catalyst_voting6crypto14zk_unit_vector8decodingNtB9_15UnitVectorProof10from_bytespEs0_00Bd_
FNDA:0,_RNCNCINvMNtNtNtCs81fg4i8wncb_15catalyst_voting6crypto14zk_unit_vector8decodingNtB9_15UnitVectorProof10from_bytespEs_00Bd_
FNDA:0,_RNvMNtNtNtCs81fg4i8wncb_15catalyst_voting6crypto14zk_unit_vector8decodingNtB4_15UnitVectorProof4size
FNF:24
FNH:14
DA:15,256
DA:16,256
DA:17,256
DA:26,256
DA:27,256
DA:28,256
DA:29,256
DA:30,256
DA:31,517
DA:32,517
DA:33,517
DA:34,0
DA:35,0
DA:36,0
DA:38,0
DA:39,517
DA:40,256
DA:41,256
DA:42,517
DA:43,517
DA:44,517
DA:45,0
DA:46,0
DA:47,0
DA:49,0
DA:50,517
DA:51,256
DA:52,256
DA:53,517
DA:54,517
DA:55,517
DA:56,0
DA:57,0
DA:58,0
DA:60,0
DA:61,517
DA:62,256
DA:64,256
DA:65,256
DA:66,256
DA:67,256
DA:68,256
DA:72,512
DA:73,512
DA:74,512
DA:75,512
DA:76,512
DA:77,512
DA:81,256
DA:82,256
DA:83,256
DA:84,256
DA:85,517
DA:86,256
DA:87,256
DA:88,517
DA:89,256
DA:90,256
DA:91,517
DA:92,256
DA:93,256
DA:94,256
DA:106,773
DA:107,773
DA:108,773
DA:109,773
DA:110,773
DA:111,773
DA:112,773
DA:113,773
DA:114,773
DA:118,773
DA:119,773
DA:120,773
DA:121,773
DA:122,773
DA:123,773
DA:124,773
DA:136,773
DA:137,773
DA:138,773
DA:139,773
DA:140,773
DA:141,773
DA:142,773
DA:143,773
DA:144,773
DA:148,773
DA:149,773
DA:150,773
DA:151,773
DA:152,773
DA:153,773
DA:154,773
BRF:0
BRH:0
LF:110
LH:88
end_of_record
SF:/root/build/catalyst-voting/src/crypto/zk_unit_vector/mod.rs
FN:277,_RNCNvXNtNtNtCsfjV1l1xxmjd_15catalyst_voting6crypto14zk_unit_vector14arbitrary_implNtB6_15UnitVectorProofNtNtNtCs4HkuHzaL277_8proptest9arbitrary6traits9Arbitrary14arbitrary_with0Ba_
FN:111,_RINvNtNtCsfjV1l1xxmjd_15catalyst_voting6crypto14zk_unit_vector18generate_dl_and_rlNtNtCskjfZgJdX2ug_9rand_core2os5OsRngEB6_
FN:48,_RINvNtNtCsfjV1l1xxmjd_15catalyst_voting6crypto14zk_unit_vector26generate_unit_vector_proofNtNtCskjfZgJdX2ug_9rand_core2os5OsRngEB6_
FN:123,_RNCINvNtNtCsfjV1l1xxmjd_15catalyst_voting6crypto14zk_unit_vector18generate_dl_and_rlNtNtCskjfZgJdX2ug_9rand_core2os5OsRngEs_0B8_
FN:58,_RNCINvNtNtCsfjV1l1xxmjd_15catalyst_voting6crypto14zk_unit_vector26generate_unit_vector_proofNtNtCskjfZgJdX2ug_9rand_core2os5OsRngE0B8_
FN:76,_RNCINvNtNtCsfjV1l1xxmjd_15catalyst_voting6crypto14zk_unit_vector26generate_unit_vector_proofNtNtCskjfZgJdX2ug_9rand_core2os5OsRngEs0_0B8_
FN:127,_RNCNCINvNtNtCsfjV1l1xxmjd_15catalyst_voting6crypto14zk_unit_vector18generate_dl_and_rlNtNtCskjfZgJdX2ug_9rand_core2os5OsRngEs_00Ba_
FN:149,_RNCNvNtNtCsfjV1l1xxmjd_15catalyst_voting6crypto14zk_unit_vector17generate_response0B7_
FN:163,_RNCNvNtNtCsfjV1l1xxmjd_15catalyst_voting6crypto14zk_unit_vector17generate_responses0_0B7_
FN:154,_RNCNvNtNtCsfjV1l1xxmjd_15catalyst_voting6crypto14zk_unit_vector17generate_responses_0B7_
FN:204,_RNCNvNtNtCsfjV1l1xxmjd_15catalyst_voting6crypto14zk_unit_vector7check_10B7_
FN:231,_RNCNvNtNtCsfjV1l1xxmjd_15catalyst_voting6crypto14zk_unit_vector7check_20B7_
FN:244,_RNCNvNtNtCsfjV1l1xxmjd_15catalyst_voting6crypto14zk_unit_vector7check_2s1_0B7_
FN:249,_RNCNvNtNtCsfjV1l1xxmjd_15catalyst_voting6crypto14zk_unit_vector7check_2s2_0B7_
FN:141,_RNvNtNtCsfjV1l1xxmjd_15catalyst_voting6crypto14zk_unit_vector17generate_response
FN:174,_RNvNtNtCsfjV1l1xxmjd_15catalyst_voting6crypto14zk_unit_vector24verify_unit_vector_proof
FN:199,_RNvNtNtCsfjV1l1xxmjd_15catalyst_voting6crypto14zk_unit_vector7check_1
FN:218,_RNvNtNtCsfjV1l1xxmjd_15catalyst_voting6crypto14zk_unit_vector7check_2
FN:272,_RNvXNtNtNtCsfjV1l1xxmjd_15catalyst_voting6crypto14zk_unit_vector14arbitrary_implNtB4_15UnitVectorProofNtNtNtCs4HkuHzaL277_8proptest9arbitrary6traits9Arbitrary14arbitrary_with
FN:118,_RNCINvNtNtCsfjV1l1xxmjd_15catalyst_voting6crypto14zk_unit_vector18generate_dl_and_rlNtNtCskjfZgJdX2ug_9rand_core2os5OsRngE0B8_
FN:87,_RNCINvNtNtCsfjV1l1xxmjd_15catalyst_voting6crypto14zk_unit_vector26generate_unit_vector_proofNtNtCskjfZgJdX2ug_9rand_core2os5OsRngEs1_0B8_
FN:98,_RNCINvNtNtCsfjV1l1xxmjd_15catalyst_voting6crypto14zk_unit_vector26generate_unit_vector_proofNtNtCskjfZgJdX2ug_9rand_core2os5OsRngEs2_0B8_
FN:70,_RNCINvNtNtCsfjV1l1xxmjd_15catalyst_voting6crypto14zk_unit_vector26generate_unit_vector_proofNtNtCskjfZgJdX2ug_9rand_core2os5OsRngEs_0B8_
FN:314,_RNCNCNvNtNtNtCsfjV1l1xxmjd_15catalyst_voting6crypto14zk_unit_vector5testss_19zk_unit_vector_tests_00Bb_
FN:333,_RNCNCNvNtNtNtCsfjV1l1xxmjd_15catalyst_voting6crypto14zk_unit_vector5testss_19zk_unit_vector_tests_0s0_0Bb_
FN:327,_RNCNCNvNtNtNtCsfjV1l1xxmjd_15catalyst_voting6crypto14zk_unit_vector5testss_19zk_unit_vector_tests_0s_0Bb_
FN:371,_RNCNCNvNtNtNtCsfjV1l1xxmjd_15catalyst_voting6crypto14zk_unit_vector5testss_22not_a_unit_vector_tests_00Bb_
FN:377,_RNCNCNvNtNtNtCsfjV1l1xxmjd_15catalyst_voting6crypto14zk_unit_vector5testss_22not_a_unit_vector_tests_0s_0Bb_
FN:240,_RNCNvNtNtCsfjV1l1xxmjd_15catalyst_voting6crypto14zk_unit_vector7check_2s0_0B7_
FN:239,_RNCNvNtNtCsfjV1l1xxmjd_15catalyst_voting6crypto14zk_unit_vector7check_2s_0B7_
FN:297,_RNCNvNtNtNtCsfjV1l1xxmjd_15catalyst_voting6crypto14zk_unit_vector5tests14is_unit_vector0B9_
FN:298,_RNCNvNtNtNtCsfjV1l1xxmjd_15catalyst_voting6crypto14zk_unit_vector5tests14is_unit_vectors_0B9_
FN:296,_RNvNtNtNtCsfjV1l1xxmjd_15catalyst_voting6crypto14zk_unit_vector5tests14is_unit_vector
FN:111,_RINvNtNtCs81fg4i8wncb_15catalyst_voting6crypto14zk_unit_vector18generate_dl_and_rlNtNtCsgOU7NZnRzZ4_11rand_chacha6chacha10ChaCha8RngEB6_
FN:48,_RINvNtNtCs81fg4i8wncb_15catalyst_voting6crypto14zk_unit_vector26generate_unit_vector_proofNtNtCsgOU7NZnRzZ4_11rand_chacha6chacha10ChaCha8RngEB6_
FN:123,_RNCINvNtNtCs81fg4i8wncb_15catalyst_voting6crypto14zk_unit_vector18generate_dl_and_rlNtNtCsgOU7NZnRzZ4_11rand_chacha6chacha10ChaCha8RngEs_0B8_
FN:58,_RNCINvNtNtCs81fg4i8wncb_15catalyst_voting6crypto14zk_unit_vector26generate_unit_vector_proofNtNtCsgOU7NZnRzZ4_11rand_chacha6chacha10ChaCha8RngE0B8_
FN:76,_RNCINvNtNtCs81fg4i8wncb_15catalyst_voting6crypto14zk_unit_vector26generate_unit_vector_proofNtNtCsgOU7NZnRzZ4_11rand_chacha6chacha10ChaCha8RngEs0_0B8_
FN:127,_RNCNCINvNtNtCs81fg4i8wncb_15catalyst_voting6crypto14zk_unit_vector18generate_dl_and_rlNtNtCsgOU7NZnRzZ4_11rand_chacha6chacha10ChaCha8RngEs_00Ba_
FN:149,_RNCNvNtNtCs81fg4i8wncb_15catalyst_voting6crypto14zk_unit_vector17generate_response0B7_
FN:163,_RNCNvNtNtCs81fg4i8wncb_15catalyst_voting6crypto14zk_unit_vector17generate_responses0_0B7_
FN:154,_RNCNvNtNtCs81fg4i8wncb_15catalyst_voting6crypto14zk_unit_vector17generate_responses_0B7_
FN:204,_RNCNvNtNtCs81fg4i8wncb_15catalyst_voting6crypto14zk_unit_vector7check_10B7_
FN:231,_RNCNvNtNtCs81fg4i8wncb_15catalyst_voting6crypto14zk_unit_vector7check_20B7_
FN:244,_RNCNvNtNtCs81fg4i8wncb_15catalyst_voting6crypto14zk_unit_vector7check_2s1_0B7_
FN:249,_RNCNvNtNtCs81fg4i8wncb_15catalyst_voting6crypto14zk_unit_vector7check_2s2_0B7_
FN:141,_RNvNtNtCs81fg4i8wncb_15catalyst_voting6crypto14zk_unit_vector17generate_response
FN:174,_RNvNtNtCs81fg4i8wncb_15catalyst_voting6crypto14zk_unit_vector24verify_unit_vector_proof
FN:199,_RNvNtNtCs81fg4i8wncb_15catalyst_voting6crypto14zk_unit_vector7check_1
FN:218,_RNvNtNtCs81fg4i8wncb_15catalyst_voting6crypto14zk_unit_vector7check_2
FN:118,_RNCINvNtNtCs81fg4i8wncb_15catalyst_voting6crypto14zk_unit_vector18generate_dl_and_rlNtNtCsgOU7NZnRzZ4_11rand_chacha6chacha10ChaCha8RngE0B8_
FN:87,_RNCINvNtNtCs81fg4i8wncb_15catalyst_voting6crypto14zk_unit_vector26generate_unit_vector_proofNtNtCsgOU7NZnRzZ4_11rand_chacha6chacha10ChaCha8RngEs1_0B8_
FN:98,_RNCINvNtNtCs81fg4i8wncb_15catalyst_voting6crypto14zk_unit_vector26generate_unit_vector_proofNtNtCsgOU7NZnRzZ4_11rand_chacha6chacha10ChaCha8RngEs2_0B8_
FN:70,_RNCINvNtNtCs81fg4i8wncb_15catalyst_voting6crypto14zk_unit_vector26generate_unit_vector_proofNtNtCsgOU7NZnRzZ4_11rand_chacha6chacha10ChaCha8RngEs_0B8_
FN:240,_RNCNvNtNtCs81fg4i8wncb_15catalyst_voting6crypto14zk_unit_vector7check_2s0_0B7_
FN:239,_RNCNvNtNtCs81fg4i8wncb_15catalyst_voting6crypto14zk_unit_vector7check_2s_0B7_
FNDA:256,_RNCNvXNtNtNtCsfjV1l1xxmjd_15catalyst_voting6crypto14zk_unit_vector14arbitrary_implNtB6_15UnitVectorProofNtNtNtCs4HkuHzaL277_8proptest9arbitrary6traits9Arbitrary14arbitrary_with0Ba_
FNDA:20,_RINvNtNtCsfjV1l1xxmjd_15catalyst_voting6crypto14zk_unit_vector18generate_dl_and_rlNtNtCskjfZgJdX2ug_9rand_core2os5OsRngEB6_
FNDA:20,_RINvNtNtCsfjV1l1xxmjd_15catalyst_voting6crypto14zk_unit_vector26generate_unit_vector_proofNtNtCskjfZgJdX2ug_9rand_core2os5OsRngEB6_
FNDA:45,_RNCINvNtNtCsfjV1l1xxmjd_15catalyst_voting6crypto14zk_unit_vector18generate_dl_and_rlNtNtCskjfZgJdX2ug_9rand_core2os5OsRngEs_0B8_
FNDA:44,_RNCINvNtNtCsfjV1l1xxmjd_15catalyst_voting6crypto14zk_unit_vector26generate_unit_vector_proofNtNtCskjfZgJdX2ug_9rand_core2os5OsRngE0B8_
FNDA:45,_RNCINvNtNtCsfjV1l1xxmjd_15catalyst_voting6crypto14zk_unit_vector26generate_unit_vector_proofNtNtCskjfZgJdX2ug_9rand_core2os5OsRngEs0_0B8_
FNDA:384,_RNCNCINvNtNtCsfjV1l1xxmjd_15catalyst_voting6crypto14zk_unit_vector18generate_dl_and_rlNtNtCskjfZgJdX2ug_9rand_core2os5OsRngEs_00Ba_
FNDA:45,_RNCNvNtNtCsfjV1l1xxmjd_15catalyst_voting6crypto14zk_unit_vector17generate_response0B7_
FNDA:45,_RNCNvNtNtCsfjV1l1xxmjd_15catalyst_voting6crypto14zk_unit_vector17generate_responses0_0B7_
FNDA:128,_RNCNvNtNtCsfjV1l1xxmjd_15catalyst_voting6crypto14zk_unit_vector17generate_responses_0B7_
FNDA:45,_RNCNvNtNtCsfjV1l1xxmjd_15catalyst_voting6crypto14zk_unit_vector7check_10B7_
FNDA:45,_RNCNvNtNtCsfjV1l1xxmjd_15catalyst_voting6crypto14zk_unit_vector7check_20B7_
FNDA:45,_RNCNvNtNtCsfjV1l1xxmjd_15catalyst_voting6crypto14zk_unit_vector7check_2s1_0B7_
FNDA:128,_RNCNvNtNtCsfjV1l1xxmjd_15catalyst_voting6crypto14zk_unit_vector7check_2s2_0B7_
FNDA:20,_RNvNtNtCsfjV1l1xxmjd_15catalyst_voting6crypto14zk_unit_vector17generate_response
FNDA:20,_RNvNtNtCsfjV1l1xxmjd_15catalyst_voting6crypto14zk_unit_vector24verify_unit_vector_proof
FNDA:20,_RNvNtNtCsfjV1l1xxmjd_15catalyst_voting6crypto14zk_unit_vector7check_1
FNDA:20,_RNvNtNtCsfjV1l1xxmjd_15catalyst_voting6crypto14zk_unit_vector7check_2
FNDA:256,_RNvXNtNtNtCsfjV1l1xxmjd_15catalyst_voting6crypto14zk_unit_vector14arbitrary_implNtB4_15UnitVectorProofNtNtNtCs4HkuHzaL277_8proptest9arbitrary6traits9Arbitrary14arbitrary_with
FNDA:45,_RNCINvNtNtCsfjV1l1xxmjd_15catalyst_voting6crypto14zk_unit_vector18generate_dl_and_rlNtNtCskjfZgJdX2ug_9rand_core2os5OsRngE0B8_
FNDA:128,_RNCINvNtNtCsfjV1l1xxmjd_15catalyst_voting6crypto14zk_unit_vector26generate_unit_vector_proofNtNtCskjfZgJdX2ug_9rand_core2os5OsRngEs1_0B8_
FNDA:45,_RNCINvNtNtCsfjV1l1xxmjd_15catalyst_voting6crypto14zk_unit_vector26generate_unit_vector_proofNtNtCskjfZgJdX2ug_9rand_core2os5OsRngEs2_0B8_
FNDA:45,_RNCINvNtNtCsfjV1l1xxmjd_15catalyst_voting6crypto14zk_unit_vector26generate_unit_vector_proofNtNtCskjfZgJdX2ug_9rand_core2os5OsRngEs_0B8_
FNDA:45,_RNCNCNvNtNtNtCsfjV1l1xxmjd_15catalyst_voting6crypto14zk_unit_vector5testss_19zk_unit_vector_tests_00Bb_
FNDA:45,_RNCNCNvNtNtNtCsfjV1l1xxmjd_15catalyst_voting6crypto14zk_unit_vector5testss_19zk_unit_vector_tests_0s0_0Bb_
FNDA:45,_RNCNCNvNtNtNtCsfjV1l1xxmjd_15catalyst_voting6crypto14zk_unit_vector5testss_19zk_unit_vector_tests_0s_0Bb_
FNDA:50,_RNCNCNvNtNtNtCsfjV1l1xxmjd_15catalyst_voting6crypto14zk_unit_vector5testss_22not_a_unit_vector_tests_00Bb_
FNDA:50,_RNCNCNvNtNtNtCsfjV1l1xxmjd_15catalyst_voting6crypto14zk_unit_vector5testss_22not_a_unit_vector_tests_0s_0Bb_
FNDA:128,_RNCNvNtNtCsfjV1l1xxmjd_15catalyst_voting6crypto14zk_unit_vector7check_2s0_0B7_
FNDA:128,_RNCNvNtNtCsfjV1l1xxmjd_15catalyst_voting6crypto14zk_unit_vector7check_2s_0B7_
FNDA:95,_RNCNvNtNtNtCsfjV1l1xxmjd_15catalyst_voting6crypto14zk_unit_vector5tests14is_unit_vector0B9_
FNDA:95,_RNCNvNtNtNtCsfjV1l1xxmjd_15catalyst_voting6crypto14zk_unit_vector5tests14is_unit_vectors_0B9_
FNDA:20,_RNvNtNtNtCsfjV1l1xxmjd_15catalyst_voting6crypto14zk_unit_vector5tests14is_unit_vector
FNDA:100,_RINvNtNtCs81fg4i8wncb_15catalyst_voting6crypto14zk_unit_vector18generate_dl_and_rlNtNtCsgOU7NZnRzZ4_11rand_chacha6chacha10ChaCha8RngEB6_
FNDA:100,_RINvNtNtCs81fg4i8wncb_15catalyst_voting6crypto14zk_unit_vector26generate_unit_vector_proofNtNtCsgOU7NZnRzZ4_11rand_chacha6chacha10ChaCha8RngEB6_
FNDA:200,_RNCINvNtNtCs81fg4i8wncb_15catalyst_voting6crypto14zk_unit_vector18generate_dl_and_rlNtNtCsgOU7NZnRzZ4_11rand_chacha6chacha10ChaCha8RngEs_0B8_
FNDA:179,_RNCINvNtNtCs81fg4i8wncb_15catalyst_voting6crypto14zk_unit_vector26generate_unit_vector_proofNtNtCsgOU7NZnRzZ4_11rand_chacha6chacha10ChaCha8RngE0B8_
FNDA:200,_RNCINvNtNtCs81fg4i8wncb_15catalyst_voting6crypto14zk_unit_vector26generate_unit_vector_proofNtNtCsgOU7NZnRzZ4_11rand_chacha6chacha10ChaCha8RngEs0_0B8_
FNDA:800,_RNCNCINvNtNtCs81fg4i8wncb_15catalyst_voting6crypto14zk_unit_vector18generate_dl_and_rlNtNtCsgOU7NZnRzZ4_11rand_chacha6chacha10ChaCha8RngEs_00Ba_
FNDA:200,_RNCNvNtNtCs81fg4i8wncb_15catalyst_voting6crypto14zk_unit_vector17generate_response0B7_
FNDA:200,_RNCNvNtNtCs81fg4i8wncb_15catalyst_voting6crypto14zk_unit_vector17generate_responses0_0B7_
FNDA:400,_RNCNvNtNtCs81fg4i8wncb_15catalyst_voting6crypto14zk_unit_vector17generate_responses_0B7_
FNDA:200,_RNCNvNtNtCs81fg4i8wncb_15catalyst_voting6crypto14zk_unit_vector7check_10B7_
FNDA:200,_RNCNvNtNtCs81fg4i8wncb_15catalyst_voting6crypto14zk_unit_vector7check_20B7_
FNDA:200,_RNCNvNtNtCs81fg4i8wncb_15catalyst_voting6crypto14zk_unit_vector7check_2s1_0B7_
FNDA:400,_RNCNvNtNtCs81fg4i8wncb_15catalyst_voting6crypto14zk_unit_vector7check_2s2_0B7_
FNDA:100,_RNvNtNtCs81fg4i8wncb_15catalyst_voting6crypto14zk_unit_vector17generate_response
FNDA:100,_RNvNtNtCs81fg4i8wncb_15catalyst_voting6crypto14zk_unit_vector24verify_unit_vector_proof
FNDA:100,_RNvNtNtCs81fg4i8wncb_15catalyst_voting6crypto14zk_unit_vector7check_1
FNDA:100,_RNvNtNtCs81fg4i8wncb_15catalyst_voting6crypto14zk_unit_vector7check_2
FNDA:200,_RNCINvNtNtCs81fg4i8wncb_15catalyst_voting6crypto14zk_unit_vector18generate_dl_and_rlNtNtCsgOU7NZnRzZ4_11rand_chacha6chacha10ChaCha8RngE0B8_
FNDA:400,_RNCINvNtNtCs81fg4i8wncb_15catalyst_voting6crypto14zk_unit_vector26generate_unit_vector_proofNtNtCsgOU7NZnRzZ4_11rand_chacha6chacha10ChaCha8RngEs1_0B8_
FNDA:200,_RNCINvNtNtCs81fg4i8wncb_15catalyst_voting6crypto14zk_unit_vector26generate_unit_vector_proofNtNtCsgOU7NZnRzZ4_11rand_chacha6chacha10ChaCha8RngEs2_0B8_
FNDA:200,_RNCINvNtNtCs81fg4i8wncb_15catalyst_voting6crypto14zk_unit_vector26generate_unit_vector_proofNtNtCsgOU7NZnRzZ4_11rand_chacha6chacha10ChaCha8RngEs_0B8_
FNDA:400,_RNCNvNtNtCs81fg4i8wncb_15catalyst_voting6crypto14zk_unit_vector7check_2s0_0B7_
FNDA:400,_RNCNvNtNtCs81fg4i8wncb_15catalyst_voting6crypto14zk_unit_vector7check_2s_0B7_
FNF:33
FNH:33
DA:48,120
DA:49,120
DA:50,120
DA:51,120
DA:52,120
DA:53,120
DA:54,120
DA:55,120
DA:56,120
DA:57,120
DA:58,223
DA:59,120
DA:61,120
DA:62,120
DA:64,120
DA:66,120
DA:67,120
DA:69,120
DA:70,245
DA:71,120
DA:73,120
DA:74,120
DA:75,120
DA:76,245
DA:77,245
DA:78,245
DA:79,245
DA:80,120
DA:82,120
DA:83,120
DA:84,120
DA:86,120
DA:87,528
DA:88,120
DA:90,120
DA:92,120
DA:93,120
DA:95,120
DA:96,120
DA:97,120
DA:98,245
DA:99,245
DA:100,245
DA:101,245
DA:102,120
DA:104,120
DA:106,120
DA:107,120
DA:111,120
DA:112,120
DA:113,120
DA:114,120
DA:115,120
DA:116,120
DA:117,120
DA:118,245
DA:120,120
DA:121,120
DA:122,120
DA:123,245
DA:124,245
DA:125,245
DA:127,1184
DA:128,1184
DA:129,1184
DA:130,1184
DA:131,1184
DA:133,245
DA:134,245
DA:135,120
DA:137,120
DA:138,120
DA:141,120
DA:142,120
DA:143,120
DA:144,120
DA:145,120
DA:146,120
DA:147,120
DA:149,245
DA:151,120
DA:152,120
DA:154,528
DA:155,528
DA:156,528
DA:157,528
DA:158,528
DA:160,120
DA:161,120
DA:163,245
DA:164,245
DA:165,245
DA:166,245
DA:167,245
DA:169,120
DA:170,120
DA:174,120
DA:175,120
DA:176,120
DA:177,120
DA:178,120
DA:179,120
DA:180,120
DA:181,120
DA:183,120
DA:185,120
DA:187,120
DA:188,120
DA:189,120
DA:191,120
DA:192,120
DA:194,120
DA:195,120
DA:196,120
DA:199,120
DA:200,120
DA:201,120
DA:202,120
DA:203,120
DA:204,245
DA:205,245
DA:206,245
DA:207,245
DA:209,245
DA:210,245
DA:211,245
DA:213,245
DA:214,245
DA:215,120
DA:218,120
DA:219,120
DA:220,120
DA:221,120
DA:222,120
DA:223,120
DA:224,120
DA:225,120
DA:226,120
DA:228,120
DA:229,120
DA:231,245
DA:232,245
DA:233,245
DA:234,245
DA:235,245
DA:238,120
DA:239,528
DA:240,528
DA:241,120
DA:244,245
DA:246,120
DA:247,120
DA:249,528
DA:250,528
DA:251,528
DA:252,528
DA:253,528
DA:256,120
DA:257,120
DA:272,256
DA:273,256
DA:274,256
DA:275,256
DA:276,256
DA:277,256
DA:278,256
DA:279,256
DA:280,256
DA:281,256
DA:282,256
DA:283,256
DA:296,20
DA:297,95
DA:298,95
DA:299,20
DA:300,20
DA:314,45
DA:315,45
DA:316,10
DA:318,35
DA:320,45
DA:327,45
DA:333,45
DA:371,50
DA:377,50
BRF:0
BRH:0
LF:200
LH:200
end_of_record
SF:/root/build/catalyst-voting/src/crypto/zk_unit_vector/polynomial.rs
FN:20,_RNvXNtNtNtCsfjV1l1xxmjd_15catalyst_voting6crypto14zk_unit_vector10polynomialNtB2_10PolynomialNtNtNtCs66KPHxksi63_4core3ops5deref5Deref5deref
FN:106,_RNvNtNtNtNtCsfjV1l1xxmjd_15catalyst_voting6crypto14zk_unit_vector10polynomial5testss_15polynomial_test
FN:45,_RNCNvMs_NtNtNtCsfjV1l1xxmjd_15catalyst_voting6crypto14zk_unit_vector10polynomialNtB6_10Polynomial10scalar_mul0Bc_
FN:58,_RNCNvNtNtNtCsfjV1l1xxmjd_15catalyst_voting6crypto14zk_unit_vector10polynomial19generate_polynomials_0B9_
FN:89,_RNCNvNtNtNtCsfjV1l1xxmjd_15catalyst_voting6crypto14zk_unit_vector10polynomial24calculate_polynomial_vals_0B9_
FN:41,_RNvMs_NtNtNtCsfjV1l1xxmjd_15catalyst_voting6crypto14zk_unit_vector10polynomialNtB4_10Polynomial10scalar_mul
FN:28,_RNvMs_NtNtNtCsfjV1l1xxmjd_15catalyst_voting6crypto14zk_unit_vector10polynomialNtB4_10Polynomial7pol_mul
FN:50,_RNvNtNtNtCsfjV1l1xxmjd_15catalyst_voting6crypto14zk_unit_vector10polynomial19generate_polynomial
FN:80,_RNvNtNtNtCsfjV1l1xxmjd_15catalyst_voting6crypto14zk_unit_vector10polynomial24calculate_polynomial_val
FN:20,_RNvXNtNtNtCs81fg4i8wncb_15catalyst_voting6crypto14zk_unit_vector10polynomialNtB2_10PolynomialNtNtNtCs66KPHxksi63_4core3ops5deref5Deref5deref
FN:45,_RNCNvMs_NtNtNtCs81fg4i8wncb_15catalyst_voting6crypto14zk_unit_vector10polynomialNtB6_10Polynomial10scalar_mul0Bc_
FN:58,_RNCNvNtNtNtCs81fg4i8wncb_15catalyst_voting6crypto14zk_unit_vector10polynomial19generate_polynomials_0B9_
FN:89,_RNCNvNtNtNtCs81fg4i8wncb_15catalyst_voting6crypto14zk_unit_vector10polynomial24calculate_polynomial_vals_0B9_
FN:41,_RNvMs_NtNtNtCs81fg4i8wncb_15catalyst_voting6crypto14zk_unit_vector10polynomialNtB4_10Polynomial10scalar_mul
FN:28,_RNvMs_NtNtNtCs81fg4i8wncb_15catalyst_voting6crypto14zk_unit_vector10polynomialNtB4_10Polynomial7pol_mul
FN:50,_RNvNtNtNtCs81fg4i8wncb_15catalyst_voting6crypto14zk_unit_vector10polynomial19generate_polynomial
FN:80,_RNvNtNtNtCs81fg4i8wncb_15catalyst_voting6crypto14zk_unit_vector10polynomial24calculate_polynomial_val
FNDA:384,_RNvXNtNtNtCsfjV1l1xxmjd_15catalyst_voting6crypto14zk_unit_vector10polynomialNtB2_10PolynomialNtNtNtCs66KPHxksi63_4core3ops5deref5Deref5deref
FNDA:1,_RNvNtNtNtNtCsfjV1l1xxmjd_15catalyst_voting6crypto14zk_unit_vector10polynomial5testss_15polynomial_test
FNDA:303,_RNCNvMs_NtNtNtCsfjV1l1xxmjd_15catalyst_voting6crypto14zk_unit_vector10polynomialNtB6_10Polynomial10scalar_mul0Bc_
FNDA:384,_RNCNvNtNtNtCsfjV1l1xxmjd_15catalyst_voting6crypto14zk_unit_vector10polynomial19generate_polynomials_0B9_
FNDA:384,_RNCNvNtNtNtCsfjV1l1xxmjd_15catalyst_voting6crypto14zk_unit_vector10polynomial24calculate_polynomial_vals_0B9_
FNDA:193,_RNvMs_NtNtNtCsfjV1l1xxmjd_15catalyst_voting6crypto14zk_unit_vector10polynomialNtB4_10Polynomial10scalar_mul
FNDA:194,_RNvMs_NtNtNtCsfjV1l1xxmjd_15catalyst_voting6crypto14zk_unit_vector10polynomialNtB4_10Polynomial7pol_mul
FNDA:128,_RNvNtNtNtCsfjV1l1xxmjd_15catalyst_voting6crypto14zk_unit_vector10polynomial19generate_polynomial
FNDA:128,_RNvNtNtNtCsfjV1l1xxmjd_15catalyst_voting6crypto14zk_unit_vector10polynomial24calculate_polynomial_val
FNDA:800,_RNvXNtNtNtCs81fg4i8wncb_15catalyst_voting6crypto14zk_unit_vector10polynomialNtB2_10PolynomialNtNtNtCs66KPHxksi63_4core3ops5deref5Deref5deref
FNDA:500,_RNCNvMs_NtNtNtCs81fg4i8wncb_15catalyst_voting6crypto14zk_unit_vector10polynomialNtB6_10Polynomial10scalar_mul0Bc_
FNDA:800,_RNCNvNtNtNtCs81fg4i8wncb_15catalyst_voting6crypto14zk_unit_vector10polynomial19generate_polynomials_0B9_
FNDA:800,_RNCNvNtNtNtCs81fg4i8wncb_15catalyst_voting6crypto14zk_unit_vector10polynomial24calculate_polynomial_vals_0B9_
FNDA:400,_RNvMs_NtNtNtCs81fg4i8wncb_15catalyst_voting6crypto14zk_unit_vector10polynomialNtB4_10Polynomial10scalar_mul
FNDA:400,_RNvMs_NtNtNtCs81fg4i8wncb_15catalyst_voting6crypto14zk_unit_vector10polynomialNtB4_10Polynomial7pol_mul
FNDA:400,_RNvNtNtNtCs81fg4i8wncb_15catalyst_voting6crypto14zk_unit_vector10polynomial19generate_polynomial
FNDA:400,_RNvNtNtNtCs81fg4i8wncb_15catalyst_voting6crypto14zk_unit_vector10polynomial24calculate_polynomial_val
FNF:9
FNH:9
DA:20,1184
DA:21,1184
DA:22,1184
DA:28,594
DA:29,594
DA:30,594
DA:31,594
DA:32,594
DA:33,594
DA:34,594
DA:35,210
DA:36,210
DA:37,594
DA:38,594
DA:41,593
DA:42,593
DA:43,593
DA:44,593
DA:45,803
DA:46,593
DA:50,528
DA:51,528
DA:52,528
DA:53,528
DA:54,528
DA:55,528
DA:57,528
DA:58,1184
DA:59,1184
DA:60,1184
DA:61,1184
DA:63,166
DA:65,426
DA:67,166
DA:69,426
DA:71,1184
DA:72,1184
DA:75,528
DA:76,528
DA:77,528
DA:80,528
DA:81,528
DA:82,528
DA:83,528
DA:84,528
DA:85,528
DA:86,528
DA:87,528
DA:88,528
DA:89,1184
DA:90,1184
DA:91,1184
DA:92,592
DA:93,592
DA:94,592
DA:95,592
DA:96,1184
DA:97,1184
DA:98,528
DA:99,528
DA:106,1
DA:108,1
DA:111,1
DA:113,1
DA:114,1
DA:115,1
DA:116,1
DA:120,1
DA:122,1
DA:123,1
DA:124,1
DA:125,1
DA:126,1
DA:129,1
DA:131,1
DA:132,1
DA:133,1
DA:134,1
DA:135,1
DA:137,1
BRF:0
BRH:0
LF:82
LH:82
end_of_record
SF:/root/build/catalyst-voting/src/crypto/zk_unit_vector/randomness_announcements.rs
FN:132,_RNCNvXs0_NtNtNtNtCsfjV1l1xxmjd_15catalyst_voting6crypto14zk_unit_vector24randomness_announcements14arbitrary_implNtB9_18ResponseRandomnessNtNtNtCs4HkuHzaL277_8proptest9arbitrary6traits9Arbitrary14arbitrary_with0Bf_
FN:121,_RNCNvXs_NtNtNtNtCsfjV1l1xxmjd_15catalyst_voting6crypto14zk_unit_vector24randomness_announcements14arbitrary_implNtB8_12AnnouncementNtNtNtCs4HkuHzaL277_8proptest9arbitrary6traits9Arbitrary14arbitrary_with0Be_
FN:22,_RINvMNtNtNtCsfjV1l1xxmjd_15catalyst_voting6crypto14zk_unit_vector24randomness_announcementsNtB3_18BlindingRandomness6randomNtNtCskjfZgJdX2ug_9rand_core2os5OsRngEB9_
FN:72,_RNvMs0_NtNtNtCsfjV1l1xxmjd_15catalyst_voting6crypto14zk_unit_vector24randomness_announcementsNtB5_18ResponseRandomness3new
FN:42,_RNvMs_NtNtNtCsfjV1l1xxmjd_15catalyst_voting6crypto14zk_unit_vector24randomness_announcementsNtB4_12Announcement3new
FN:130,_RNvXs0_NtNtNtNtCsfjV1l1xxmjd_15catalyst_voting6crypto14zk_unit_vector24randomness_announcements14arbitrary_implNtB7_18ResponseRandomnessNtNtNtCs4HkuHzaL277_8proptest9arbitrary6traits9Arbitrary14arbitrary_with
FN:119,_RNvXs_NtNtNtNtCsfjV1l1xxmjd_15catalyst_voting6crypto14zk_unit_vector24randomness_announcements14arbitrary_implNtB6_12AnnouncementNtNtNtCs4HkuHzaL277_8proptest9arbitrary6traits9Arbitrary14arbitrary_with
FN:103,_RNCNvXNtNtNtNtCsfjV1l1xxmjd_15catalyst_voting6crypto14zk_unit_vector24randomness_announcements14arbitrary_implNtB6_18BlindingRandomnessNtNtNtCs4HkuHzaL277_8proptest9arbitrary6traits9Arbitrary14arbitrary_with0Bc_
FN:101,_RNvXNtNtNtNtCsfjV1l1xxmjd_15catalyst_voting6crypto14zk_unit_vector24randomness_announcements14arbitrary_implNtB4_18BlindingRandomnessNtNtNtCs4HkuHzaL277_8proptest9arbitrary6traits9Arbitrary14arbitrary_with
FN:22,_RINvMNtNtNtCs81fg4i8wncb_15catalyst_voting6crypto14zk_unit_vector24randomness_announcementsNtB3_18BlindingRandomness6randomNtNtCsgOU7NZnRzZ4_11rand_chacha6chacha10ChaCha8RngEB9_
FN:72,_RNvMs0_NtNtNtCs81fg4i8wncb_15catalyst_voting6crypto14zk_unit_vector24randomness_announcementsNtB5_18ResponseRandomness3new
FN:42,_RNvMs_NtNtNtCs81fg4i8wncb_15catalyst_voting6crypto14zk_unit_vector24randomness_announcementsNtB4_12Announcement3new
FNDA:773,_RNCNvXs0_NtNtNtNtCsfjV1l1xxmjd_15catalyst_voting6crypto14zk_unit_vector24randomness_announcements14arbitrary_implNtB9_18ResponseRandomnessNtNtNtCs4HkuHzaL277_8proptest9arbitrary6traits9Arbitrary14arbitrary_with0Bf_
FNDA:773,_RNCNvXs_NtNtNtNtCsfjV1l1xxmjd_15catalyst_voting6crypto14zk_unit_vector24randomness_announcements14arbitrary_implNtB8_12AnnouncementNtNtNtCs4HkuHzaL277_8proptest9arbitrary6traits9Arbitrary14arbitrary_with0Be_
FNDA:45,_RINvMNtNtNtCsfjV1l1xxmjd_15catalyst_voting6crypto14zk_unit_vector24randomness_announcementsNtB3_18BlindingRandomness6randomNtNtCskjfZgJdX2ug_9rand_core2os5OsRngEB9_
FNDA:45,_RNvMs0_NtNtNtCsfjV1l1xxmjd_15catalyst_voting6crypto14zk_unit_vector24randomness_announcementsNtB5_18ResponseRandomness3new
FNDA:45,_RNvMs_NtNtNtCsfjV1l1xxmjd_15catalyst_voting6crypto14zk_unit_vector24randomness_announcementsNtB4_12Announcement3new
FNDA:257,_RNvXs0_NtNtNtNtCsfjV1l1xxmjd_15catalyst_voting6crypto14zk_unit_vector24randomness_announcements14arbitrary_implNtB7_18ResponseRandomnessNtNtNtCs4HkuHzaL277_8proptest9arbitrary6traits9Arbitrary14arbitrary_with
FNDA:257,_RNvXs_NtNtNtNtCsfjV1l1xxmjd_15catalyst_voting6crypto14zk_unit_vector24randomness_announcements14arbitrary_implNtB6_12AnnouncementNtNtNtCs4HkuHzaL277_8proptest9arbitrary6traits9Arbitrary14arbitrary_with
FNDA:0,_RNCNvXNtNtNtNtCsfjV1l1xxmjd_15catalyst_voting6crypto14zk_unit_vector24randomness_announcements14arbitrary_implNtB6_18BlindingRandomnessNtNtNtCs4HkuHzaL277_8proptest9arbitrary6traits9Arbitrary14arbitrary_with0Bc_
FNDA:0,_RNvXNtNtNtNtCsfjV1l1xxmjd_15catalyst_voting6crypto14zk_unit_vector24randomness_announcements14arbitrary_implNtB4_18BlindingRandomnessNtNtNtCs4HkuHzaL277_8proptest9arbitrary6traits9Arbitrary14arbitrary_with
FNDA:200,_RINvMNtNtNtCs81fg4i8wncb_15catalyst_voting6crypto14zk_unit_vector24randomness_announcementsNtB3_18BlindingRandomness6randomNtNtCsgOU7NZnRzZ4_11rand_chacha6chacha10ChaCha8RngEB9_
FNDA:200,_RNvMs0_NtNtNtCs81fg4i8wncb_15catalyst_voting6crypto14zk_unit_vector24randomness_announcementsNtB5_18ResponseRandomness3new
FNDA:200,_RNvMs_NtNtNtCs81fg4i8wncb_15catalyst_voting6crypto14zk_unit_vector24randomness_announcementsNtB4_12Announcement3new
FNF:9
FNH:7
DA:22,245
DA:23,245
DA:24,245
DA:25,245
DA:26,245
DA:27,245
DA:28,245
DA:29,245
DA:42,245
DA:43,245
DA:44,245
DA:45,245
DA:46,245
DA:47,245
DA:48,67
DA:50,178
DA:52,245
DA:53,245
DA:54,67
DA:56,178
DA:58,245
DA:59,245
DA:72,245
DA:73,245
DA:74,245
DA:75,245
DA:76,245
DA:77,245
DA:78,67
DA:80,178
DA:82,245
DA:83,245
DA:84,245
DA:85,245
DA:101,0
DA:102,0
DA:103,0
DA:104,0
DA:105,0
DA:106,0
DA:107,0
DA:108,0
DA:109,0
DA:110,0
DA:111,0
DA:112,0
DA:119,257
DA:120,257
DA:121,773
DA:122,257
DA:123,257
DA:130,257
DA:131,257
DA:132,773
DA:133,257
DA:134,257
BRF:0
BRH:0
LF:59
LH:46
end_of_record
SF:/root/build/catalyst-voting/src/crypto/zk_unit_vector/utils.rs
FN:18,_RNvNtNtNtNtCsfjV1l1xxmjd_15catalyst_voting6crypto14zk_unit_vector5utils5testss_12get_bit_test
FN:6,_RNvNtNtNtCsfjV1l1xxmjd_15catalyst_voting6crypto14zk_unit_vector5utils7get_bit
FN:6,_RNvNtNtNtCs81fg4i8wncb_15catalyst_voting6crypto14zk_unit_vector5utils7get_bit
FNDA:1,_RNvNtNtNtNtCsfjV1l1xxmjd_15catalyst_voting6crypto14zk_unit_vector5utils5testss_12get_bit_test
FNDA:1248,_RNvNtNtNtCsfjV1l1xxmjd_15catalyst_voting6crypto14zk_unit_vector5utils7get_bit
FNDA:2800,_RNvNtNtNtCs81fg4i8wncb_15catalyst_voting6crypto14zk_unit_vector5utils7get_bit
FNF:2
FNH:2
DA:6,4048
DA:7,4048
DA:8,4048
DA:9,4048
DA:10,4048
DA:11,4048
DA:18,1
DA:19,1
DA:20,1
DA:21,1
DA:22,1
DA:23,1
DA:24,1
DA:25,1
BRF:0
BRH:0
LF:14
LH:14
end_of_record
SF:/root/build/catalyst-voting/src/utils.rs
FN:7,_RINvNtCsfjV1l1xxmjd_15catalyst_voting5utils10read_arrayRShKj20_EB4_
FN:7,_RINvNtCsfjV1l1xxmjd_15catalyst_voting5utils10read_arrayINtNtNtCsiKSG5X70Gj7_3std2io6cursor6CursorINtNtCs8Ty2CzGA6U3_5alloc3vec3VechEEKj40_EB4_
FN:7,_RINvNtCsfjV1l1xxmjd_15catalyst_voting5utils10read_arrayRShKj40_EB4_
FN:7,_RINvNtCsfjV1l1xxmjd_15catalyst_voting5utils10read_arrayRShKj60_EB4_
FN:7,_RINvNtCs81fg4i8wncb_15catalyst_voting5utils10read_arraypKpEB4_
FNDA:256,_RINvNtCsfjV1l1xxmjd_15catalyst_voting5utils10read_arrayRShKj20_EB4_
FNDA:508,_RINvNtCsfjV1l1xxmjd_15catalyst_voting5utils10read_arrayINtNtNtCsiKSG5X70Gj7_3std2io6cursor6CursorINtNtCs8Ty2CzGA6U3_5alloc3vec3VechEEKj40_EB4_
FNDA:517,_RINvNtCsfjV1l1xxmjd_15catalyst_voting5utils10read_arrayRShKj40_EB4_
FNDA:1034,_RINvNtCsfjV1l1xxmjd_15catalyst_voting5utils10read_arrayRShKj60_EB4_
FNDA:0,_RINvNtCs81fg4i8wncb_15catalyst_voting5utils10read_arraypKpEB4_
FNF:1
FNH:1
DA:7,2315
DA:8,2315
DA:9,2315
DA:10,2315
DA:11,2315
BRF:0
BRH:0
LF:5
LH:5
end_of_record
SF:/root/build/catalyst-voting/src/vote_protocol/committee/decoding.rs
FN:22,_RNCNvMNtNtNtCsfjV1l1xxmjd_15catalyst_voting13vote_protocol9committee8decodingNtB6_17ElectionSecretKey10from_bytes0Ba_
FN:44,_RNCNvMs_NtNtNtCsfjV1l1xxmjd_15catalyst_voting13vote_protocol9committee8decodingNtB8_17ElectionPublicKey10from_bytes0Bc_
FN:21,_RNvMNtNtNtCsfjV1l1xxmjd_15catalyst_voting13vote_protocol9committee8decodingNtB4_17ElectionSecretKey10from_bytes
FN:42,_RNvMs_NtNtNtCsfjV1l1xxmjd_15catalyst_voting13vote_protocol9committee8decodingNtB6_17ElectionPublicKey10from_bytes
FN:34,_RNvMs_NtNtNtCsfjV1l1xxmjd_15catalyst_voting13vote_protocol9committee8decodingNtB6_17ElectionPublicKey8to_bytes
FN:13,_RNvMNtNtNtCsfjV1l1xxmjd_15catalyst_voting13vote_protocol9committee8decodingNtB4_17ElectionSecretKey8to_bytes
FN:22,_RNCNvMNtNtNtCs81fg4i8wncb_15catalyst_voting13vote_protocol9committee8decodingNtB6_17ElectionSecretKey10from_bytes0Ba_
FN:44,_RNCNvMs_NtNtNtCs81fg4i8wncb_15catalyst_voting13vote_protocol9committee8decodingNtB8_17ElectionPublicKey10from_bytes0Bc_
FN:21,_RNvMNtNtNtCs81fg4i8wncb_15catalyst_voting13vote_protocol9committee8decodingNtB4_17ElectionSecretKey10from_bytes
FN:42,_RNvMs_NtNtNtCs81fg4i8wncb_15catalyst_voting13vote_protocol9committee8decodingNtB6_17ElectionPublicKey10from_bytes
FN:34,_RNvMs_NtNtNtCs81fg4i8wncb_15catalyst_voting13vote_protocol9committee8decodingNtB6_17ElectionPublicKey8to_bytes
FN:13,_RNvMNtNtNtCs81fg4i8wncb_15catalyst_voting13vote_protocol9committee8decodingNtB4_17ElectionSecretKey8to_bytes
FNDA:0,_RNCNvMNtNtNtCsfjV1l1xxmjd_15catalyst_voting13vote_protocol9committee8decodingNtB6_17ElectionSecretKey10from_bytes0Ba_
FNDA:0,_RNCNvMs_NtNtNtCsfjV1l1xxmjd_15catalyst_voting13vote_protocol9committee8decodingNtB8_17ElectionPublicKey10from_bytes0Bc_
FNDA:256,_RNvMNtNtNtCsfjV1l1xxmjd_15catalyst_voting13vote_protocol9committee8decodingNtB4_17ElectionSecretKey10from_bytes
FNDA:256,_RNvMs_NtNtNtCsfjV1l1xxmjd_15catalyst_voting13vote_protocol9committee8decodingNtB6_17ElectionPublicKey10from_bytes
FNDA:256,_RNvMs_NtNtNtCsfjV1l1xxmjd_15catalyst_voting13vote_protocol9committee8decodingNtB6_17ElectionPublicKey8to_bytes
FNDA:256,_RNvMNtNtNtCsfjV1l1xxmjd_15catalyst_voting13vote_protocol9committee8decodingNtB4_17ElectionSecretKey8to_bytes
FNDA:0,_RNCNvMNtNtNtCs81fg4i8wncb_15catalyst_voting13vote_protocol9committee8decodingNtB6_17ElectionSecretKey10from_bytes0Ba_
FNDA:0,_RNCNvMs_NtNtNtCs81fg4i8wncb_15catalyst_voting13vote_protocol9committee8decodingNtB8_17ElectionPublicKey10from_bytes0Bc_
FNDA:0,_RNvMNtNtNtCs81fg4i8wncb_15catalyst_voting13vote_protocol9committee8decodingNtB4_17ElectionSecretKey10from_bytes
FNDA:0,_RNvMs_NtNtNtCs81fg4i8wncb_15catalyst_voting13vote_protocol9committee8decodingNtB6_17ElectionPublicKey10from_bytes
FNDA:0,_RNvMs_NtNtNtCs81fg4i8wncb_15catalyst_voting13vote_protocol9committee8decodingNtB6_17ElectionPublicKey8to_bytes
FNDA:0,_RNvMNtNtNtCs81fg4i8wncb_15catalyst_voting13vote_protocol9committee8decodingNtB4_17ElectionSecretKey8to_bytes
FNF:6
FNH:4
DA:13,256
DA:14,256
DA:15,256
DA:21,256
DA:22,256
DA:23,0
DA:24,0
DA:25,256
DA:34,256
DA:35,256
DA:36,256
DA:42,256
DA:44,256
DA:46,256
BRF:0
BRH:0
LF:17
LH:12
end_of_record
SF:/root/build/catalyst-voting/src/vote_protocol/committee/mod.rs
FN:30,_RNvMNtNtCsfjV1l1xxmjd_15catalyst_voting13vote_protocol9committeeNtB2_17ElectionSecretKey10public_key
FN:49,_RNvXNtNtNtCsfjV1l1xxmjd_15catalyst_voting13vote_protocol9committee14arbitrary_implNtB4_17ElectionSecretKeyNtNtNtCs4HkuHzaL277_8proptest9arbitrary6traits9Arbitrary14arbitrary_with
FN:18,_RINvMNtNtCsfjV1l1xxmjd_15catalyst_voting13vote_protocol9committeeNtB3_17ElectionSecretKey6randompEB7_
FN:24,_RNvMNtNtCsfjV1l1xxmjd_15catalyst_voting13vote_protocol9committeeNtB2_17ElectionSecretKey23random_with_default_rng
FN:18,_RINvMNtNtCs81fg4i8wncb_15catalyst_voting13vote_protocol9committeeNtB3_17ElectionSecretKey6randomNtNtCsgOU7NZnRzZ4_11rand_chacha6chacha10ChaCha8RngEB7_
FN:30,_RNvMNtNtCs81fg4i8wncb_15catalyst_voting13vote_protocol9committeeNtB2_17ElectionSecretKey10public_key
FN:24,_RNvMNtNtCs81fg4i8wncb_15catalyst_voting13vote_protocol9committeeNtB2_17ElectionSecretKey23random_with_default_rng
FNDA:256,_RNvMNtNtCsfjV1l1xxmjd_15catalyst_voting13vote_protocol9committeeNtB2_17ElectionSecretKey10public_key
FNDA:1,_RNvXNtNtNtCsfjV1l1xxmjd_15catalyst_voting13vote_protocol9committee14arbitrary_implNtB4_17ElectionSecretKeyNtNtNtCs4HkuHzaL277_8proptest9arbitrary6traits9Arbitrary14arbitrary_with
FNDA:0,_RINvMNtNtCsfjV1l1xxmjd_15catalyst_voting13vote_protocol9committeeNtB3_17ElectionSecretKey6randompEB7_
FNDA:0,_RNvMNtNtCsfjV1l1xxmjd_15catalyst_voting13vote_protocol9committeeNtB2_17ElectionSecretKey23random_with_default_rng
FNDA:1,_RINvMNtNtCs81fg4i8wncb_15catalyst_voting13vote_protocol9committeeNtB3_17ElectionSecretKey6randomNtNtCsgOU7NZnRzZ4_11rand_chacha6chacha10ChaCha8RngEB7_
FNDA:4,_RNvMNtNtCs81fg4i8wncb_15catalyst_voting13vote_protocol9committeeNtB2_17ElectionSecretKey10public_key
FNDA:1,_RNvMNtNtCs81fg4i8wncb_15catalyst_voting13vote_protocol9committeeNtB2_17ElectionSecretKey23random_with_default_rng
FNF:4
FNH:4
DA:18,1
DA:19,1
DA:20,1
DA:24,1
DA:25,1
DA:26,1
DA:30,260
DA:31,260
DA:32,260
DA:49,1
DA:50,1
DA:51,1
BRF:0
BRH:0
LF:12
LH:12
end_of_record
SF:/root/build/catalyst-voting/src/vote_protocol/tally/mod.rs
FN:42,_RNCNvMNtNtCsfjV1l1xxmjd_15catalyst_voting13vote_protocol5tallyNtB4_20DecryptionTallySetup3new0B8_
FN:108,_RNCNvNtNtCsfjV1l1xxmjd_15catalyst_voting13vote_protocol5tally13decrypt_tally0B7_
FN:72,_RNCNvNtNtCsfjV1l1xxmjd_15catalyst_voting13vote_protocol5tally5tally0B7_
FN:89,_RNCNvNtNtCsfjV1l1xxmjd_15catalyst_voting13vote_protocol5tally5tallys0_0B7_
FN:85,_RNCNvNtNtCsfjV1l1xxmjd_15catalyst_voting13vote_protocol5tally5tallys_0B7_
FN:40,_RNvMNtNtCsfjV1l1xxmjd_15catalyst_voting13vote_protocol5tallyNtB2_20DecryptionTallySetup3new
FN:101,_RNvNtNtCsfjV1l1xxmjd_15catalyst_voting13vote_protocol5tally13decrypt_tally
FN:56,_RNvNtNtCsfjV1l1xxmjd_15catalyst_voting13vote_protocol5tally5tally
FN:42,_RNCNvMNtNtCs81fg4i8wncb_15catalyst_voting13vote_protocol5tallyNtB4_20DecryptionTallySetup3new0B8_
FN:108,_RNCNvNtNtCs81fg4i8wncb_15catalyst_voting13vote_protocol5tally13decrypt_tally0B7_
FN:89,_RNCNvNtNtCs81fg4i8wncb_15catalyst_voting13vote_protocol5tally5tallys0_0B7_
FN:85,_RNCNvNtNtCs81fg4i8wncb_15catalyst_voting13vote_protocol5tally5tallys_0B7_
FN:40,_RNvMNtNtCs81fg4i8wncb_15catalyst_voting13vote_protocol5tallyNtB2_20DecryptionTallySetup3new
FN:101,_RNvNtNtCs81fg4i8wncb_15catalyst_voting13vote_protocol5tally13decrypt_tally
FN:56,_RNvNtNtCs81fg4i8wncb_15catalyst_voting13vote_protocol5tally5tally
FN:72,_RNCNvNtNtCs81fg4i8wncb_15catalyst_voting13vote_protocol5tally5tally0B7_
FNDA:0,_RNCNvMNtNtCsfjV1l1xxmjd_15catalyst_voting13vote_protocol5tallyNtB4_20DecryptionTallySetup3new0B8_
FNDA:0,_RNCNvNtNtCsfjV1l1xxmjd_15catalyst_voting13vote_protocol5tally13decrypt_tally0B7_
FNDA:0,_RNCNvNtNtCsfjV1l1xxmjd_15catalyst_voting13vote_protocol5tally5tally0B7_
FNDA:0,_RNCNvNtNtCsfjV1l1xxmjd_15catalyst_voting13vote_protocol5tally5tallys0_0B7_
FNDA:0,_RNCNvNtNtCsfjV1l1xxmjd_15catalyst_voting13vote_protocol5tally5tallys_0B7_
FNDA:0,_RNvMNtNtCsfjV1l1xxmjd_15catalyst_voting13vote_protocol5tallyNtB2_20DecryptionTallySetup3new
FNDA:0,_RNvNtNtCsfjV1l1xxmjd_15catalyst_voting13vote_protocol5tally13decrypt_tally
FNDA:0,_RNvNtNtCsfjV1l1xxmjd_15catalyst_voting13vote_protocol5tally5tally
FNDA:0,_RNCNvMNtNtCs81fg4i8wncb_15catalyst_voting13vote_protocol5tallyNtB4_20DecryptionTallySetup3new0B8_
FNDA:0,_RNCNvNtNtCs81fg4i8wncb_15catalyst_voting13vote_protocol5tally13decrypt_tally0B7_
FNDA:300,_RNCNvNtNtCs81fg4i8wncb_15catalyst_voting13vote_protocol5tally5tallys0_0B7_
FNDA:300,_RNCNvNtNtCs81fg4i8wncb_15catalyst_voting13vote_protocol5tally5tallys_0B7_
FNDA:1,_RNvMNtNtCs81fg4i8wncb_15catalyst_voting13vote_protocol5tallyNtB2_20DecryptionTallySetup3new
FNDA:3,_RNvNtNtCs81fg4i8wncb_15catalyst_voting13vote_protocol5tally13decrypt_tally
FNDA:3,_RNvNtNtCs81fg4i8wncb_15catalyst_voting13vote_protocol5tally5tally
FNDA:300,_RNCNvNtNtCs81fg4i8wncb_15catalyst_voting13vote_protocol5tally5tally0B7_
FNF:8
FNH:6
DA:40,1
DA:41,1
DA:42,1
DA:43,0
DA:44,0
DA:45,1
DA:46,1
DA:56,3
DA:57,3
DA:58,3
DA:59,3
DA:60,3
DA:61,3
DA:62,3
DA:63,0
DA:64,0
DA:65,0
DA:66,0
DA:69,3
DA:70,3
DA:71,3
DA:72,300
DA:73,300
DA:74,300
DA:75,300
DA:77,300
DA:78,3
DA:80,3
DA:82,3
DA:83,3
DA:84,3
DA:85,300
DA:86,300
DA:87,300
DA:88,300
DA:89,300
DA:91,3
DA:92,3
DA:101,3
DA:102,3
DA:103,3
DA:104,3
DA:105,3
DA:106,3
DA:108,3
DA:109,0
DA:110,0
DA:111,0
DA:113,0
DA:114,3
DA:115,3
BRF:0
BRH:0
LF:58
LH:44
end_of_record
SF:/root/build/catalyst-voting/src/vote_protocol/tally/proof.rs
FN:24,_RINvNtNtNtCsfjV1l1xxmjd_15catalyst_voting13vote_protocol5tally5proof20generate_tally_proofpEB8_
FN:59,_RNvNtNtNtCsfjV1l1xxmjd_15catalyst_voting13vote_protocol5tally5proof18verify_tally_proof
FN:48,_RNvNtNtNtCsfjV1l1xxmjd_15catalyst_voting13vote_protocol5tally5proof37generate_tally_proof_with_default_rng
FN:24,_RINvNtNtNtCs81fg4i8wncb_15catalyst_voting13vote_protocol5tally5proof20generate_tally_proofNtNtCsgOU7NZnRzZ4_11rand_chacha6chacha10ChaCha8RngEB8_
FN:59,_RNvNtNtNtCs81fg4i8wncb_15catalyst_voting13vote_protocol5tally5proof18verify_tally_proof
FN:48,_RNvNtNtNtCs81fg4i8wncb_15catalyst_voting13vote_protocol5tally5proof37generate_tally_proof_with_default_rng
FNDA:0,_RINvNtNtNtCsfjV1l1xxmjd_15catalyst_voting13vote_protocol5tally5proof20generate_tally_proofpEB8_
FNDA:0,_RNvNtNtNtCsfjV1l1xxmjd_15catalyst_voting13vote_protocol5tally5proof18verify_tally_proof
FNDA:0,_RNvNtNtNtCsfjV1l1xxmjd_15catalyst_voting13vote_protocol5tally5proof37generate_tally_proof_with_default_rng
FNDA:3,_RINvNtNtNtCs81fg4i8wncb_15catalyst_voting13vote_protocol5tally5proof20generate_tally_proofNtNtCsgOU7NZnRzZ4_11rand_chacha6chacha10ChaCha8RngEB8_
FNDA:3,_RNvNtNtNtCs81fg4i8wncb_15catalyst_voting13vote_protocol5tally5proof18verify_tally_proof
FNDA:3,_RNvNtNtNtCs81fg4i8wncb_15catalyst_voting13vote_protocol5tally5proof37generate_tally_proof_with_default_rng
FNF:3
FNH:3
DA:24,3
DA:25,3
DA:26,3
DA:27,3
DA:28,3
DA:29,3
DA:30,3
DA:31,3
DA:33,3
DA:34,3
DA:35,3
DA:36,3
DA:37,3
DA:38,3
DA:39,3
DA:42,3
DA:43,3
DA:48,3
DA:49,3
DA:50,3
DA:51,3
DA:52,3
DA:53,3
DA:59,3
DA:60,3
DA:61,3
DA:62,3
DA:63,3
DA:64,3
DA:65,3
DA:66,3
DA:67,3
DA:68,3
DA:70,3
DA:71,3
BRF:0
BRH:0
LF:35
LH:35
end_of_record
SF:/root/build/catalyst-voting/src/vote_protocol/voter/decoding.rs
FN:24,_RINvMNtNtNtCsfjV1l1xxmjd_15catalyst_voting13vote_protocol5voter8decodingNtB5_13EncryptedVote10from_bytesINtNtNtCsiKSG5X70Gj7_3std2io6cursor6CursorINtNtCs8Ty2CzGA6U3_5alloc3vec3VechEEEB9_
FN:51,_RNCNvMNtNtNtCsfjV1l1xxmjd_15catalyst_voting13vote_protocol5voter8decodingNtB6_13EncryptedVote8to_bytes0Ba_
FN:47,_RNvMNtNtNtCsfjV1l1xxmjd_15catalyst_voting13vote_protocol5voter8decodingNtB4_13EncryptedVote8to_bytes
FN:29,_RNCINvMNtNtNtCsfjV1l1xxmjd_15catalyst_voting13vote_protocol5voter8decodingNtB7_13EncryptedVote10from_bytesINtNtNtCsiKSG5X70Gj7_3std2io6cursor6CursorINtNtCs8Ty2CzGA6U3_5alloc3vec3VechEEE0Bb_
FN:32,_RNCNCINvMNtNtNtCsfjV1l1xxmjd_15catalyst_voting13vote_protocol5voter8decodingNtB9_13EncryptedVote10from_bytesINtNtNtCsiKSG5X70Gj7_3std2io6cursor6CursorINtNtCs8Ty2CzGA6U3_5alloc3vec3VechEEE00Bd_
FN:41,_RNvMNtNtNtCsfjV1l1xxmjd_15catalyst_voting13vote_protocol5voter8decodingNtB4_13EncryptedVote10bytes_size
FN:16,_RNvMNtNtNtCsfjV1l1xxmjd_15catalyst_voting13vote_protocol5voter8decodingNtB4_13EncryptedVote4size
FN:72,_RINvMs_NtNtNtCsfjV1l1xxmjd_15catalyst_voting13vote_protocol5voter8decodingNtNtB7_5proof10VoterProof10from_bytespEBb_
FN:61,_RNvMs_NtNtNtCsfjV1l1xxmjd_15catalyst_voting13vote_protocol5voter8decodingNtNtB6_5proof10VoterProof4size
FN:81,_RNvMs_NtNtNtCsfjV1l1xxmjd_15catalyst_voting13vote_protocol5voter8decodingNtNtB6_5proof10VoterProof8to_bytes
FN:51,_RNCNvMNtNtNtCs81fg4i8wncb_15catalyst_voting13vote_protocol5voter8decodingNtB6_13EncryptedVote8to_bytes0Ba_
FN:41,_RNvMNtNtNtCs81fg4i8wncb_15catalyst_voting13vote_protocol5voter8decodingNtB4_13EncryptedVote10bytes_size
FN:47,_RNvMNtNtNtCs81fg4i8wncb_15catalyst_voting13vote_protocol5voter8decodingNtB4_13EncryptedVote8to_bytes
FN:81,_RNvMs_NtNtNtCs81fg4i8wncb_15catalyst_voting13vote_protocol5voter8decodingNtNtB6_5proof10VoterProof8to_bytes
FN:24,_RINvMNtNtNtCs81fg4i8wncb_15catalyst_voting13vote_protocol5voter8decodingNtB5_13EncryptedVote10from_bytespEB9_
FN:72,_RINvMs_NtNtNtCs81fg4i8wncb_15catalyst_voting13vote_protocol5voter8decodingNtNtB7_5proof10VoterProof10from_bytespEBb_
FN:29,_RNCINvMNtNtNtCs81fg4i8wncb_15catalyst_voting13vote_protocol5voter8decodingNtB7_13EncryptedVote10from_bytespE0Bb_
FN:32,_RNCNCINvMNtNtNtCs81fg4i8wncb_15catalyst_voting13vote_protocol5voter8decodingNtB9_13EncryptedVote10from_bytespE00Bd_
FN:16,_RNvMNtNtNtCs81fg4i8wncb_15catalyst_voting13vote_protocol5voter8decodingNtB4_13EncryptedVote4size
FN:61,_RNvMs_NtNtNtCs81fg4i8wncb_15catalyst_voting13vote_protocol5voter8decodingNtNtB6_5proof10VoterProof4size
FNDA:256,_RINvMNtNtNtCsfjV1l1xxmjd_15catalyst_voting13vote_protocol5voter8decodingNtB5_13EncryptedVote10from_bytesINtNtNtCsiKSG5X70Gj7_3std2io6cursor6CursorINtNtCs8Ty2CzGA6U3_5alloc3vec3VechEEEB9_
FNDA:508,_RNCNvMNtNtNtCsfjV1l1xxmjd_15catalyst_voting13vote_protocol5voter8decodingNtB6_13EncryptedVote8to_bytes0Ba_
FNDA:256,_RNvMNtNtNtCsfjV1l1xxmjd_15catalyst_voting13vote_protocol5voter8decodingNtB4_13EncryptedVote8to_bytes
FNDA:508,_RNCINvMNtNtNtCsfjV1l1xxmjd_15catalyst_voting13vote_protocol5voter8decodingNtB7_13EncryptedVote10from_bytesINtNtNtCsiKSG5X70Gj7_3std2io6cursor6CursorINtNtCs8Ty2CzGA6U3_5alloc3vec3VechEEE0Bb_
FNDA:0,_RNCNCINvMNtNtNtCsfjV1l1xxmjd_15catalyst_voting13vote_protocol5voter8decodingNtB9_13EncryptedVote10from_bytesINtNtNtCsiKSG5X70Gj7_3std2io6cursor6CursorINtNtCs8Ty2CzGA6U3_5alloc3vec3VechEEE00Bd_
FNDA:512,_RNvMNtNtNtCsfjV1l1xxmjd_15catalyst_voting13vote_protocol5voter8decodingNtB4_13EncryptedVote10bytes_size
FNDA:256,_RNvMNtNtNtCsfjV1l1xxmjd_15catalyst_voting13vote_protocol5voter8decodingNtB4_13EncryptedVote4size
FNDA:0,_RINvMs_NtNtNtCsfjV1l1xxmjd_15catalyst_voting13vote_protocol5voter8decodingNtNtB7_5proof10VoterProof10from_bytespEBb_
FNDA:0,_RNvMs_NtNtNtCsfjV1l1xxmjd_15catalyst_voting13vote_protocol5voter8decodingNtNtB6_5proof10VoterProof4size
FNDA:0,_RNvMs_NtNtNtCsfjV1l1xxmjd_15catalyst_voting13vote_protocol5voter8decodingNtNtB6_5proof10VoterProof8to_bytes
FNDA:0,_RNCNvMNtNtNtCs81fg4i8wncb_15catalyst_voting13vote_protocol5voter8decodingNtB6_13EncryptedVote8to_bytes0Ba_
FNDA:0,_RNvMNtNtNtCs81fg4i8wncb_15catalyst_voting13vote_protocol5voter8decodingNtB4_13EncryptedVote10bytes_size
FNDA:0,_RNvMNtNtNtCs81fg4i8wncb_15catalyst_voting13vote_protocol5voter8decodingNtB4_13EncryptedVote8to_bytes
FNDA:0,_RNvMs_NtNtNtCs81fg4i8wncb_15catalyst_voting13vote_protocol5voter8decodingNtNtB6_5proof10VoterProof8to_bytes
FNDA:0,_RINvMNtNtNtCs81fg4i8wncb_15catalyst_voting13vote_protocol5voter8decodingNtB5_13EncryptedVote10from_bytespEB9_
FNDA:0,_RINvMs_NtNtNtCs81fg4i8wncb_15catalyst_voting13vote_protocol5voter8decodingNtNtB7_5proof10VoterProof10from_bytespEBb_
FNDA:0,_RNCINvMNtNtNtCs81fg4i8wncb_15catalyst_voting13vote_protocol5voter8decodingNtB7_13EncryptedVote10from_bytespE0Bb_
FNDA:0,_RNCNCINvMNtNtNtCs81fg4i8wncb_15catalyst_voting13vote_protocol5voter8decodingNtB9_13EncryptedVote10from_bytespE00Bd_
FNDA:0,_RNvMNtNtNtCs81fg4i8wncb_15catalyst_voting13vote_protocol5voter8decodingNtB4_13EncryptedVote4size
FNDA:0,_RNvMs_NtNtNtCs81fg4i8wncb_15catalyst_voting13vote_protocol5voter8decodingNtNtB6_5proof10VoterProof4size
FNF:10
FNH:6
DA:16,256
DA:17,256
DA:18,256
DA:24,256
DA:25,256
DA:26,256
DA:27,256
DA:28,256
DA:29,508
DA:30,508
DA:31,508
DA:32,508
DA:33,508
DA:34,256
DA:36,256
DA:37,256
DA:41,512
DA:42,512
DA:43,512
DA:47,256
DA:48,256
DA:49,256
DA:50,256
DA:51,508
DA:52,256
DA:53,256
DA:61,0
DA:62,0
DA:63,0
DA:72,0
DA:73,0
DA:74,0
DA:75,0
DA:76,0
DA:77,0
DA:81,0
DA:82,0
DA:83,0
BRF:0
BRH:0
LF:41
LH:28
end_of_record
SF:/root/build/catalyst-voting/src/vote_protocol/voter/mod.rs
FN:83,_RNvMs0_NtNtCsfjV1l1xxmjd_15catalyst_voting13vote_protocol5voterNtB5_4Vote14to_unit_vector
FN:64,_RNvMs0_NtNtCsfjV1l1xxmjd_15catalyst_voting13vote_protocol5voterNtB5_4Vote3new
FN:78,_RNvMs0_NtNtCsfjV1l1xxmjd_15catalyst_voting13vote_protocol5voterNtB5_4Vote6choice
FN:185,_RNvNtNtNtCsfjV1l1xxmjd_15catalyst_voting13vote_protocol5voter5testss_9vote_test
FN:172,_RNvXNtNtNtCsfjV1l1xxmjd_15catalyst_voting13vote_protocol5voter14arbitrary_implNtB4_13EncryptedVoteNtNtNtCs4HkuHzaL277_8proptest9arbitrary6traits9Arbitrary14arbitrary_with
FN:85,_RNCNvMs0_NtNtCsfjV1l1xxmjd_15catalyst_voting13vote_protocol5voterNtB7_4Vote14to_unit_vector0Bb_
FN:39,_RINvMNtNtCsfjV1l1xxmjd_15catalyst_voting13vote_protocol5voterNtB3_20EncryptionRandomness6randompEB7_
FN:102,_RINvNtNtCsfjV1l1xxmjd_15catalyst_voting13vote_protocol5voter12encrypt_votepEB6_
FN:43,_RNCINvMNtNtCsfjV1l1xxmjd_15catalyst_voting13vote_protocol5voterNtB5_20EncryptionRandomness6randompE0B9_
FN:113,_RNCINvNtNtCsfjV1l1xxmjd_15catalyst_voting13vote_protocol5voter12encrypt_votepE0B8_
FN:148,_RNCNvNtNtCsfjV1l1xxmjd_15catalyst_voting13vote_protocol5voter12decrypt_vote0B7_
FN:49,_RNvMs_NtNtCsfjV1l1xxmjd_15catalyst_voting13vote_protocol5voterNtB4_13EncryptedVote25get_ciphertext_for_choice
FN:136,_RNvNtNtCsfjV1l1xxmjd_15catalyst_voting13vote_protocol5voter12decrypt_vote
FN:122,_RNvNtNtCsfjV1l1xxmjd_15catalyst_voting13vote_protocol5voter29encrypt_vote_with_default_rng
FN:39,_RINvMNtNtCs81fg4i8wncb_15catalyst_voting13vote_protocol5voterNtB3_20EncryptionRandomness6randomNtNtCsgOU7NZnRzZ4_11rand_chacha6chacha10ChaCha8RngEB7_
FN:102,_RINvNtNtCs81fg4i8wncb_15catalyst_voting13vote_protocol5voter12encrypt_voteNtNtCsgOU7NZnRzZ4_11rand_chacha6chacha10ChaCha8RngEB6_
FN:113,_RNCINvNtNtCs81fg4i8wncb_15catalyst_voting13vote_protocol5voter12encrypt_voteNtNtCsgOU7NZnRzZ4_11rand_chacha6chacha10ChaCha8RngE0B8_
FN:148,_RNCNvNtNtCs81fg4i8wncb_15catalyst_voting13vote_protocol5voter12decrypt_vote0B7_
FN:83,_RNvMs0_NtNtCs81fg4i8wncb_15catalyst_voting13vote_protocol5voterNtB5_4Vote14to_unit_vector
FN:64,_RNvMs0_NtNtCs81fg4i8wncb_15catalyst_voting13vote_protocol5voterNtB5_4Vote3new
FN:136,_RNvNtNtCs81fg4i8wncb_15catalyst_voting13vote_protocol5voter12decrypt_vote
FN:122,_RNvNtNtCs81fg4i8wncb_15catalyst_voting13vote_protocol5voter29encrypt_vote_with_default_rng
FN:43,_RNCINvMNtNtCs81fg4i8wncb_15catalyst_voting13vote_protocol5voterNtB5_20EncryptionRandomness6randomNtNtCsgOU7NZnRzZ4_11rand_chacha6chacha10ChaCha8RngE0B9_
FN:85,_RNCNvMs0_NtNtCs81fg4i8wncb_15catalyst_voting13vote_protocol5voterNtB7_4Vote14to_unit_vector0Bb_
FN:49,_RNvMs_NtNtCs81fg4i8wncb_15catalyst_voting13vote_protocol5voterNtB4_13EncryptedVote25get_ciphertext_for_choice
FN:78,_RNvMs0_NtNtCs81fg4i8wncb_15catalyst_voting13vote_protocol5voterNtB5_4Vote6choice
FNDA:3,_RNvMs0_NtNtCsfjV1l1xxmjd_15catalyst_voting13vote_protocol5voterNtB5_4Vote14to_unit_vector
FNDA:5,_RNvMs0_NtNtCsfjV1l1xxmjd_15catalyst_voting13vote_protocol5voterNtB5_4Vote3new
FNDA:3,_RNvMs0_NtNtCsfjV1l1xxmjd_15catalyst_voting13vote_protocol5voterNtB5_4Vote6choice
FNDA:1,_RNvNtNtNtCsfjV1l1xxmjd_15catalyst_voting13vote_protocol5voter5testss_9vote_test
FNDA:256,_RNvXNtNtNtCsfjV1l1xxmjd_15catalyst_voting13vote_protocol5voter14arbitrary_implNtB4_13EncryptedVoteNtNtNtCs4HkuHzaL277_8proptest9arbitrary6traits9Arbitrary14arbitrary_with
FNDA:9,_RNCNvMs0_NtNtCsfjV1l1xxmjd_15catalyst_voting13vote_protocol5voterNtB7_4Vote14to_unit_vector0Bb_
FNDA:0,_RINvMNtNtCsfjV1l1xxmjd_15catalyst_voting13vote_protocol5voterNtB3_20EncryptionRandomness6randompEB7_
FNDA:0,_RINvNtNtCsfjV1l1xxmjd_15catalyst_voting13vote_protocol5voter12encrypt_votepEB6_
FNDA:0,_RNCINvMNtNtCsfjV1l1xxmjd_15catalyst_voting13vote_protocol5voterNtB5_20EncryptionRandomness6randompE0B9_
FNDA:0,_RNCINvNtNtCsfjV1l1xxmjd_15catalyst_voting13vote_protocol5voter12encrypt_votepE0B8_
FNDA:0,_RNCNvNtNtCsfjV1l1xxmjd_15catalyst_voting13vote_protocol5voter12decrypt_vote0B7_
FNDA:0,_RNvMs_NtNtCsfjV1l1xxmjd_15catalyst_voting13vote_protocol5voterNtB4_13EncryptedVote25get_ciphertext_for_choice
FNDA:0,_RNvNtNtCsfjV1l1xxmjd_15catalyst_voting13vote_protocol5voter12decrypt_vote
FNDA:0,_RNvNtNtCsfjV1l1xxmjd_15catalyst_voting13vote_protocol5voter29encrypt_vote_with_default_rng
FNDA:100,_RINvMNtNtCs81fg4i8wncb_15catalyst_voting13vote_protocol5voterNtB3_20EncryptionRandomness6randomNtNtCsgOU7NZnRzZ4_11rand_chacha6chacha10ChaCha8RngEB7_
FNDA:100,_RINvNtNtCs81fg4i8wncb_15catalyst_voting13vote_protocol5voter12encrypt_voteNtNtCsgOU7NZnRzZ4_11rand_chacha6chacha10ChaCha8RngEB6_
FNDA:300,_RNCINvNtNtCs81fg4i8wncb_15catalyst_voting13vote_protocol5voter12encrypt_voteNtNtCsgOU7NZnRzZ4_11rand_chacha6chacha10ChaCha8RngE0B8_
FNDA:0,_RNCNvNtNtCs81fg4i8wncb_15catalyst_voting13vote_protocol5voter12decrypt_vote0B7_
FNDA:200,_RNvMs0_NtNtCs81fg4i8wncb_15catalyst_voting13vote_protocol5voterNtB5_4Vote14to_unit_vector
FNDA:100,_RNvMs0_NtNtCs81fg4i8wncb_15catalyst_voting13vote_protocol5voterNtB5_4Vote3new
FNDA:100,_RNvNtNtCs81fg4i8wncb_15catalyst_voting13vote_protocol5voter12decrypt_vote
FNDA:100,_RNvNtNtCs81fg4i8wncb_15catalyst_voting13vote_protocol5voter29encrypt_vote_with_default_rng
FNDA:300,_RNCINvMNtNtCs81fg4i8wncb_15catalyst_voting13vote_protocol5voterNtB5_20EncryptionRandomness6randomNtNtCsgOU7NZnRzZ4_11rand_chacha6chacha10ChaCha8RngE0B9_
FNDA:600,_RNCNvMs0_NtNtCs81fg4i8wncb_15catalyst_voting13vote_protocol5voterNtB7_4Vote14to_unit_vector0Bb_
FNDA:300,_RNvMs_NtNtCs81fg4i8wncb_15catalyst_voting13vote_protocol5voterNtB4_13EncryptedVote25get_ciphertext_for_choice
FNDA:0,_RNvMs0_NtNtCs81fg4i8wncb_15catalyst_voting13vote_protocol5voterNtB5_4Vote6choice
FNF:14
FNH:13
DA:39,100
DA:40,100
DA:41,100
DA:42,100
DA:43,300
DA:44,100
DA:49,300
DA:50,300
DA:51,300
DA:52,300
DA:53,300
DA:54,300
DA:64,105
DA:65,105
DA:66,105
DA:67,105
DA:68,105
DA:70,103
DA:71,103
DA:72,103
DA:73,103
DA:74,105
DA:78,3
DA:79,3
DA:80,3
DA:83,203
DA:84,203
DA:85,609
DA:86,609
DA:87,203
DA:89,406
DA:91,609
DA:92,203
DA:93,203
DA:102,100
DA:103,100
DA:104,100
DA:105,100
DA:106,100
DA:107,100
DA:109,100
DA:110,100
DA:111,100
DA:112,100
DA:113,300
DA:114,100
DA:116,100
DA:117,100
DA:122,100
DA:123,100
DA:124,100
DA:125,100
DA:126,100
DA:127,100
DA:136,100
DA:137,100
DA:138,100
DA:139,100
DA:142,100
DA:144,179
DA:145,179
DA:146,179
DA:147,179
DA:148,179
DA:149,179
DA:150,100
DA:151,100
DA:152,100
DA:153,100
DA:154,79
DA:156,0
DA:157,100
DA:172,256
DA:173,256
DA:174,256
DA:175,256
DA:176,256
DA:185,1
DA:186,1
DA:188,1
DA:189,1
DA:190,1
DA:191,1
DA:192,1
DA:193,1
DA:196,1
DA:197,1
DA:198,1
DA:199,1
DA:200,1
DA:201,1
DA:204,1
DA:205,1
DA:206,1
DA:207,1
DA:208,1
DA:209,1
DA:212,1
DA:213,1
DA:214,1
BRF:0
BRH:0
LF:104
LH:102
end_of_record
SF:/root/build/catalyst-voting/src/vote_protocol/voter/proof.rs
FN:31,_RINvMNtNtNtCsfjV1l1xxmjd_15catalyst_voting13vote_protocol5voter5proofNtB3_20VoterProofCommitment6randompEB9_
FN:41,_RINvMNtNtNtCsfjV1l1xxmjd_15catalyst_voting13vote_protocol5voter5proofNtB3_20VoterProofCommitment9from_hashpEB9_
FN:54,_RINvNtNtNtCsfjV1l1xxmjd_15catalyst_voting13vote_protocol5voter5proof20generate_voter_proofpEB8_
FN:36,_RNvMNtNtNtCsfjV1l1xxmjd_15catalyst_voting13vote_protocol5voter5proofNtB2_20VoterProofCommitment23random_with_default_rng
FN:110,_RNvNtNtNtCsfjV1l1xxmjd_15catalyst_voting13vote_protocol5voter5proof18verify_voter_proof
FN:89,_RNvNtNtNtCsfjV1l1xxmjd_15catalyst_voting13vote_protocol5voter5proof37generate_voter_proof_with_default_rng
FN:129,_RNvXNtNtNtNtCsfjV1l1xxmjd_15catalyst_voting13vote_protocol5voter5proof14arbitrary_implNtB4_10VoterProofNtNtNtCs4HkuHzaL277_8proptest9arbitrary6traits9Arbitrary14arbitrary_with
FN:31,_RINvMNtNtNtCs81fg4i8wncb_15catalyst_voting13vote_protocol5voter5proofNtB3_20VoterProofCommitment6randomNtNtCsgOU7NZnRzZ4_11rand_chacha6chacha10ChaCha8RngEB9_
FN:54,_RINvNtNtNtCs81fg4i8wncb_15catalyst_voting13vote_protocol5voter5proof20generate_voter_proofNtNtCsgOU7NZnRzZ4_11rand_chacha6chacha10ChaCha8RngEB8_
FN:36,_RNvMNtNtNtCs81fg4i8wncb_15catalyst_voting13vote_protocol5voter5proofNtB2_20VoterProofCommitment23random_with_default_rng
FN:110,_RNvNtNtNtCs81fg4i8wncb_15catalyst_voting13vote_protocol5voter5proof18verify_voter_proof
FN:89,_RNvNtNtNtCs81fg4i8wncb_15catalyst_voting13vote_protocol5voter5proof37generate_voter_proof_with_default_rng
FN:41,_RINvMNtNtNtCs81fg4i8wncb_15catalyst_voting13vote_protocol5voter5proofNtB3_20VoterProofCommitment9from_hashpEB9_
FNDA:0,_RINvMNtNtNtCsfjV1l1xxmjd_15catalyst_voting13vote_protocol5voter5proofNtB3_20VoterProofCommitment6randompEB9_
FNDA:0,_RINvMNtNtNtCsfjV1l1xxmjd_15catalyst_voting13vote_protocol5voter5proofNtB3_20VoterProofCommitment9from_hashpEB9_
FNDA:0,_RINvNtNtNtCsfjV1l1xxmjd_15catalyst_voting13vote_protocol5voter5proof20generate_voter_proofpEB8_
FNDA:0,_RNvMNtNtNtCsfjV1l1xxmjd_15catalyst_voting13vote_protocol5voter5proofNtB2_20VoterProofCommitment23random_with_default_rng
FNDA:0,_RNvNtNtNtCsfjV1l1xxmjd_15catalyst_voting13vote_protocol5voter5proof18verify_voter_proof
FNDA:0,_RNvNtNtNtCsfjV1l1xxmjd_15catalyst_voting13vote_protocol5voter5proof37generate_voter_proof_with_default_rng
FNDA:0,_RNvXNtNtNtNtCsfjV1l1xxmjd_15catalyst_voting13vote_protocol5voter5proof14arbitrary_implNtB4_10VoterProofNtNtNtCs4HkuHzaL277_8proptest9arbitrary6traits9Arbitrary14arbitrary_with
FNDA:1,_RINvMNtNtNtCs81fg4i8wncb_15catalyst_voting13vote_protocol5voter5proofNtB3_20VoterProofCommitment6randomNtNtCsgOU7NZnRzZ4_11rand_chacha6chacha10ChaCha8RngEB9_
FNDA:100,_RINvNtNtNtCs81fg4i8wncb_15catalyst_voting13vote_protocol5voter5proof20generate_voter_proofNtNtCsgOU7NZnRzZ4_11rand_chacha6chacha10ChaCha8RngEB8_
FNDA:1,_RNvMNtNtNtCs81fg4i8wncb_15catalyst_voting13vote_protocol5voter5proofNtB2_20VoterProofCommitment23random_with_default_rng
FNDA:100,_RNvNtNtNtCs81fg4i8wncb_15catalyst_voting13vote_protocol5voter5proof18verify_voter_proof
FNDA:100,_RNvNtNtNtCs81fg4i8wncb_15catalyst_voting13vote_protocol5voter5proof37generate_voter_proof_with_default_rng
FNDA:0,_RINvMNtNtNtCs81fg4i8wncb_15catalyst_voting13vote_protocol5voter5proofNtB3_20VoterProofCommitment9from_hashpEB9_
FNF:7
FNH:5
DA:31,1
DA:32,1
DA:33,1
DA:36,1
DA:37,1
DA:38,1
DA:41,0
DA:42,0
DA:43,0
DA:44,0
DA:54,100
DA:55,100
DA:56,100
DA:57,100
DA:58,100
DA:59,100
DA:60,100
DA:61,100
DA:62,100
DA:63,100
DA:64,0
DA:65,0
DA:67,0
DA:68,0
DA:71,100
DA:72,100
DA:73,100
DA:74,100
DA:75,100
DA:76,100
DA:77,100
DA:79,100
DA:80,100
DA:89,100
DA:90,100
DA:91,100
DA:92,100
DA:93,100
DA:94,100
DA:95,100
DA:96,100
DA:97,100
DA:98,100
DA:99,100
DA:100,100
DA:101,100
DA:102,100
DA:104,100
DA:110,100
DA:111,100
DA:112,100
DA:113,100
DA:114,100
DA:115,100
DA:116,100
DA:117,100
DA:129,0
DA:130,0
DA:131,0
BRF:0
BRH:0
LF:59
LH:48
end_of_record
SF:/root/build/cbork-abnf-parser/src/lib.rs
FN:66,_RNvCscvhOJGGDIt9_17cbork_abnf_parser10parse_abnf
FN:79,_RNvNtCscvhOJGGDIt9_17cbork_abnf_parser5testss_8it_works
FN:66,_RNvCs9ZERVOGRrFV_17cbork_abnf_parser10parse_abnf
FNDA:1,_RNvCscvhOJGGDIt9_17cbork_abnf_parser10parse_abnf
FNDA:1,_RNvNtCscvhOJGGDIt9_17cbork_abnf_parser5testss_8it_works
FNDA:5,_RNvCs9ZERVOGRrFV_17cbork_abnf_parser10parse_abnf
FNF:2
FNH:2
DA:66,6
DA:67,6
DA:68,6
DA:69,6
DA:71,6
DA:72,6
DA:79,1
DA:80,1
DA:81,1
DA:83,1
DA:84,0
DA:85,1
DA:86,1
DA:87,1
DA:88,1
DA:90,1
BRF:0
BRH:0
LF:16
LH:15
end_of_record
SF:/root/build/cbork-cddl-parser/src/lib.rs
FN:23,_RNvCs7tYrs1vIBbT_17cbork_cddl_parser13validate_cddl
FN:23,_RNvCse0ePXuQwk7G_17cbork_cddl_parser13validate_cddl
FNDA:0,_RNvCs7tYrs1vIBbT_17cbork_cddl_parser13validate_cddl
FNDA:48,_RNvCse0ePXuQwk7G_17cbork_cddl_parser13validate_cddl
FNF:1
FNH:1
DA:23,48
DA:24,48
DA:25,48
DA:26,48
DA:27,48
DA:28,39
DA:29,39
DA:30,48
BRF:0
BRH:0
LF:8
LH:8
end_of_record
SF:/root/build/cbork-cddl-parser/src/parser.rs
FN:78,_RNCNvNtCs7tYrs1vIBbT_17cbork_cddl_parser6parser10parse_cddl0B5_
FN:85,_RNCNvNtCs7tYrs1vIBbT_17cbork_cddl_parser6parser10parse_cddls0_0B5_
FN:82,_RNCNvNtCs7tYrs1vIBbT_17cbork_cddl_parser6parser10parse_cddls_0B5_
FN:68,_RNvNtCs7tYrs1vIBbT_17cbork_cddl_parser6parser10parse_cddl
FN:78,_RNCNvNtCse0ePXuQwk7G_17cbork_cddl_parser6parser10parse_cddl0B5_
FN:85,_RNCNvNtCse0ePXuQwk7G_17cbork_cddl_parser6parser10parse_cddls0_0B5_
FN:82,_RNCNvNtCse0ePXuQwk7G_17cbork_cddl_parser6parser10parse_cddls_0B5_
FN:68,_RNvNtCse0ePXuQwk7G_17cbork_cddl_parser6parser10parse_cddl
FNDA:0,_RNCNvNtCs7tYrs1vIBbT_17cbork_cddl_parser6parser10parse_cddl0B5_
FNDA:0,_RNCNvNtCs7tYrs1vIBbT_17cbork_cddl_parser6parser10parse_cddls0_0B5_
FNDA:0,_RNCNvNtCs7tYrs1vIBbT_17cbork_cddl_parser6parser10parse_cddls_0B5_
FNDA:0,_RNvNtCs7tYrs1vIBbT_17cbork_cddl_parser6parser10parse_cddl
FNDA:0,_RNCNvNtCse0ePXuQwk7G_17cbork_cddl_parser6parser10parse_cddl0B5_
FNDA:39,_RNCNvNtCse0ePXuQwk7G_17cbork_cddl_parser6parser10parse_cddls0_0B5_
FNDA:0,_RNCNvNtCse0ePXuQwk7G_17cbork_cddl_parser6parser10parse_cddls_0B5_
FNDA:48,_RNvNtCse0ePXuQwk7G_17cbork_cddl_parser6parser10parse_cddl
FNF:4
FNH:2
DA:68,48
DA:69,48
DA:70,48
DA:71,48
DA:72,48
DA:73,48
DA:75,48
DA:77,0
DA:78,0
DA:81,0
DA:82,0
DA:85,48
DA:88,39
DA:89,48
BRF:0
BRH:0
LF:17
LH:11
end_of_record
SF:/root/build/cbork-cddl-parser/src/preprocessor.rs
FN:31,_RINvNtCs7tYrs1vIBbT_17cbork_cddl_parser12preprocessor23process_root_and_filterpEB4_
FN:44,_RNCINvNtCs7tYrs1vIBbT_17cbork_cddl_parser12preprocessor23process_root_and_filterpE0B6_
FN:14,_RNvNtCs7tYrs1vIBbT_17cbork_cddl_parser12preprocessor11process_ast
FN:31,_RINvNtCse0ePXuQwk7G_17cbork_cddl_parser12preprocessor23process_root_and_filterNtNtNtB4_6parser4cddl4RuleEB4_
FN:31,_RINvNtCse0ePXuQwk7G_17cbork_cddl_parser12preprocessor23process_root_and_filterNtNtNtB4_6parser8rfc_86104RuleEB4_
FN:31,_RINvNtCse0ePXuQwk7G_17cbork_cddl_parser12preprocessor23process_root_and_filterNtNtNtB4_6parser8rfc_91654RuleEB4_
FN:44,_RNCINvNtCse0ePXuQwk7G_17cbork_cddl_parser12preprocessor23process_root_and_filterNtNtNtB6_6parser4cddl4RuleE0B6_
FN:44,_RNCINvNtCse0ePXuQwk7G_17cbork_cddl_parser12preprocessor23process_root_and_filterNtNtNtB6_6parser8rfc_86104RuleE0B6_
FN:44,_RNCINvNtCse0ePXuQwk7G_17cbork_cddl_parser12preprocessor23process_root_and_filterNtNtNtB6_6parser8rfc_91654RuleE0B6_
FN:14,_RNvNtCse0ePXuQwk7G_17cbork_cddl_parser12preprocessor11process_ast
FNDA:0,_RINvNtCs7tYrs1vIBbT_17cbork_cddl_parser12preprocessor23process_root_and_filterpEB4_
FNDA:0,_RNCINvNtCs7tYrs1vIBbT_17cbork_cddl_parser12preprocessor23process_root_and_filterpE0B6_
FNDA:0,_RNvNtCs7tYrs1vIBbT_17cbork_cddl_parser12preprocessor11process_ast
FNDA:39,_RINvNtCse0ePXuQwk7G_17cbork_cddl_parser12preprocessor23process_root_and_filterNtNtNtB4_6parser4cddl4RuleEB4_
FNDA:0,_RINvNtCse0ePXuQwk7G_17cbork_cddl_parser12preprocessor23process_root_and_filterNtNtNtB4_6parser8rfc_86104RuleEB4_
FNDA:0,_RINvNtCse0ePXuQwk7G_17cbork_cddl_parser12preprocessor23process_root_and_filterNtNtNtB4_6parser8rfc_91654RuleEB4_
FNDA:1952,_RNCINvNtCse0ePXuQwk7G_17cbork_cddl_parser12preprocessor23process_root_and_filterNtNtNtB6_6parser4cddl4RuleE0B6_
FNDA:0,_RNCINvNtCse0ePXuQwk7G_17cbork_cddl_parser12preprocessor23process_root_and_filterNtNtNtB6_6parser8rfc_86104RuleE0B6_
FNDA:0,_RNCINvNtCse0ePXuQwk7G_17cbork_cddl_parser12preprocessor23process_root_and_filterNtNtNtB6_6parser8rfc_91654RuleE0B6_
FNDA:39,_RNvNtCse0ePXuQwk7G_17cbork_cddl_parser12preprocessor11process_ast
FNF:3
FNH:3
DA:14,39
DA:15,39
DA:16,0
DA:17,0
DA:18,0
DA:20,0
DA:21,0
DA:22,0
DA:24,39
DA:25,39
DA:28,39
DA:31,39
DA:32,39
DA:33,39
DA:34,39
DA:35,39
DA:36,39
DA:37,39
DA:38,39
DA:39,39
DA:40,0
DA:42,39
DA:43,39
DA:44,1952
DA:45,39
DA:46,39
BRF:0
BRH:0
LF:27
LH:20
end_of_record
SF:/root/build/cbork-utils/src/array.rs
FN:117,_RNCNvNtCsc4m9JVxoMta_11cbork_utils5array26check_array_minimal_length0B5_
FN:77,_RNCNvXs0_NtCsc4m9JVxoMta_11cbork_utils5arrayNtB7_5ArrayINtNtCs906yGzbw5oA_8minicbor6decode6DecodeNtNtB9_14decode_context9DecodeCtxE6decode0B9_
FN:133,_RNvNtCsc4m9JVxoMta_11cbork_utils5array21decode_array_elements
FN:103,_RNvNtCsc4m9JVxoMta_11cbork_utils5array26check_array_minimal_length
FN:69,_RNvXs0_NtCsc4m9JVxoMta_11cbork_utils5arrayNtB5_5ArrayINtNtCs906yGzbw5oA_8minicbor6decode6DecodeNtNtB7_14decode_context9DecodeCtxE6decode
FN:83,_RNCNvXs0_NtCsc4m9JVxoMta_11cbork_utils5arrayNtB7_5ArrayINtNtCs906yGzbw5oA_8minicbor6decode6DecodeNtNtB9_14decode_context9DecodeCtxE6decodes_0B9_
FN:195,_RNvNtNtCsc4m9JVxoMta_11cbork_utils5array5testss_16test_empty_array
FN:253,_RNvNtNtCsc4m9JVxoMta_11cbork_utils5array5testss_21test_array_edge_cases
FN:285,_RNvNtNtCsc4m9JVxoMta_11cbork_utils5array5testss_22test_array_larger_size
FN:271,_RNvNtNtCsc4m9JVxoMta_11cbork_utils5array5testss_25test_array_mixed_elements
FN:172,_RNvNtNtCsc4m9JVxoMta_11cbork_utils5array5testss_26test_array_bytes_roundtrip
FN:234,_RNvNtNtCsc4m9JVxoMta_11cbork_utils5array5testss_27test_array_complex_elements
FN:312,_RNvNtNtCsc4m9JVxoMta_11cbork_utils5array5testss_33test_array_with_indefinite_length
FN:210,_RNvNtNtCsc4m9JVxoMta_11cbork_utils5array5testss_34test_array_minimal_length_encoding
FN:18,_RNvXNtCsc4m9JVxoMta_11cbork_utils5arrayNtB2_5ArrayNtNtNtCs66KPHxksi63_4core3ops5deref5Deref5deref
FN:138,_RNCNvNtCsc4m9JVxoMta_11cbork_utils5array21decode_array_elements0B5_
FN:27,_RNvXs_NtCsc4m9JVxoMta_11cbork_utils5arrayNtB4_5ArrayNtNtNtNtCs66KPHxksi63_4core4iter6traits7collect12IntoIterator9into_iter
FNDA:0,_RNCNvNtCsc4m9JVxoMta_11cbork_utils5array26check_array_minimal_length0B5_
FNDA:2,_RNCNvXs0_NtCsc4m9JVxoMta_11cbork_utils5arrayNtB7_5ArrayINtNtCs906yGzbw5oA_8minicbor6decode6DecodeNtNtB9_14decode_context9DecodeCtxE6decode0B9_
FNDA:9,_RNvNtCsc4m9JVxoMta_11cbork_utils5array21decode_array_elements
FNDA:9,_RNvNtCsc4m9JVxoMta_11cbork_utils5array26check_array_minimal_length
FNDA:12,_RNvXs0_NtCsc4m9JVxoMta_11cbork_utils5arrayNtB5_5ArrayINtNtCs906yGzbw5oA_8minicbor6decode6DecodeNtNtB7_14decode_context9DecodeCtxE6decode
FNDA:9,_RNCNvXs0_NtCsc4m9JVxoMta_11cbork_utils5arrayNtB7_5ArrayINtNtCs906yGzbw5oA_8minicbor6decode6DecodeNtNtB9_14decode_context9DecodeCtxE6decodes_0B9_
FNDA:1,_RNvNtNtCsc4m9JVxoMta_11cbork_utils5array5testss_16test_empty_array
FNDA:1,_RNvNtNtCsc4m9JVxoMta_11cbork_utils5array5testss_21test_array_edge_cases
FNDA:1,_RNvNtNtCsc4m9JVxoMta_11cbork_utils5array5testss_22test_array_larger_size
FNDA:1,_RNvNtNtCsc4m9JVxoMta_11cbork_utils5array5testss_25test_array_mixed_elements
FNDA:1,_RNvNtNtCsc4m9JVxoMta_11cbork_utils5array5testss_26test_array_bytes_roundtrip
FNDA:1,_RNvNtNtCsc4m9JVxoMta_11cbork_utils5array5testss_27test_array_complex_elements
FNDA:1,_RNvNtNtCsc4m9JVxoMta_11cbork_utils5array5testss_33test_array_with_indefinite_length
FNDA:1,_RNvNtNtCsc4m9JVxoMta_11cbork_utils5array5testss_34test_array_minimal_length_encoding
FNDA:6,_RNvXNtCsc4m9JVxoMta_11cbork_utils5arrayNtB2_5ArrayNtNtNtCs66KPHxksi63_4core3ops5deref5Deref5deref
FNDA:0,_RNCNvNtCsc4m9JVxoMta_11cbork_utils5array21decode_array_elements0B5_
FNDA:0,_RNvXs_NtCsc4m9JVxoMta_11cbork_utils5arrayNtB4_5ArrayNtNtNtNtCs66KPHxksi63_4core4iter6traits7collect12IntoIterator9into_iter
FNF:17
FNH:14
DA:18,6
DA:19,6
DA:20,6
DA:27,0
DA:28,0
DA:29,0
DA:69,12
DA:70,12
DA:71,12
DA:72,12
DA:74,12
DA:77,12
DA:78,2
DA:81,2
DA:83,10
DA:85,9
DA:86,12
DA:103,9
DA:104,9
DA:105,9
DA:106,9
DA:107,9
DA:109,9
DA:110,1
DA:111,8
DA:113,8
DA:114,8
DA:115,8
DA:116,8
DA:117,8
DA:118,0
DA:119,0
DA:123,8
DA:124,1
DA:125,1
DA:126,1
DA:127,7
DA:129,7
DA:130,9
DA:133,9
DA:134,9
DA:135,9
DA:136,9
DA:137,9
DA:138,9
DA:139,0
DA:140,0
DA:141,9
DA:144,9
DA:146,18
DA:149,18
DA:150,18
DA:153,18
DA:155,18
DA:158,9
DA:159,9
DA:172,1
DA:174,1
DA:175,1
DA:176,1
DA:177,1
DA:178,1
DA:179,1
DA:182,1
DA:184,1
DA:185,1
DA:186,1
DA:187,1
DA:189,1
DA:195,1
DA:196,1
DA:197,1
DA:198,1
DA:199,1
DA:200,1
DA:210,1
DA:212,1
DA:213,1
DA:214,1
DA:215,1
DA:216,1
DA:219,1
DA:220,1
DA:221,1
DA:222,1
DA:223,1
DA:224,1
DA:225,1
DA:226,1
DA:234,1
DA:235,1
DA:236,1
DA:237,1
DA:238,1
DA:239,1
DA:240,1
DA:241,1
DA:242,1
DA:243,1
DA:253,1
DA:255,1
DA:256,1
DA:257,1
DA:258,1
DA:259,1
DA:262,1
DA:263,1
DA:264,1
DA:265,1
DA:266,1
DA:267,1
DA:271,1
DA:273,1
DA:274,1
DA:275,1
DA:276,1
DA:277,1
DA:278,1
DA:279,1
DA:280,1
DA:285,1
DA:287,1
DA:288,1
DA:289,1
DA:290,1
DA:291,1
DA:292,1
DA:293,1
DA:294,1
DA:295,1
DA:296,1
DA:298,1
DA:299,1
DA:302,1
DA:303,1
DA:304,1
DA:305,1
DA:306,1
DA:307,1
DA:312,1
DA:314,1
DA:315,1
DA:316,1
DA:317,1
DA:318,1
DA:319,1
DA:320,1
DA:322,1
DA:323,1
BRF:0
BRH:0
LF:156
LH:145
end_of_record
SF:/root/build/cbork-utils/src/decode_context.rs
FN:26,_RNvMNtCsc4m9JVxoMta_11cbork_utils14decode_contextNtB2_9DecodeCtx17non_deterministic
FN:45,_RINvMNtCsc4m9JVxoMta_11cbork_utils14decode_contextNtB3_9DecodeCtx9try_checkNCNvNtB5_3map18decode_map_entriess_0EB5_
FN:45,_RINvMNtCsc4m9JVxoMta_11cbork_utils14decode_contextNtB3_9DecodeCtx9try_checkNCNvXs0_NtB5_5arrayNtB1j_5ArrayINtNtCs906yGzbw5oA_8minicbor6decode6DecodeBM_E6decodes_0EB5_
FN:45,_RINvMNtCsc4m9JVxoMta_11cbork_utils14decode_contextNtB3_9DecodeCtx9try_checkNCNvXs2_NtB5_3mapNtB1j_3MapINtNtCs906yGzbw5oA_8minicbor6decode6DecodeBM_E6decodes0_0EB5_
FN:45,_RINvMNtCsc4m9JVxoMta_11cbork_utils14decode_contextNtB3_9DecodeCtx9try_checkNCNvXs2_NtB5_3mapNtB1j_3MapINtNtCs906yGzbw5oA_8minicbor6decode6DecodeBM_E6decodes_0EB5_
FN:37,_RINvMNtCsc4m9JVxoMta_11cbork_utils14decode_contextNtB3_9DecodeCtx30non_deterministic_with_handlerpEB5_
FNDA:5,_RNvMNtCsc4m9JVxoMta_11cbork_utils14decode_contextNtB2_9DecodeCtx17non_deterministic
FNDA:18,_RINvMNtCsc4m9JVxoMta_11cbork_utils14decode_contextNtB3_9DecodeCtx9try_checkNCNvNtB5_3map18decode_map_entriess_0EB5_
FNDA:10,_RINvMNtCsc4m9JVxoMta_11cbork_utils14decode_contextNtB3_9DecodeCtx9try_checkNCNvXs0_NtB5_5arrayNtB1j_5ArrayINtNtCs906yGzbw5oA_8minicbor6decode6DecodeBM_E6decodes_0EB5_
FNDA:12,_RINvMNtCsc4m9JVxoMta_11cbork_utils14decode_contextNtB3_9DecodeCtx9try_checkNCNvXs2_NtB5_3mapNtB1j_3MapINtNtCs906yGzbw5oA_8minicbor6decode6DecodeBM_E6decodes0_0EB5_
FNDA:13,_RINvMNtCsc4m9JVxoMta_11cbork_utils14decode_contextNtB3_9DecodeCtx9try_checkNCNvXs2_NtB5_3mapNtB1j_3MapINtNtCs906yGzbw5oA_8minicbor6decode6DecodeBM_E6decodes_0EB5_
FNDA:0,_RINvMNtCsc4m9JVxoMta_11cbork_utils14decode_contextNtB3_9DecodeCtx30non_deterministic_with_handlerpEB5_
FNF:3
FNH:2
DA:26,5
DA:27,5
DA:28,5
DA:37,0
DA:38,0
DA:39,0
DA:40,0
DA:41,0
DA:45,53
DA:46,53
DA:47,53
DA:48,53
DA:49,12
DA:50,41
DA:51,12
DA:52,0
DA:53,0
DA:54,0
DA:56,0
DA:60,53
BRF:0
BRH:0
LF:20
LH:11
end_of_record
SF:/root/build/cbork-utils/src/decode_helper.rs
FN:10,_RINvNtCsc4m9JVxoMta_11cbork_utils13decode_helper13decode_helperNtNtCs8Ty2CzGA6U3_5alloc6string6StringuEB4_
FN:10,_RINvNtCsc4m9JVxoMta_11cbork_utils13decode_helper13decode_helperluEB4_
FN:10,_RINvNtCsc4m9JVxoMta_11cbork_utils13decode_helper13decode_helpermuEB4_
FN:18,_RNCINvNtCsc4m9JVxoMta_11cbork_utils13decode_helper13decode_helperNtNtCs8Ty2CzGA6U3_5alloc6string6StringuE0B6_
FN:18,_RNCINvNtCsc4m9JVxoMta_11cbork_utils13decode_helper13decode_helperluE0B6_
FN:18,_RNCINvNtCsc4m9JVxoMta_11cbork_utils13decode_helper13decode_helpermuE0B6_
FN:35,_RNCNvNtCsc4m9JVxoMta_11cbork_utils13decode_helper12decode_bytes0B5_
FN:53,_RNCNvNtCsc4m9JVxoMta_11cbork_utils13decode_helper16decode_array_len0B5_
FN:127,_RNCNvNtCsc4m9JVxoMta_11cbork_utils13decode_helper9get_bytes0B5_
FN:98,_RNvNtCsc4m9JVxoMta_11cbork_utils13decode_helper10decode_any
FN:31,_RNvNtCsc4m9JVxoMta_11cbork_utils13decode_helper12decode_bytes
FN:48,_RNvNtCsc4m9JVxoMta_11cbork_utils13decode_helper16decode_array_len
FN:120,_RNvNtCsc4m9JVxoMta_11cbork_utils13decode_helper9get_bytes
FN:209,_RNvNtNtCsc4m9JVxoMta_11cbork_utils13decode_helper5testss_24test_decode_any_not_cbor
FN:90,_RNCNvNtCsc4m9JVxoMta_11cbork_utils13decode_helper10decode_tag0B5_
FN:74,_RNCNvNtCsc4m9JVxoMta_11cbork_utils13decode_helper14decode_map_len0B5_
FN:85,_RNvNtCsc4m9JVxoMta_11cbork_utils13decode_helper10decode_tag
FN:69,_RNvNtCsc4m9JVxoMta_11cbork_utils13decode_helper14decode_map_len
FNDA:256,_RINvNtCsc4m9JVxoMta_11cbork_utils13decode_helper13decode_helperNtNtCs8Ty2CzGA6U3_5alloc6string6StringuEB4_
FNDA:256,_RINvNtCsc4m9JVxoMta_11cbork_utils13decode_helper13decode_helperluEB4_
FNDA:256,_RINvNtCsc4m9JVxoMta_11cbork_utils13decode_helper13decode_helpermuEB4_
FNDA:0,_RNCINvNtCsc4m9JVxoMta_11cbork_utils13decode_helper13decode_helperNtNtCs8Ty2CzGA6U3_5alloc6string6StringuE0B6_
FNDA:0,_RNCINvNtCsc4m9JVxoMta_11cbork_utils13decode_helper13decode_helperluE0B6_
FNDA:0,_RNCINvNtCsc4m9JVxoMta_11cbork_utils13decode_helper13decode_helpermuE0B6_
FNDA:0,_RNCNvNtCsc4m9JVxoMta_11cbork_utils13decode_helper12decode_bytes0B5_
FNDA:0,_RNCNvNtCsc4m9JVxoMta_11cbork_utils13decode_helper16decode_array_len0B5_
FNDA:0,_RNCNvNtCsc4m9JVxoMta_11cbork_utils13decode_helper9get_bytes0B5_
FNDA:1281,_RNvNtCsc4m9JVxoMta_11cbork_utils13decode_helper10decode_any
FNDA:256,_RNvNtCsc4m9JVxoMta_11cbork_utils13decode_helper12decode_bytes
FNDA:256,_RNvNtCsc4m9JVxoMta_11cbork_utils13decode_helper16decode_array_len
FNDA:54,_RNvNtCsc4m9JVxoMta_11cbork_utils13decode_helper9get_bytes
FNDA:1,_RNvNtNtCsc4m9JVxoMta_11cbork_utils13decode_helper5testss_24test_decode_any_not_cbor
FNDA:0,_RNCNvNtCsc4m9JVxoMta_11cbork_utils13decode_helper10decode_tag0B5_
FNDA:0,_RNCNvNtCsc4m9JVxoMta_11cbork_utils13decode_helper14decode_map_len0B5_
FNDA:0,_RNvNtCsc4m9JVxoMta_11cbork_utils13decode_helper10decode_tag
FNDA:0,_RNvNtCsc4m9JVxoMta_11cbork_utils13decode_helper14decode_map_len
FNF:14
FNH:6
DA:10,768
DA:11,768
DA:12,768
DA:13,768
DA:14,768
DA:15,768
DA:16,768
DA:18,768
DA:19,0
DA:20,0
DA:21,0
DA:23,0
DA:24,768
DA:31,256
DA:32,256
DA:33,256
DA:34,256
DA:35,256
DA:36,0
DA:37,0
DA:38,0
DA:40,0
DA:41,256
DA:48,256
DA:49,256
DA:50,256
DA:51,256
DA:52,256
DA:53,256
DA:54,0
DA:55,0
DA:56,0
DA:58,0
DA:59,256
DA:60,256
DA:62,256
DA:69,0
DA:70,0
DA:71,0
DA:72,0
DA:73,0
DA:74,0
DA:75,0
DA:76,0
DA:78,0
DA:85,0
DA:86,0
DA:87,0
DA:88,0
DA:89,0
DA:90,0
DA:91,0
DA:98,1281
DA:99,1281
DA:100,1281
DA:101,1281
DA:102,1281
DA:103,1281
DA:104,1280
DA:105,1280
DA:106,1280
DA:107,1280
DA:108,1280
DA:109,1280
DA:110,0
DA:111,1280
DA:112,1281
DA:120,54
DA:121,54
DA:122,54
DA:123,54
DA:124,54
DA:125,54
DA:126,54
DA:127,54
DA:128,54
DA:209,1
DA:210,1
DA:211,1
DA:213,1
DA:214,1
BRF:0
BRH:0
LF:88
LH:52
end_of_record
SF:/root/build/cbork-utils/src/deterministic_helper.rs
FN:150,_RNvNtNtCsc4m9JVxoMta_11cbork_utils20deterministic_helper5testss_24test_get_declared_length
FN:197,_RNvNtNtCsc4m9JVxoMta_11cbork_utils20deterministic_helper5testss_25test_get_cbor_header_size
FN:42,_RNCNvNtCsc4m9JVxoMta_11cbork_utils20deterministic_helper19get_declared_length0B5_
FN:100,_RNCNvNtCsc4m9JVxoMta_11cbork_utils20deterministic_helper20get_cbor_header_size0B5_
FN:38,_RNvNtCsc4m9JVxoMta_11cbork_utils20deterministic_helper19get_declared_length
FN:95,_RNvNtCsc4m9JVxoMta_11cbork_utils20deterministic_helper20get_cbor_header_size
FNDA:1,_RNvNtNtCsc4m9JVxoMta_11cbork_utils20deterministic_helper5testss_24test_get_declared_length
FNDA:1,_RNvNtNtCsc4m9JVxoMta_11cbork_utils20deterministic_helper5testss_25test_get_cbor_header_size
FNDA:17,_RNCNvNtCsc4m9JVxoMta_11cbork_utils20deterministic_helper19get_declared_length0B5_
FNDA:1,_RNCNvNtCsc4m9JVxoMta_11cbork_utils20deterministic_helper20get_cbor_header_size0B5_
FNDA:17,_RNvNtCsc4m9JVxoMta_11cbork_utils20deterministic_helper19get_declared_length
FNDA:23,_RNvNtCsc4m9JVxoMta_11cbork_utils20deterministic_helper20get_cbor_header_size
FNF:6
FNH:6
DA:38,17
DA:39,17
DA:42,17
DA:43,1
DA:46,16
DA:47,16
DA:51,0
DA:52,0
DA:55,0
DA:57,17
DA:95,23
DA:97,23
DA:98,23
DA:99,23
DA:100,23
DA:104,22
DA:107,22
DA:110,22
DA:114,1
DA:118,2
DA:122,1
DA:126,1
DA:130,1
DA:131,1
DA:132,1
DA:137,1
DA:138,1
DA:139,1
DA:142,23
DA:150,1
DA:156,1
DA:158,1
DA:160,1
DA:167,1
DA:169,1
DA:171,1
DA:178,1
DA:179,1
DA:181,1
DA:182,1
DA:189,1
DA:190,1
DA:192,1
DA:193,1
DA:194,1
DA:197,1
DA:199,1
DA:200,1
DA:203,1
DA:206,1
DA:209,1
DA:210,1
DA:215,1
DA:216,1
DA:217,1
DA:223,1
DA:226,1
DA:227,1
DA:230,1
DA:233,1
DA:236,1
DA:237,1
BRF:0
BRH:0
LF:64
LH:61
end_of_record
SF:/root/build/cbork-utils/src/map.rs
FN:375,_RNvNtNtCsc4m9JVxoMta_11cbork_utils3map5testss_14test_empty_map
FN:486,_RNvNtNtCsc4m9JVxoMta_11cbork_utils3map5testss_19test_duplicate_keys
FN:458,_RNvNtNtCsc4m9JVxoMta_11cbork_utils3map5testss_19test_map_edge_cases
FN:436,_RNvNtNtCsc4m9JVxoMta_11cbork_utils3map5testss_21test_map_complex_keys
FN:300,_RNvNtNtCsc4m9JVxoMta_11cbork_utils3map5testss_24test_map_bytes_roundtrip
FN:343,_RNvNtNtCsc4m9JVxoMta_11cbork_utils3map5testss_31test_map_lexicographic_ordering
FN:500,_RNvNtNtCsc4m9JVxoMta_11cbork_utils3map5testss_32test_map_entry_ord_comprehensive
FN:601,_RNvNtNtCsc4m9JVxoMta_11cbork_utils3map5testss_32test_map_entry_ord_len_edge_case
FN:406,_RNvNtNtCsc4m9JVxoMta_11cbork_utils3map5testss_32test_map_minimal_length_encoding
FN:221,_RNCNvNtCsc4m9JVxoMta_11cbork_utils3map18decode_map_entriess_0B5_
FN:142,_RNCNvXs2_NtCsc4m9JVxoMta_11cbork_utils3mapNtB7_3MapINtNtCs906yGzbw5oA_8minicbor6decode6DecodeNtNtB9_14decode_context9DecodeCtxE6decodes0_0B9_
FN:137,_RNCNvXs2_NtCsc4m9JVxoMta_11cbork_utils3mapNtB7_3MapINtNtCs906yGzbw5oA_8minicbor6decode6DecodeNtNtB9_14decode_context9DecodeCtxE6decodes_0B9_
FN:176,_RNCNvNtCsc4m9JVxoMta_11cbork_utils3map24check_map_minimal_length0B5_
FN:238,_RNCNvNtCsc4m9JVxoMta_11cbork_utils3map26map_keys_are_deterministic0B5_
FN:74,_RNCNvXs1_NtCsc4m9JVxoMta_11cbork_utils3mapNtB7_8MapEntryNtNtCs66KPHxksi63_4core3cmp3Ord3cmp0B9_
FN:131,_RNCNvXs2_NtCsc4m9JVxoMta_11cbork_utils3mapNtB7_3MapINtNtCs906yGzbw5oA_8minicbor6decode6DecodeNtNtB9_14decode_context9DecodeCtxE6decode0B9_
FN:192,_RNvNtCsc4m9JVxoMta_11cbork_utils3map18decode_map_entries
FN:274,_RNvNtCsc4m9JVxoMta_11cbork_utils3map19check_pair_ordering
FN:253,_RNvNtCsc4m9JVxoMta_11cbork_utils3map21validate_map_ordering
FN:162,_RNvNtCsc4m9JVxoMta_11cbork_utils3map24check_map_minimal_length
FN:234,_RNvNtCsc4m9JVxoMta_11cbork_utils3map26map_keys_are_deterministic
FN:55,_RNvXs0_NtCsc4m9JVxoMta_11cbork_utils3mapNtB5_8MapEntryNtNtCs66KPHxksi63_4core3cmp10PartialOrd11partial_cmp
FN:67,_RNvXs1_NtCsc4m9JVxoMta_11cbork_utils3mapNtB5_8MapEntryNtNtCs66KPHxksi63_4core3cmp3Ord3cmp
FN:120,_RNvXs2_NtCsc4m9JVxoMta_11cbork_utils3mapNtB5_3MapINtNtCs906yGzbw5oA_8minicbor6decode6DecodeNtNtB7_14decode_context9DecodeCtxE6decode
FN:197,_RNCNvNtCsc4m9JVxoMta_11cbork_utils3map18decode_map_entries0B5_
FN:20,_RNvXNtCsc4m9JVxoMta_11cbork_utils3mapNtB2_3MapNtNtNtCs66KPHxksi63_4core3ops5deref5Deref5deref
FN:29,_RNvXs_NtCsc4m9JVxoMta_11cbork_utils3mapNtB4_3MapNtNtNtNtCs66KPHxksi63_4core4iter6traits7collect12IntoIterator9into_iter
FNDA:1,_RNvNtNtCsc4m9JVxoMta_11cbork_utils3map5testss_14test_empty_map
FNDA:1,_RNvNtNtCsc4m9JVxoMta_11cbork_utils3map5testss_19test_duplicate_keys
FNDA:1,_RNvNtNtCsc4m9JVxoMta_11cbork_utils3map5testss_19test_map_edge_cases
FNDA:1,_RNvNtNtCsc4m9JVxoMta_11cbork_utils3map5testss_21test_map_complex_keys
FNDA:1,_RNvNtNtCsc4m9JVxoMta_11cbork_utils3map5testss_24test_map_bytes_roundtrip
FNDA:1,_RNvNtNtCsc4m9JVxoMta_11cbork_utils3map5testss_31test_map_lexicographic_ordering
FNDA:1,_RNvNtNtCsc4m9JVxoMta_11cbork_utils3map5testss_32test_map_entry_ord_comprehensive
FNDA:1,_RNvNtNtCsc4m9JVxoMta_11cbork_utils3map5testss_32test_map_entry_ord_len_edge_case
FNDA:1,_RNvNtNtCsc4m9JVxoMta_11cbork_utils3map5testss_32test_map_minimal_length_encoding
FNDA:13,_RNCNvNtCsc4m9JVxoMta_11cbork_utils3map18decode_map_entriess_0B5_
FNDA:9,_RNCNvXs2_NtCsc4m9JVxoMta_11cbork_utils3mapNtB7_3MapINtNtCs906yGzbw5oA_8minicbor6decode6DecodeNtNtB9_14decode_context9DecodeCtxE6decodes0_0B9_
FNDA:10,_RNCNvXs2_NtCsc4m9JVxoMta_11cbork_utils3mapNtB7_3MapINtNtCs906yGzbw5oA_8minicbor6decode6DecodeNtNtB9_14decode_context9DecodeCtxE6decodes_0B9_
FNDA:0,_RNCNvNtCsc4m9JVxoMta_11cbork_utils3map24check_map_minimal_length0B5_
FNDA:0,_RNCNvNtCsc4m9JVxoMta_11cbork_utils3map26map_keys_are_deterministic0B5_
FNDA:8,_RNCNvXs1_NtCsc4m9JVxoMta_11cbork_utils3mapNtB7_8MapEntryNtNtCs66KPHxksi63_4core3cmp3Ord3cmp0B9_
FNDA:0,_RNCNvXs2_NtCsc4m9JVxoMta_11cbork_utils3mapNtB7_3MapINtNtCs906yGzbw5oA_8minicbor6decode6DecodeNtNtB9_14decode_context9DecodeCtxE6decode0B9_
FNDA:12,_RNvNtCsc4m9JVxoMta_11cbork_utils3map18decode_map_entries
FNDA:5,_RNvNtCsc4m9JVxoMta_11cbork_utils3map19check_pair_ordering
FNDA:9,_RNvNtCsc4m9JVxoMta_11cbork_utils3map21validate_map_ordering
FNDA:10,_RNvNtCsc4m9JVxoMta_11cbork_utils3map24check_map_minimal_length
FNDA:13,_RNvNtCsc4m9JVxoMta_11cbork_utils3map26map_keys_are_deterministic
FNDA:8,_RNvXs0_NtCsc4m9JVxoMta_11cbork_utils3mapNtB5_8MapEntryNtNtCs66KPHxksi63_4core3cmp10PartialOrd11partial_cmp
FNDA:14,_RNvXs1_NtCsc4m9JVxoMta_11cbork_utils3mapNtB5_8MapEntryNtNtCs66KPHxksi63_4core3cmp3Ord3cmp
FNDA:13,_RNvXs2_NtCsc4m9JVxoMta_11cbork_utils3mapNtB5_3MapINtNtCs906yGzbw5oA_8minicbor6decode6DecodeNtNtB7_14decode_context9DecodeCtxE6decode
FNDA:0,_RNCNvNtCsc4m9JVxoMta_11cbork_utils3map18decode_map_entries0B5_
FNDA:0,_RNvXNtCsc4m9JVxoMta_11cbork_utils3mapNtB2_3MapNtNtNtCs66KPHxksi63_4core3ops5deref5Deref5deref
FNDA:0,_RNvXs_NtCsc4m9JVxoMta_11cbork_utils3mapNtB4_3MapNtNtNtNtCs66KPHxksi63_4core4iter6traits7collect12IntoIterator9into_iter
FNF:27
FNH:21
DA:20,0
DA:21,0
DA:22,0
DA:29,0
DA:30,0
DA:31,0
DA:55,8
DA:56,8
DA:57,8
DA:58,8
DA:59,8
DA:60,8
DA:67,14
DA:68,14
DA:69,14
DA:70,14
DA:71,14
DA:72,14
DA:73,14
DA:74,14
DA:75,14
DA:120,13
DA:121,13
DA:122,13
DA:123,13
DA:125,13
DA:131,13
DA:132,0
DA:135,0
DA:137,13
DA:140,12
DA:142,12
DA:144,10
DA:145,13
DA:162,10
DA:163,10
DA:164,10
DA:165,10
DA:166,10
DA:168,10
DA:169,1
DA:170,9
DA:172,9
DA:173,9
DA:174,9
DA:175,9
DA:176,9
DA:177,0
DA:178,0
DA:182,9
DA:183,1
DA:184,1
DA:185,1
DA:186,8
DA:188,8
DA:189,10
DA:192,12
DA:193,12
DA:194,12
DA:195,12
DA:196,12
DA:197,12
DA:198,0
DA:199,0
DA:200,12
DA:203,12
DA:205,18
DA:208,18
DA:209,18
DA:212,18
DA:215,18
DA:216,18
DA:219,18
DA:221,18
DA:223,18
DA:225,18
DA:228,12
DA:229,12
DA:234,13
DA:236,13
DA:237,12
DA:238,12
DA:239,0
DA:240,0
DA:242,12
DA:243,0
DA:244,0
DA:245,0
DA:246,12
DA:247,1
DA:248,13
DA:249,13
DA:253,9
DA:254,9
DA:257,9
DA:259,1
DA:263,11
DA:264,5
DA:265,3
DA:268,6
DA:269,9
DA:274,5
DA:275,5
DA:276,5
DA:277,5
DA:278,5
DA:279,3
DA:280,1
DA:282,1
DA:283,1
DA:284,1
DA:287,5
DA:300,1
DA:302,1
DA:310,1
DA:311,1
DA:315,1
DA:317,1
DA:318,1
DA:319,1
DA:320,1
DA:321,1
DA:322,1
DA:323,1
DA:324,1
DA:325,1
DA:326,1
DA:327,1
DA:328,1
DA:329,1
DA:330,1
DA:332,1
DA:343,1
DA:346,1
DA:353,1
DA:354,1
DA:359,1
DA:366,1
DA:367,1
DA:368,1
DA:369,1
DA:375,1
DA:376,1
DA:379,1
DA:380,1
DA:381,1
DA:406,1
DA:408,1
DA:413,1
DA:415,1
DA:418,1
DA:424,1
DA:425,1
DA:426,1
DA:427,1
DA:436,1
DA:439,1
DA:446,1
DA:447,1
DA:448,1
DA:458,1
DA:460,1
DA:465,1
DA:466,1
DA:470,1
DA:475,1
DA:476,1
DA:477,1
DA:486,1
DA:487,1
DA:494,1
DA:495,1
DA:496,1
DA:497,1
DA:500,1
DA:504,1
DA:505,1
DA:506,1
DA:507,1
DA:508,1
DA:509,1
DA:510,1
DA:511,1
DA:513,1
DA:514,1
DA:519,1
DA:520,1
DA:521,1
DA:522,1
DA:523,1
DA:524,1
DA:525,1
DA:526,1
DA:528,1
DA:529,1
DA:530,1
DA:534,1
DA:535,1
DA:536,1
DA:537,1
DA:538,1
DA:539,1
DA:540,1
DA:541,1
DA:543,1
DA:547,1
DA:548,1
DA:549,1
DA:550,1
DA:551,1
DA:552,1
DA:553,1
DA:554,1
DA:556,1
DA:558,1
DA:562,1
DA:563,1
DA:564,1
DA:565,1
DA:566,1
DA:567,1
DA:568,1
DA:569,1
DA:571,1
DA:575,1
DA:576,1
DA:577,1
DA:578,1
DA:579,1
DA:580,1
DA:581,1
DA:582,1
DA:584,1
DA:588,1
DA:589,1
DA:590,1
DA:591,1
DA:592,1
DA:593,1
DA:594,1
DA:595,1
DA:597,1
DA:598,1
DA:601,1
DA:603,1
DA:604,1
DA:605,1
DA:606,1
DA:607,1
DA:610,1
DA:611,1
DA:612,1
DA:613,1
DA:614,1
DA:617,1
DA:618,1
BRF:0
BRH:0
LF:268
LH:243
end_of_record
SF:/root/build/cbork-utils/src/with_cbor_bytes.rs
FN:29,_RINvMs_NtCsc4m9JVxoMta_11cbork_utils15with_cbor_bytesINtB5_13WithCborBytespE3newpEB7_
FN:47,_RINvXININtCsc4m9JVxoMta_11cbork_utils15with_cbor_bytess0_0pEINtB6_13WithCborBytespEINtNtCs906yGzbw5oA_8minicbor6encode6EncodeuE6encodepEB8_
FN:41,_RNvMs_NtCsc4m9JVxoMta_11cbork_utils15with_cbor_bytesINtB4_13WithCborBytespE5innerB6_
FN:18,_RNvXININtCsc4m9JVxoMta_11cbork_utils15with_cbor_bytes0pEINtB5_13WithCborBytespENtNtNtCs66KPHxksi63_4core3ops5deref5Deref5derefB7_
FN:60,_RNvXININtCsc4m9JVxoMta_11cbork_utils15with_cbor_bytess1_0ppEINtB5_13WithCborBytespEINtNtCs906yGzbw5oA_8minicbor6decode6DecodepE6decodeB7_
FNDA:0,_RINvMs_NtCsc4m9JVxoMta_11cbork_utils15with_cbor_bytesINtB5_13WithCborBytespE3newpEB7_
FNDA:0,_RINvXININtCsc4m9JVxoMta_11cbork_utils15with_cbor_bytess0_0pEINtB6_13WithCborBytespEINtNtCs906yGzbw5oA_8minicbor6encode6EncodeuE6encodepEB8_
FNDA:0,_RNvMs_NtCsc4m9JVxoMta_11cbork_utils15with_cbor_bytesINtB4_13WithCborBytespE5innerB6_
FNDA:0,_RNvXININtCsc4m9JVxoMta_11cbork_utils15with_cbor_bytes0pEINtB5_13WithCborBytespENtNtNtCs66KPHxksi63_4core3ops5deref5Deref5derefB7_
FNDA:0,_RNvXININtCsc4m9JVxoMta_11cbork_utils15with_cbor_bytess1_0ppEINtB5_13WithCborBytespEINtNtCs906yGzbw5oA_8minicbor6decode6DecodepE6decodeB7_
FNF:5
FNH:0
DA:18,0
DA:19,0
DA:20,0
DA:29,0
DA:30,0
DA:31,0
DA:32,0
DA:33,0
DA:34,0
DA:36,0
DA:37,0
DA:38,0
DA:41,0
DA:42,0
DA:43,0
DA:47,0
DA:48,0
DA:49,0
DA:50,0
DA:51,0
DA:52,0
DA:53,0
DA:54,0
DA:55,0
DA:56,0
DA:60,0
DA:61,0
DA:62,0
DA:63,0
DA:64,0
DA:65,0
DA:66,0
DA:67,0
DA:68,0
DA:69,0
DA:70,0
DA:71,0
DA:72,0
DA:73,0
BRF:0
BRH:0
LF:39
LH:0
end_of_record
SF:/root/build/cbork/src/cli.rs
FN:68,_RNCNCNvNtCs6nvVRFkaNnW_5cbork3cli20check_dir_with_print00B7_
FN:62,_RNCNvNtCs6nvVRFkaNnW_5cbork3cli20check_dir_with_print0B5_
FN:20,_RNvMNtCs6nvVRFkaNnW_5cbork3cliNtB2_3Cli4exec
FN:34,_RNvNtCs6nvVRFkaNnW_5cbork3cli10check_file
FN:61,_RNvNtCs6nvVRFkaNnW_5cbork3cli20check_dir_with_print
FN:41,_RNvNtCs6nvVRFkaNnW_5cbork3cli21check_file_with_print
FNDA:0,_RNCNCNvNtCs6nvVRFkaNnW_5cbork3cli20check_dir_with_print00B7_
FNDA:0,_RNCNvNtCs6nvVRFkaNnW_5cbork3cli20check_dir_with_print0B5_
FNDA:0,_RNvMNtCs6nvVRFkaNnW_5cbork3cliNtB2_3Cli4exec
FNDA:0,_RNvNtCs6nvVRFkaNnW_5cbork3cli10check_file
FNDA:0,_RNvNtCs6nvVRFkaNnW_5cbork3cli20check_dir_with_print
FNDA:0,_RNvNtCs6nvVRFkaNnW_5cbork3cli21check_file_with_print
FNF:6
FNH:0
DA:20,0
DA:21,0
DA:22,0
DA:24,0
DA:27,0
DA:28,0
DA:29,0
DA:30,0
DA:34,0
DA:35,0
DA:36,0
DA:37,0
DA:38,0
DA:41,0
DA:42,0
DA:43,0
DA:44,0
DA:45,0
DA:46,0
DA:47,0
DA:49,0
DA:51,0
DA:52,0
DA:54,0
DA:61,0
DA:62,0
DA:63,0
DA:64,0
DA:65,0
DA:66,0
DA:67,0
DA:68,0
DA:69,0
DA:70,0
DA:71,0
DA:72,0
DA:73,0
DA:75,0
DA:76,0
DA:78,0
DA:79,0
DA:80,0
DA:81,0
DA:82,0
DA:83,0
DA:85,0
DA:87,0
DA:89,0
BRF:0
BRH:0
LF:50
LH:0
end_of_record
SF:/root/build/cbork/src/main.rs
FN:5,_RNvCs6nvVRFkaNnW_5cbork4main
FNDA:0,_RNvCs6nvVRFkaNnW_5cbork4main
FNF:1
FNH:0
DA:5,0
DA:8,0
DA:9,0
BRF:0
BRH:0
LF:3
LH:0
end_of_record
SF:/root/build/hermes-ipfs/src/lib.rs
FN:71,_RINvMCsgsSuo9j5vQU_11hermes_ipfsNtB3_11IpfsBuilder16set_disk_storagepEB3_
FN:472,_RINvMs0_CsgsSuo9j5vQU_11hermes_ipfsNtB6_10HermesIpfs13pubsub_eventspEB6_
FN:533,_RINvMs0_CsgsSuo9j5vQU_11hermes_ipfsNtB6_10HermesIpfs14pubsub_publishpEB6_
FN:492,_RINvMs0_CsgsSuo9j5vQU_11hermes_ipfsNtB6_10HermesIpfs16pubsub_subscribepEB6_
FN:512,_RINvMs0_CsgsSuo9j5vQU_11hermes_ipfsNtB6_10HermesIpfs18pubsub_unsubscribepEB6_
FN:371,_RINvMs0_CsgsSuo9j5vQU_11hermes_ipfsNtB6_10HermesIpfs7dag_getpEB6_
FN:413,_RINvMs0_CsgsSuo9j5vQU_11hermes_ipfsNtB6_10HermesIpfs7dht_getpEB6_
FN:392,_RINvMs0_CsgsSuo9j5vQU_11hermes_ipfsNtB6_10HermesIpfs7dht_putppEB6_
FN:475,_RNCINvMs0_CsgsSuo9j5vQU_11hermes_ipfsNtB8_10HermesIpfs13pubsub_eventspE0B8_
FN:537,_RNCINvMs0_CsgsSuo9j5vQU_11hermes_ipfsNtB8_10HermesIpfs14pubsub_publishpE0B8_
FN:495,_RNCINvMs0_CsgsSuo9j5vQU_11hermes_ipfsNtB8_10HermesIpfs16pubsub_subscribepE0B8_
FN:515,_RNCINvMs0_CsgsSuo9j5vQU_11hermes_ipfsNtB8_10HermesIpfs18pubsub_unsubscribepE0B8_
FN:374,_RNCINvMs0_CsgsSuo9j5vQU_11hermes_ipfsNtB8_10HermesIpfs7dag_getpE0B8_
FN:416,_RNCINvMs0_CsgsSuo9j5vQU_11hermes_ipfsNtB8_10HermesIpfs7dht_getpE0B8_
FN:396,_RNCINvMs0_CsgsSuo9j5vQU_11hermes_ipfsNtB8_10HermesIpfs7dht_putppE0B8_
FN:655,_RNCNvCsgsSuo9j5vQU_11hermes_ipfs24subscription_stream_task0B3_
FN:105,_RNCNvMCsgsSuo9j5vQU_11hermes_ipfsNtB4_11IpfsBuilder5start0B4_
FN:198,_RNCNvMs0_CsgsSuo9j5vQU_11hermes_ipfsNtB7_10HermesIpfs10insert_pin0B7_
FN:261,_RNCNvMs0_CsgsSuo9j5vQU_11hermes_ipfsNtB7_10HermesIpfs10remove_pin0B7_
FN:442,_RNCNvMs0_CsgsSuo9j5vQU_11hermes_ipfsNtB7_10HermesIpfs13add_bootstrap0B7_
FN:160,_RNCNvMs0_CsgsSuo9j5vQU_11hermes_ipfsNtB7_10HermesIpfs13add_ipfs_file0B7_
FN:181,_RNCNvMs0_CsgsSuo9j5vQU_11hermes_ipfsNtB7_10HermesIpfs13get_ipfs_file0B7_
FN:314,_RNCNvMs0_CsgsSuo9j5vQU_11hermes_ipfsNtB7_10HermesIpfs19listening_addresses0B7_
FN:266,_RNCNvMs0_CsgsSuo9j5vQU_11hermes_ipfsNtB7_10HermesIpfs4stop0B7_
FN:132,_RNCNvMs0_CsgsSuo9j5vQU_11hermes_ipfsNtB7_10HermesIpfs5start0B7_
FN:354,_RNCNvMs0_CsgsSuo9j5vQU_11hermes_ipfsNtB7_10HermesIpfs7dag_put0B7_
FN:301,_RNCNvMs0_CsgsSuo9j5vQU_11hermes_ipfsNtB7_10HermesIpfs8add_peer0B7_
FN:560,_RNCNvMs0_CsgsSuo9j5vQU_11hermes_ipfsNtB7_10HermesIpfs8ban_peer0B7_
FN:334,_RNCNvMs0_CsgsSuo9j5vQU_11hermes_ipfsNtB7_10HermesIpfs8dht_mode0B7_
FN:283,_RNCNvMs0_CsgsSuo9j5vQU_11hermes_ipfsNtB7_10HermesIpfs8identity0B7_
FN:455,_RNCNvMs0_CsgsSuo9j5vQU_11hermes_ipfsNtB7_10HermesIpfs9bootstrap0B7_
FN:226,_RNCNvMs0_CsgsSuo9j5vQU_11hermes_ipfsNtB7_10HermesIpfs9is_pinned0B7_
FN:238,_RNCNvMs0_CsgsSuo9j5vQU_11hermes_ipfsNtB7_10HermesIpfs9list_pins0B7_
FN:651,_RNvCsgsSuo9j5vQU_11hermes_ipfs24subscription_stream_task
FN:92,_RNvMCsgsSuo9j5vQU_11hermes_ipfsNtB2_11IpfsBuilder11disable_tls
FN:57,_RNvMCsgsSuo9j5vQU_11hermes_ipfsNtB2_11IpfsBuilder12with_default
FN:63,_RNvMCsgsSuo9j5vQU_11hermes_ipfsNtB2_11IpfsBuilder20set_default_listener
FN:83,_RNvMCsgsSuo9j5vQU_11hermes_ipfsNtB2_11IpfsBuilder27set_transport_configuration
FN:51,_RNvMCsgsSuo9j5vQU_11hermes_ipfsNtB2_11IpfsBuilder3new
FN:105,_RNvMCsgsSuo9j5vQU_11hermes_ipfsNtB2_11IpfsBuilder5start
FN:195,_RNvMs0_CsgsSuo9j5vQU_11hermes_ipfsNtB5_10HermesIpfs10insert_pin
FN:258,_RNvMs0_CsgsSuo9j5vQU_11hermes_ipfsNtB5_10HermesIpfs10remove_pin
FN:439,_RNvMs0_CsgsSuo9j5vQU_11hermes_ipfsNtB5_10HermesIpfs13add_bootstrap
FN:157,_RNvMs0_CsgsSuo9j5vQU_11hermes_ipfsNtB5_10HermesIpfs13add_ipfs_file
FN:178,_RNvMs0_CsgsSuo9j5vQU_11hermes_ipfsNtB5_10HermesIpfs13get_ipfs_file
FN:314,_RNvMs0_CsgsSuo9j5vQU_11hermes_ipfsNtB5_10HermesIpfs19listening_addresses
FN:266,_RNvMs0_CsgsSuo9j5vQU_11hermes_ipfsNtB5_10HermesIpfs4stop
FN:132,_RNvMs0_CsgsSuo9j5vQU_11hermes_ipfsNtB5_10HermesIpfs5start
FN:351,_RNvMs0_CsgsSuo9j5vQU_11hermes_ipfsNtB5_10HermesIpfs7dag_put
FN:297,_RNvMs0_CsgsSuo9j5vQU_11hermes_ipfsNtB5_10HermesIpfs8add_peer
FN:557,_RNvMs0_CsgsSuo9j5vQU_11hermes_ipfsNtB5_10HermesIpfs8ban_peer
FN:331,_RNvMs0_CsgsSuo9j5vQU_11hermes_ipfsNtB5_10HermesIpfs8dht_mode
FN:280,_RNvMs0_CsgsSuo9j5vQU_11hermes_ipfsNtB5_10HermesIpfs8identity
FN:455,_RNvMs0_CsgsSuo9j5vQU_11hermes_ipfsNtB5_10HermesIpfs9bootstrap
FN:223,_RNvMs0_CsgsSuo9j5vQU_11hermes_ipfsNtB5_10HermesIpfs9is_pinned
FN:238,_RNvMs0_CsgsSuo9j5vQU_11hermes_ipfsNtB5_10HermesIpfs9list_pins
FN:566,_RNvXs1_CsgsSuo9j5vQU_11hermes_ipfsNtB5_10HermesIpfsINtNtCs66KPHxksi63_4core7convert4FromNtCsjSOoJWhB7YB_9rust_ipfs4IpfsE4from
FN:582,_RNvXs2_CsgsSuo9j5vQU_11hermes_ipfsNtNtCsjSOoJWhB7YB_9rust_ipfs6unixfs6AddOptINtNtCs66KPHxksi63_4core7convert4FromNtB5_11AddIpfsFileE4from
FN:592,_RNvXs3_CsgsSuo9j5vQU_11hermes_ipfsNtB5_11AddIpfsFileINtNtCs66KPHxksi63_4core7convert4FromNtNtCs8Ty2CzGA6U3_5alloc6string6StringE4from
